
vadd_e64_c:     file format elf32-littleriscv


Disassembly of section .text:

00000000 <main>:
   0:	f9010113          	addi	sp,sp,-112
   4:	06812623          	sw	s0,108(sp)
   8:	07010413          	addi	s0,sp,112
   c:	00500793          	li	a5,5
  10:	fef42623          	sw	a5,-20(s0)
  14:	13800793          	li	a5,312
  18:	0007ae03          	lw	t3,0(a5)
  1c:	0047a303          	lw	t1,4(a5)
  20:	0087a883          	lw	a7,8(a5)
  24:	00c7a803          	lw	a6,12(a5)
  28:	0107a503          	lw	a0,16(a5)
  2c:	0147a583          	lw	a1,20(a5)
  30:	0187a603          	lw	a2,24(a5)
  34:	01c7a683          	lw	a3,28(a5)
  38:	0207a703          	lw	a4,32(a5)
  3c:	0247a783          	lw	a5,36(a5)
  40:	fbc42c23          	sw	t3,-72(s0)
  44:	fa642e23          	sw	t1,-68(s0)
  48:	fd142023          	sw	a7,-64(s0)
  4c:	fd042223          	sw	a6,-60(s0)
  50:	fca42423          	sw	a0,-56(s0)
  54:	fcb42623          	sw	a1,-52(s0)
  58:	fcc42823          	sw	a2,-48(s0)
  5c:	fcd42a23          	sw	a3,-44(s0)
  60:	fce42c23          	sw	a4,-40(s0)
  64:	fcf42e23          	sw	a5,-36(s0)
  68:	fb840793          	addi	a5,s0,-72
  6c:	fef42423          	sw	a5,-24(s0)
  70:	16000793          	li	a5,352
  74:	0007ae03          	lw	t3,0(a5)
  78:	0047a303          	lw	t1,4(a5)
  7c:	0087a883          	lw	a7,8(a5)
  80:	00c7a803          	lw	a6,12(a5)
  84:	0107a503          	lw	a0,16(a5)
  88:	0147a583          	lw	a1,20(a5)
  8c:	0187a603          	lw	a2,24(a5)
  90:	01c7a683          	lw	a3,28(a5)
  94:	0207a703          	lw	a4,32(a5)
  98:	0247a783          	lw	a5,36(a5)
  9c:	f9c42823          	sw	t3,-112(s0)
  a0:	f8642a23          	sw	t1,-108(s0)
  a4:	f9142c23          	sw	a7,-104(s0)
  a8:	f9042e23          	sw	a6,-100(s0)
  ac:	faa42023          	sw	a0,-96(s0)
  b0:	fab42223          	sw	a1,-92(s0)
  b4:	fac42423          	sw	a2,-88(s0)
  b8:	fad42623          	sw	a3,-84(s0)
  bc:	fae42823          	sw	a4,-80(s0)
  c0:	faf42a23          	sw	a5,-76(s0)
  c4:	f9040793          	addi	a5,s0,-112
  c8:	fef42223          	sw	a5,-28(s0)

000000cc <loop>:
  cc:	04c0006f          	j	118 <loop+0x4c>
  d0:	fec42783          	lw	a5,-20(s0)
  d4:	00c7f7d7          	vsetvli	a5,a5,e64,m1,tu,mu,d1
  d8:	fef42023          	sw	a5,-32(s0)
  dc:	fec42703          	lw	a4,-20(s0)
  e0:	fe042783          	lw	a5,-32(s0)
  e4:	40f707b3          	sub	a5,a4,a5
  e8:	fef42623          	sw	a5,-20(s0)
  ec:	fe842783          	lw	a5,-24(s0)
  f0:	0207e087          	vle32.v	v1,(a5)
  f4:	fe842783          	lw	a5,-24(s0)
  f8:	00878793          	addi	a5,a5,8
  fc:	fef42423          	sw	a5,-24(s0)
 100:	fe442783          	lw	a5,-28(s0)
 104:	0207e107          	vle32.v	v2,(a5)
 108:	fe442783          	lw	a5,-28(s0)
 10c:	00878793          	addi	a5,a5,8
 110:	fef42223          	sw	a5,-28(s0)
 114:	022081d7          	vadd.vv	v3,v2,v1
 118:	fec42783          	lw	a5,-20(s0)
 11c:	fa079ae3          	bnez	a5,d0 <loop+0x4>
 120:	c0001073          	unimp
 124:	00000793          	li	a5,0
 128:	00078513          	mv	a0,a5
 12c:	06c12403          	lw	s0,108(sp)
 130:	07010113          	addi	sp,sp,112
 134:	00008067          	ret
