
vle64:     file format elf32-littleriscv


Disassembly of section .text.startup:

00000000 <main>:
   0:	08800793          	li	a5,136
   4:	01c7a683          	lw	a3,28(a5)
   8:	0207a703          	lw	a4,32(a5)
   c:	0007ae03          	lw	t3,0(a5)
  10:	0047a303          	lw	t1,4(a5)
  14:	0087a883          	lw	a7,8(a5)
  18:	00c7a803          	lw	a6,12(a5)
  1c:	0107a503          	lw	a0,16(a5)
  20:	0147a583          	lw	a1,20(a5)
  24:	0187a603          	lw	a2,24(a5)
  28:	0247a783          	lw	a5,36(a5)
  2c:	fd010113          	addi	sp,sp,-48
  30:	02d12223          	sw	a3,36(sp)
  34:	02e12423          	sw	a4,40(sp)
  38:	01c12423          	sw	t3,8(sp)
  3c:	00612623          	sw	t1,12(sp)
  40:	01112823          	sw	a7,16(sp)
  44:	01012a23          	sw	a6,20(sp)
  48:	00a12c23          	sw	a0,24(sp)
  4c:	00b12e23          	sw	a1,28(sp)
  50:	02c12023          	sw	a2,32(sp)
  54:	02f12623          	sw	a5,44(sp)
  58:	00810693          	addi	a3,sp,8
  5c:	00500713          	li	a4,5
  60:	00c777d7          	vsetvli	a5,a4,e64,m1,tu,mu,d1
  64:	40f70733          	sub	a4,a4,a5
  68:	0206f087          	vle64.v	v1,(a3)
  6c:	00379793          	slli	a5,a5,0x3
  70:	00f686b3          	add	a3,a3,a5
  74:	fe0716e3          	bnez	a4,60 <main+0x60>
  78:	c0001073          	unimp
  7c:	00000513          	li	a0,0
  80:	03010113          	addi	sp,sp,48
  84:	00008067          	ret
