
rv32si-p-csr:     file format elf32-littleriscv


Disassembly of section .text.init:

00000000 <_start>:
   0:	0480006f          	j	48 <reset_vector>

00000004 <trap_vector>:
   4:	34202f73          	csrr	t5,mcause
   8:	00800f93          	li	t6,8
   c:	03ff0863          	beq	t5,t6,3c <write_tohost>
  10:	00900f93          	li	t6,9
  14:	03ff0463          	beq	t5,t6,3c <write_tohost>
  18:	00b00f93          	li	t6,11
  1c:	03ff0063          	beq	t5,t6,3c <write_tohost>
  20:	00000f13          	li	t5,0
  24:	000f0463          	beqz	t5,2c <trap_vector+0x28>
  28:	000f0067          	jr	t5
  2c:	34202f73          	csrr	t5,mcause
  30:	000f5463          	bgez	t5,38 <handle_exception>
  34:	0040006f          	j	38 <handle_exception>

00000038 <handle_exception>:
  38:	5391e193          	ori	gp,gp,1337

0000003c <write_tohost>:
  3c:	00001f17          	auipc	t5,0x1
  40:	fc3f2223          	sw	gp,-60(t5) # 1000 <tohost>
  44:	ff9ff06f          	j	3c <write_tohost>

00000048 <reset_vector>:
  48:	00000093          	li	ra,0
  4c:	00000113          	li	sp,0
  50:	00000193          	li	gp,0
  54:	00000213          	li	tp,0
  58:	00000293          	li	t0,0
  5c:	00000313          	li	t1,0
  60:	00000393          	li	t2,0
  64:	00000413          	li	s0,0
  68:	00000493          	li	s1,0
  6c:	00000513          	li	a0,0
  70:	00000593          	li	a1,0
  74:	00000613          	li	a2,0
  78:	00000693          	li	a3,0
  7c:	00000713          	li	a4,0
  80:	00000793          	li	a5,0
  84:	00000813          	li	a6,0
  88:	00000893          	li	a7,0
  8c:	00000913          	li	s2,0
  90:	00000993          	li	s3,0
  94:	00000a13          	li	s4,0
  98:	00000a93          	li	s5,0
  9c:	00000b13          	li	s6,0
  a0:	00000b93          	li	s7,0
  a4:	00000c13          	li	s8,0
  a8:	00000c93          	li	s9,0
  ac:	00000d13          	li	s10,0
  b0:	00000d93          	li	s11,0
  b4:	00000e13          	li	t3,0
  b8:	00000e93          	li	t4,0
  bc:	00000f13          	li	t5,0
  c0:	00000f93          	li	t6,0
  c4:	f1402573          	csrr	a0,mhartid
  c8:	00051063          	bnez	a0,c8 <reset_vector+0x80>
  cc:	00000297          	auipc	t0,0x0
  d0:	01028293          	addi	t0,t0,16 # dc <reset_vector+0x94>
  d4:	30529073          	csrw	mtvec,t0
  d8:	18005073          	csrwi	satp,0
  dc:	00000297          	auipc	t0,0x0
  e0:	02028293          	addi	t0,t0,32 # fc <reset_vector+0xb4>
  e4:	30529073          	csrw	mtvec,t0
  e8:	800002b7          	lui	t0,0x80000
  ec:	fff28293          	addi	t0,t0,-1 # 7fffffff <_end+0x7fffdfef>
  f0:	3b029073          	csrw	pmpaddr0,t0
  f4:	01f00293          	li	t0,31
  f8:	3a029073          	csrw	pmpcfg0,t0
  fc:	30405073          	csrwi	mie,0
 100:	00000297          	auipc	t0,0x0
 104:	01428293          	addi	t0,t0,20 # 114 <reset_vector+0xcc>
 108:	30529073          	csrw	mtvec,t0
 10c:	30205073          	csrwi	medeleg,0
 110:	30305073          	csrwi	mideleg,0
 114:	00000193          	li	gp,0
 118:	00000297          	auipc	t0,0x0
 11c:	eec28293          	addi	t0,t0,-276 # 4 <trap_vector>
 120:	30529073          	csrw	mtvec,t0
 124:	00100513          	li	a0,1
 128:	01f51513          	slli	a0,a0,0x1f
 12c:	00054c63          	bltz	a0,144 <reset_vector+0xfc>
 130:	0ff0000f          	fence
 134:	00100193          	li	gp,1
 138:	05d00893          	li	a7,93
 13c:	00000513          	li	a0,0
 140:	00000073          	ecall
 144:	00000297          	auipc	t0,0x0
 148:	1d428293          	addi	t0,t0,468 # 318 <stvec_handler>
 14c:	00028a63          	beqz	t0,160 <reset_vector+0x118>
 150:	10529073          	csrw	stvec,t0
 154:	0000b2b7          	lui	t0,0xb
 158:	10928293          	addi	t0,t0,265 # b109 <_end+0x90f9>
 15c:	30229073          	csrw	medeleg,t0
 160:	30005073          	csrwi	mstatus,0
 164:	00001537          	lui	a0,0x1
 168:	80050513          	addi	a0,a0,-2048 # 800 <privileged+0x4b8>
 16c:	30052073          	csrs	mstatus,a0
 170:	02200513          	li	a0,34
 174:	30352073          	csrs	mideleg,a0
 178:	00000297          	auipc	t0,0x0
 17c:	01428293          	addi	t0,t0,20 # 18c <test_20>
 180:	34129073          	csrw	mepc,t0
 184:	f1402573          	csrr	a0,mhartid
 188:	30200073          	mret

0000018c <test_20>:
 18c:	14001073          	csrw	sscratch,zero
 190:	14002573          	csrr	a0,sscratch
 194:	00000393          	li	t2,0
 198:	01400193          	li	gp,20
 19c:	14751663          	bne	a0,t2,2e8 <fail>

000001a0 <test_21>:
 1a0:	14005573          	csrrwi	a0,sscratch,0
 1a4:	1407d573          	csrrwi	a0,sscratch,15
 1a8:	00000393          	li	t2,0
 1ac:	01500193          	li	gp,21
 1b0:	12751c63          	bne	a0,t2,2e8 <fail>
 1b4:	1401d073          	csrwi	sscratch,3

000001b8 <test_2>:
 1b8:	14002573          	csrr	a0,sscratch
 1bc:	00300393          	li	t2,3
 1c0:	00200193          	li	gp,2
 1c4:	12751263          	bne	a0,t2,2e8 <fail>

000001c8 <test_3>:
 1c8:	1400f5f3          	csrrci	a1,sscratch,1
 1cc:	00300393          	li	t2,3
 1d0:	00300193          	li	gp,3
 1d4:	10759a63          	bne	a1,t2,2e8 <fail>

000001d8 <test_4>:
 1d8:	14026673          	csrrsi	a2,sscratch,4
 1dc:	00200393          	li	t2,2
 1e0:	00400193          	li	gp,4
 1e4:	10761263          	bne	a2,t2,2e8 <fail>

000001e8 <test_5>:
 1e8:	140156f3          	csrrwi	a3,sscratch,2
 1ec:	00600393          	li	t2,6
 1f0:	00500193          	li	gp,5
 1f4:	0e769a63          	bne	a3,t2,2e8 <fail>

000001f8 <test_6>:
 1f8:	0bad2537          	lui	a0,0xbad2
 1fc:	dea50513          	addi	a0,a0,-534 # bad1dea <_end+0xbacfdda>
 200:	140515f3          	csrrw	a1,sscratch,a0
 204:	00200393          	li	t2,2
 208:	00600193          	li	gp,6
 20c:	0c759e63          	bne	a1,t2,2e8 <fail>

00000210 <test_7>:
 210:	00002537          	lui	a0,0x2
 214:	dea50513          	addi	a0,a0,-534 # 1dea <fromhost+0xdaa>
 218:	140535f3          	csrrc	a1,sscratch,a0
 21c:	0bad23b7          	lui	t2,0xbad2
 220:	dea38393          	addi	t2,t2,-534 # bad1dea <_end+0xbacfdda>
 224:	00700193          	li	gp,7
 228:	0c759063          	bne	a1,t2,2e8 <fail>

0000022c <test_8>:
 22c:	0000c537          	lui	a0,0xc
 230:	eef50513          	addi	a0,a0,-273 # beef <_end+0x9edf>
 234:	140525f3          	csrrs	a1,sscratch,a0
 238:	0bad03b7          	lui	t2,0xbad0
 23c:	00800193          	li	gp,8
 240:	0a759463          	bne	a1,t2,2e8 <fail>

00000244 <test_9>:
 244:	0bad2537          	lui	a0,0xbad2
 248:	dea50513          	addi	a0,a0,-534 # bad1dea <_end+0xbacfdda>
 24c:	14051573          	csrrw	a0,sscratch,a0
 250:	0badc3b7          	lui	t2,0xbadc
 254:	eef38393          	addi	t2,t2,-273 # badbeef <_end+0xbad9edf>
 258:	00900193          	li	gp,9
 25c:	08751663          	bne	a0,t2,2e8 <fail>

00000260 <test_10>:
 260:	00002537          	lui	a0,0x2
 264:	dea50513          	addi	a0,a0,-534 # 1dea <fromhost+0xdaa>
 268:	14053573          	csrrc	a0,sscratch,a0
 26c:	0bad23b7          	lui	t2,0xbad2
 270:	dea38393          	addi	t2,t2,-534 # bad1dea <_end+0xbacfdda>
 274:	00a00193          	li	gp,10
 278:	06751863          	bne	a0,t2,2e8 <fail>

0000027c <test_11>:
 27c:	0000c537          	lui	a0,0xc
 280:	eef50513          	addi	a0,a0,-273 # beef <_end+0x9edf>
 284:	14052573          	csrrs	a0,sscratch,a0
 288:	0bad03b7          	lui	t2,0xbad0
 28c:	00b00193          	li	gp,11
 290:	04751c63          	bne	a0,t2,2e8 <fail>

00000294 <test_12>:
 294:	14002573          	csrr	a0,sscratch
 298:	0badc3b7          	lui	t2,0xbadc
 29c:	eef38393          	addi	t2,t2,-273 # badbeef <_end+0xbad9edf>
 2a0:	00c00193          	li	gp,12
 2a4:	04751263          	bne	a0,t2,2e8 <fail>
 2a8:	10000293          	li	t0,256
 2ac:	1002b073          	csrc	sstatus,t0
 2b0:	00000297          	auipc	t0,0x0
 2b4:	01028293          	addi	t0,t0,16 # 2c0 <test_15>
 2b8:	14129073          	csrw	sepc,t0
 2bc:	10200073          	sret

000002c0 <test_15>:
 2c0:	00000013          	nop
 2c4:	00000393          	li	t2,0
 2c8:	00f00193          	li	gp,15
 2cc:	00701e63          	bne	zero,t2,2e8 <fail>

000002d0 <finish>:
 2d0:	0ff0000f          	fence
 2d4:	00100193          	li	gp,1
 2d8:	05d00893          	li	a7,93
 2dc:	00000513          	li	a0,0
 2e0:	00000073          	ecall
 2e4:	02301063          	bne	zero,gp,304 <pass>

000002e8 <fail>:
 2e8:	0ff0000f          	fence
 2ec:	00018063          	beqz	gp,2ec <fail+0x4>
 2f0:	00119193          	slli	gp,gp,0x1
 2f4:	0011e193          	ori	gp,gp,1
 2f8:	05d00893          	li	a7,93
 2fc:	00018513          	mv	a0,gp
 300:	00000073          	ecall

00000304 <pass>:
 304:	0ff0000f          	fence
 308:	00100193          	li	gp,1
 30c:	05d00893          	li	a7,93
 310:	00000513          	li	a0,0
 314:	00000073          	ecall

00000318 <stvec_handler>:
 318:	00c00293          	li	t0,12
 31c:	0051e663          	bltu	gp,t0,328 <stvec_handler+0x10>
 320:	00e00293          	li	t0,14
 324:	0232f263          	bgeu	t0,gp,348 <privileged>
 328:	142022f3          	csrr	t0,scause
 32c:	00800313          	li	t1,8
 330:	fa629ce3          	bne	t0,t1,2e8 <fail>
 334:	0ff0000f          	fence
 338:	00100193          	li	gp,1
 33c:	05d00893          	li	a7,93
 340:	00000513          	li	a0,0
 344:	00000073          	ecall

00000348 <privileged>:
 348:	142022f3          	csrr	t0,scause
 34c:	00200313          	li	t1,2
 350:	f8629ce3          	bne	t0,t1,2e8 <fail>
 354:	141022f3          	csrr	t0,sepc
 358:	00428293          	addi	t0,t0,4
 35c:	14129073          	csrw	sepc,t0
 360:	10200073          	sret
 364:	c0001073          	unimp
 368:	0000                	unimp
 36a:	0000                	unimp
 36c:	0000                	unimp
 36e:	0000                	unimp
 370:	0000                	unimp
 372:	0000                	unimp
 374:	0000                	unimp
 376:	0000                	unimp
 378:	0000                	unimp
 37a:	0000                	unimp
 37c:	0000                	unimp
 37e:	0000                	unimp
