
rv32mi-p-breakpoint:     file format elf32-littleriscv


Disassembly of section .text.init:

00000000 <_start>:
   0:	04c0006f          	j	4c <reset_vector>

00000004 <trap_vector>:
   4:	34202f73          	csrr	t5,mcause
   8:	00800f93          	li	t6,8
   c:	03ff0a63          	beq	t5,t6,40 <write_tohost>
  10:	00900f93          	li	t6,9
  14:	03ff0663          	beq	t5,t6,40 <write_tohost>
  18:	00b00f93          	li	t6,11
  1c:	03ff0263          	beq	t5,t6,40 <write_tohost>
  20:	00000f17          	auipc	t5,0x0
  24:	280f0f13          	addi	t5,t5,640 # 2a0 <mtvec_handler>
  28:	000f0463          	beqz	t5,30 <trap_vector+0x2c>
  2c:	000f0067          	jr	t5
  30:	34202f73          	csrr	t5,mcause
  34:	000f5463          	bgez	t5,3c <handle_exception>
  38:	0040006f          	j	3c <handle_exception>

0000003c <handle_exception>:
  3c:	5391e193          	ori	gp,gp,1337

00000040 <write_tohost>:
  40:	00001f17          	auipc	t5,0x1
  44:	fc3f2023          	sw	gp,-64(t5) # 1000 <tohost>
  48:	ff9ff06f          	j	40 <write_tohost>

0000004c <reset_vector>:
  4c:	00000093          	li	ra,0
  50:	00000113          	li	sp,0
  54:	00000193          	li	gp,0
  58:	00000213          	li	tp,0
  5c:	00000293          	li	t0,0
  60:	00000313          	li	t1,0
  64:	00000393          	li	t2,0
  68:	00000413          	li	s0,0
  6c:	00000493          	li	s1,0
  70:	00000513          	li	a0,0
  74:	00000593          	li	a1,0
  78:	00000613          	li	a2,0
  7c:	00000693          	li	a3,0
  80:	00000713          	li	a4,0
  84:	00000793          	li	a5,0
  88:	00000813          	li	a6,0
  8c:	00000893          	li	a7,0
  90:	00000913          	li	s2,0
  94:	00000993          	li	s3,0
  98:	00000a13          	li	s4,0
  9c:	00000a93          	li	s5,0
  a0:	00000b13          	li	s6,0
  a4:	00000b93          	li	s7,0
  a8:	00000c13          	li	s8,0
  ac:	00000c93          	li	s9,0
  b0:	00000d13          	li	s10,0
  b4:	00000d93          	li	s11,0
  b8:	00000e13          	li	t3,0
  bc:	00000e93          	li	t4,0
  c0:	00000f13          	li	t5,0
  c4:	00000f93          	li	t6,0
  c8:	f1402573          	csrr	a0,mhartid
  cc:	00051063          	bnez	a0,cc <reset_vector+0x80>
  d0:	00000297          	auipc	t0,0x0
  d4:	01028293          	addi	t0,t0,16 # e0 <reset_vector+0x94>
  d8:	30529073          	csrw	mtvec,t0
  dc:	18005073          	csrwi	satp,0
  e0:	00000297          	auipc	t0,0x0
  e4:	02028293          	addi	t0,t0,32 # 100 <reset_vector+0xb4>
  e8:	30529073          	csrw	mtvec,t0
  ec:	800002b7          	lui	t0,0x80000
  f0:	fff28293          	addi	t0,t0,-1 # 7fffffff <_end+0x7fffdfef>
  f4:	3b029073          	csrw	pmpaddr0,t0
  f8:	01f00293          	li	t0,31
  fc:	3a029073          	csrw	pmpcfg0,t0
 100:	30405073          	csrwi	mie,0
 104:	00000297          	auipc	t0,0x0
 108:	01428293          	addi	t0,t0,20 # 118 <reset_vector+0xcc>
 10c:	30529073          	csrw	mtvec,t0
 110:	30205073          	csrwi	medeleg,0
 114:	30305073          	csrwi	mideleg,0
 118:	00000193          	li	gp,0
 11c:	00000297          	auipc	t0,0x0
 120:	ee828293          	addi	t0,t0,-280 # 4 <trap_vector>
 124:	30529073          	csrw	mtvec,t0
 128:	00100513          	li	a0,1
 12c:	01f51513          	slli	a0,a0,0x1f
 130:	00054c63          	bltz	a0,148 <reset_vector+0xfc>
 134:	0ff0000f          	fence
 138:	00100193          	li	gp,1
 13c:	05d00893          	li	a7,93
 140:	00000513          	li	a0,0
 144:	00000073          	ecall
 148:	00000293          	li	t0,0
 14c:	00028a63          	beqz	t0,160 <reset_vector+0x114>
 150:	10529073          	csrw	stvec,t0
 154:	0000b2b7          	lui	t0,0xb
 158:	10928293          	addi	t0,t0,265 # b109 <_end+0x90f9>
 15c:	30229073          	csrw	medeleg,t0
 160:	30005073          	csrwi	mstatus,0
 164:	00002537          	lui	a0,0x2
 168:	80050513          	addi	a0,a0,-2048 # 1800 <fromhost+0x7c0>
 16c:	30052073          	csrs	mstatus,a0
 170:	00000297          	auipc	t0,0x0
 174:	01428293          	addi	t0,t0,20 # 184 <reset_vector+0x138>
 178:	34129073          	csrw	mepc,t0
 17c:	f1402573          	csrr	a0,mhartid
 180:	30200073          	mret
 184:	00200193          	li	gp,2
 188:	7a001073          	csrw	tselect,zero
 18c:	7a0025f3          	csrr	a1,tselect
 190:	0eb01e63          	bne	zero,a1,28c <pass>
 194:	00000617          	auipc	a2,0x0
 198:	02060613          	addi	a2,a2,32 # 1b4 <reset_vector+0x168>
 19c:	7a261073          	csrw	tdata2,a2
 1a0:	20000537          	lui	a0,0x20000
 1a4:	04450513          	addi	a0,a0,68 # 20000044 <_end+0x1fffe034>
 1a8:	7a151073          	csrw	tdata1,a0
 1ac:	7a1025f3          	csrr	a1,tdata1
 1b0:	00b51863          	bne	a0,a1,1c0 <reset_vector+0x174>
 1b4:	0a000e63          	beqz	zero,270 <fail>
 1b8:	00300193          	li	gp,3
 1bc:	00062503          	lw	a0,0(a2)
 1c0:	00400193          	li	gp,4
 1c4:	20000537          	lui	a0,0x20000
 1c8:	04150513          	addi	a0,a0,65 # 20000041 <_end+0x1fffe031>
 1cc:	7a151073          	csrw	tdata1,a0
 1d0:	7a1025f3          	csrr	a1,tdata1
 1d4:	02b51063          	bne	a0,a1,1f4 <reset_vector+0x1a8>
 1d8:	00002617          	auipc	a2,0x2
 1dc:	e2860613          	addi	a2,a2,-472 # 2000 <begin_signature>
 1e0:	7a261073          	csrw	tdata2,a2
 1e4:	00062603          	lw	a2,0(a2)
 1e8:	08060463          	beqz	a2,270 <fail>
 1ec:	00500193          	li	gp,5
 1f0:	00062023          	sw	zero,0(a2)
 1f4:	00600193          	li	gp,6
 1f8:	20000537          	lui	a0,0x20000
 1fc:	04250513          	addi	a0,a0,66 # 20000042 <_end+0x1fffe032>
 200:	7a151073          	csrw	tdata1,a0
 204:	7a1025f3          	csrr	a1,tdata1
 208:	06b51263          	bne	a0,a1,26c <reset_vector+0x220>
 20c:	00c62023          	sw	a2,0(a2)
 210:	00700193          	li	gp,7
 214:	00062603          	lw	a2,0(a2)
 218:	04061c63          	bnez	a2,270 <fail>
 21c:	00100513          	li	a0,1
 220:	7a051073          	csrw	tselect,a0
 224:	7a0025f3          	csrr	a1,tselect
 228:	06b51263          	bne	a0,a1,28c <pass>
 22c:	20000537          	lui	a0,0x20000
 230:	04150513          	addi	a0,a0,65 # 20000041 <_end+0x1fffe031>
 234:	7a151073          	csrw	tdata1,a0
 238:	00002697          	auipc	a3,0x2
 23c:	dcc68693          	addi	a3,a3,-564 # 2004 <data2>
 240:	7a269073          	csrw	tdata2,a3
 244:	00800193          	li	gp,8
 248:	0006a683          	lw	a3,0(a3)
 24c:	02068263          	beqz	a3,270 <fail>
 250:	00a00193          	li	gp,10
 254:	00002617          	auipc	a2,0x2
 258:	dac60613          	addi	a2,a2,-596 # 2000 <begin_signature>
 25c:	00c62023          	sw	a2,0(a2)
 260:	00b00193          	li	gp,11
 264:	00062603          	lw	a2,0(a2)
 268:	00061463          	bnez	a2,270 <fail>
 26c:	02301063          	bne	zero,gp,28c <pass>

00000270 <fail>:
 270:	0ff0000f          	fence
 274:	00018063          	beqz	gp,274 <fail+0x4>
 278:	00119193          	slli	gp,gp,0x1
 27c:	0011e193          	ori	gp,gp,1
 280:	05d00893          	li	a7,93
 284:	00018513          	mv	a0,gp
 288:	00000073          	ecall

0000028c <pass>:
 28c:	0ff0000f          	fence
 290:	00100193          	li	gp,1
 294:	05d00893          	li	a7,93
 298:	00000513          	li	a0,0
 29c:	00000073          	ecall

000002a0 <mtvec_handler>:
 2a0:	0011f293          	andi	t0,gp,1
 2a4:	fc0296e3          	bnez	t0,270 <fail>
 2a8:	00300293          	li	t0,3
 2ac:	34202373          	csrr	t1,mcause
 2b0:	fc6290e3          	bne	t0,t1,270 <fail>
 2b4:	341022f3          	csrr	t0,mepc
 2b8:	00428293          	addi	t0,t0,4
 2bc:	34129073          	csrw	mepc,t0
 2c0:	30200073          	mret
 2c4:	c0001073          	unimp
 2c8:	0000                	unimp
 2ca:	0000                	unimp
 2cc:	0000                	unimp
 2ce:	0000                	unimp
 2d0:	0000                	unimp
 2d2:	0000                	unimp
 2d4:	0000                	unimp
 2d6:	0000                	unimp
 2d8:	0000                	unimp
 2da:	0000                	unimp
 2dc:	0000                	unimp
 2de:	0000                	unimp
 2e0:	0000                	unimp
 2e2:	0000                	unimp
 2e4:	0000                	unimp
 2e6:	0000                	unimp
 2e8:	0000                	unimp
 2ea:	0000                	unimp
 2ec:	0000                	unimp
 2ee:	0000                	unimp
 2f0:	0000                	unimp
 2f2:	0000                	unimp
 2f4:	0000                	unimp
 2f6:	0000                	unimp
 2f8:	0000                	unimp
 2fa:	0000                	unimp
 2fc:	0000                	unimp
 2fe:	0000                	unimp
