
rv32ui-p-lbu:     file format elf32-littleriscv


Disassembly of section .text.init:

00000000 <_start>:
   0:	0480006f          	j	48 <reset_vector>

00000004 <trap_vector>:
   4:	34202f73          	csrr	t5,mcause
   8:	00800f93          	li	t6,8
   c:	03ff0863          	beq	t5,t6,3c <write_tohost>
  10:	00900f93          	li	t6,9
  14:	03ff0463          	beq	t5,t6,3c <write_tohost>
  18:	00b00f93          	li	t6,11
  1c:	03ff0063          	beq	t5,t6,3c <write_tohost>
  20:	00000f13          	li	t5,0
  24:	000f0463          	beqz	t5,2c <trap_vector+0x28>
  28:	000f0067          	jr	t5
  2c:	34202f73          	csrr	t5,mcause
  30:	000f5463          	bgez	t5,38 <handle_exception>
  34:	0040006f          	j	38 <handle_exception>

00000038 <handle_exception>:
  38:	5391e193          	ori	gp,gp,1337

0000003c <write_tohost>:
  3c:	00001f17          	auipc	t5,0x1
  40:	fc3f2223          	sw	gp,-60(t5) # 1000 <tohost>
  44:	ff9ff06f          	j	3c <write_tohost>

00000048 <reset_vector>:
  48:	00000093          	li	ra,0
  4c:	00000113          	li	sp,0
  50:	00000193          	li	gp,0
  54:	00000213          	li	tp,0
  58:	00000293          	li	t0,0
  5c:	00000313          	li	t1,0
  60:	00000393          	li	t2,0
  64:	00000413          	li	s0,0
  68:	00000493          	li	s1,0
  6c:	00000513          	li	a0,0
  70:	00000593          	li	a1,0
  74:	00000613          	li	a2,0
  78:	00000693          	li	a3,0
  7c:	00000713          	li	a4,0
  80:	00000793          	li	a5,0
  84:	00000813          	li	a6,0
  88:	00000893          	li	a7,0
  8c:	00000913          	li	s2,0
  90:	00000993          	li	s3,0
  94:	00000a13          	li	s4,0
  98:	00000a93          	li	s5,0
  9c:	00000b13          	li	s6,0
  a0:	00000b93          	li	s7,0
  a4:	00000c13          	li	s8,0
  a8:	00000c93          	li	s9,0
  ac:	00000d13          	li	s10,0
  b0:	00000d93          	li	s11,0
  b4:	00000e13          	li	t3,0
  b8:	00000e93          	li	t4,0
  bc:	00000f13          	li	t5,0
  c0:	00000f93          	li	t6,0
  c4:	f1402573          	csrr	a0,mhartid
  c8:	00051063          	bnez	a0,c8 <reset_vector+0x80>
  cc:	00000297          	auipc	t0,0x0
  d0:	01028293          	addi	t0,t0,16 # dc <reset_vector+0x94>
  d4:	30529073          	csrw	mtvec,t0
  d8:	18005073          	csrwi	satp,0
  dc:	00000297          	auipc	t0,0x0
  e0:	02028293          	addi	t0,t0,32 # fc <reset_vector+0xb4>
  e4:	30529073          	csrw	mtvec,t0
  e8:	800002b7          	lui	t0,0x80000
  ec:	fff28293          	addi	t0,t0,-1 # 7fffffff <_end+0x7fffdfef>
  f0:	3b029073          	csrw	pmpaddr0,t0
  f4:	01f00293          	li	t0,31
  f8:	3a029073          	csrw	pmpcfg0,t0
  fc:	30405073          	csrwi	mie,0
 100:	00000297          	auipc	t0,0x0
 104:	01428293          	addi	t0,t0,20 # 114 <reset_vector+0xcc>
 108:	30529073          	csrw	mtvec,t0
 10c:	30205073          	csrwi	medeleg,0
 110:	30305073          	csrwi	mideleg,0
 114:	00000193          	li	gp,0
 118:	00000297          	auipc	t0,0x0
 11c:	eec28293          	addi	t0,t0,-276 # 4 <trap_vector>
 120:	30529073          	csrw	mtvec,t0
 124:	00100513          	li	a0,1
 128:	01f51513          	slli	a0,a0,0x1f
 12c:	00054c63          	bltz	a0,144 <reset_vector+0xfc>
 130:	0ff0000f          	fence
 134:	00100193          	li	gp,1
 138:	05d00893          	li	a7,93
 13c:	00000513          	li	a0,0
 140:	00000073          	ecall
 144:	00000293          	li	t0,0
 148:	00028a63          	beqz	t0,15c <reset_vector+0x114>
 14c:	10529073          	csrw	stvec,t0
 150:	0000b2b7          	lui	t0,0xb
 154:	10928293          	addi	t0,t0,265 # b109 <_end+0x90f9>
 158:	30229073          	csrw	medeleg,t0
 15c:	30005073          	csrwi	mstatus,0
 160:	00000297          	auipc	t0,0x0
 164:	01428293          	addi	t0,t0,20 # 174 <test_2>
 168:	34129073          	csrw	mepc,t0
 16c:	f1402573          	csrr	a0,mhartid
 170:	30200073          	mret

00000174 <test_2>:
 174:	00002097          	auipc	ra,0x2
 178:	e8c08093          	addi	ra,ra,-372 # 2000 <begin_signature>
 17c:	0000c703          	lbu	a4,0(ra)
 180:	0ff00393          	li	t2,255
 184:	00200193          	li	gp,2
 188:	22771c63          	bne	a4,t2,3c0 <fail>

0000018c <test_3>:
 18c:	00002097          	auipc	ra,0x2
 190:	e7408093          	addi	ra,ra,-396 # 2000 <begin_signature>
 194:	0010c703          	lbu	a4,1(ra)
 198:	00000393          	li	t2,0
 19c:	00300193          	li	gp,3
 1a0:	22771063          	bne	a4,t2,3c0 <fail>

000001a4 <test_4>:
 1a4:	00002097          	auipc	ra,0x2
 1a8:	e5c08093          	addi	ra,ra,-420 # 2000 <begin_signature>
 1ac:	0020c703          	lbu	a4,2(ra)
 1b0:	0f000393          	li	t2,240
 1b4:	00400193          	li	gp,4
 1b8:	20771463          	bne	a4,t2,3c0 <fail>

000001bc <test_5>:
 1bc:	00002097          	auipc	ra,0x2
 1c0:	e4408093          	addi	ra,ra,-444 # 2000 <begin_signature>
 1c4:	0030c703          	lbu	a4,3(ra)
 1c8:	00f00393          	li	t2,15
 1cc:	00500193          	li	gp,5
 1d0:	1e771863          	bne	a4,t2,3c0 <fail>

000001d4 <test_6>:
 1d4:	00002097          	auipc	ra,0x2
 1d8:	e2f08093          	addi	ra,ra,-465 # 2003 <tdat4>
 1dc:	ffd0c703          	lbu	a4,-3(ra)
 1e0:	0ff00393          	li	t2,255
 1e4:	00600193          	li	gp,6
 1e8:	1c771c63          	bne	a4,t2,3c0 <fail>

000001ec <test_7>:
 1ec:	00002097          	auipc	ra,0x2
 1f0:	e1708093          	addi	ra,ra,-489 # 2003 <tdat4>
 1f4:	ffe0c703          	lbu	a4,-2(ra)
 1f8:	00000393          	li	t2,0
 1fc:	00700193          	li	gp,7
 200:	1c771063          	bne	a4,t2,3c0 <fail>

00000204 <test_8>:
 204:	00002097          	auipc	ra,0x2
 208:	dff08093          	addi	ra,ra,-513 # 2003 <tdat4>
 20c:	fff0c703          	lbu	a4,-1(ra)
 210:	0f000393          	li	t2,240
 214:	00800193          	li	gp,8
 218:	1a771463          	bne	a4,t2,3c0 <fail>

0000021c <test_9>:
 21c:	00002097          	auipc	ra,0x2
 220:	de708093          	addi	ra,ra,-537 # 2003 <tdat4>
 224:	0000c703          	lbu	a4,0(ra)
 228:	00f00393          	li	t2,15
 22c:	00900193          	li	gp,9
 230:	18771863          	bne	a4,t2,3c0 <fail>

00000234 <test_10>:
 234:	00002097          	auipc	ra,0x2
 238:	dcc08093          	addi	ra,ra,-564 # 2000 <begin_signature>
 23c:	fe008093          	addi	ra,ra,-32
 240:	0200c283          	lbu	t0,32(ra)
 244:	0ff00393          	li	t2,255
 248:	00a00193          	li	gp,10
 24c:	16729a63          	bne	t0,t2,3c0 <fail>

00000250 <test_11>:
 250:	00002097          	auipc	ra,0x2
 254:	db008093          	addi	ra,ra,-592 # 2000 <begin_signature>
 258:	ffa08093          	addi	ra,ra,-6
 25c:	0070c283          	lbu	t0,7(ra)
 260:	00000393          	li	t2,0
 264:	00b00193          	li	gp,11
 268:	14729c63          	bne	t0,t2,3c0 <fail>

0000026c <test_12>:
 26c:	00c00193          	li	gp,12
 270:	00000213          	li	tp,0
 274:	00002097          	auipc	ra,0x2
 278:	d8d08093          	addi	ra,ra,-627 # 2001 <tdat2>
 27c:	0010c703          	lbu	a4,1(ra)
 280:	00070313          	mv	t1,a4
 284:	0f000393          	li	t2,240
 288:	12731c63          	bne	t1,t2,3c0 <fail>
 28c:	00120213          	addi	tp,tp,1 # 1 <_start+0x1>
 290:	00200293          	li	t0,2
 294:	fe5210e3          	bne	tp,t0,274 <test_12+0x8>

00000298 <test_13>:
 298:	00d00193          	li	gp,13
 29c:	00000213          	li	tp,0
 2a0:	00002097          	auipc	ra,0x2
 2a4:	d6208093          	addi	ra,ra,-670 # 2002 <tdat3>
 2a8:	0010c703          	lbu	a4,1(ra)
 2ac:	00000013          	nop
 2b0:	00070313          	mv	t1,a4
 2b4:	00f00393          	li	t2,15
 2b8:	10731463          	bne	t1,t2,3c0 <fail>
 2bc:	00120213          	addi	tp,tp,1 # 1 <_start+0x1>
 2c0:	00200293          	li	t0,2
 2c4:	fc521ee3          	bne	tp,t0,2a0 <test_13+0x8>

000002c8 <test_14>:
 2c8:	00e00193          	li	gp,14
 2cc:	00000213          	li	tp,0
 2d0:	00002097          	auipc	ra,0x2
 2d4:	d3008093          	addi	ra,ra,-720 # 2000 <begin_signature>
 2d8:	0010c703          	lbu	a4,1(ra)
 2dc:	00000013          	nop
 2e0:	00000013          	nop
 2e4:	00070313          	mv	t1,a4
 2e8:	00000393          	li	t2,0
 2ec:	0c731a63          	bne	t1,t2,3c0 <fail>
 2f0:	00120213          	addi	tp,tp,1 # 1 <_start+0x1>
 2f4:	00200293          	li	t0,2
 2f8:	fc521ce3          	bne	tp,t0,2d0 <test_14+0x8>

000002fc <test_15>:
 2fc:	00f00193          	li	gp,15
 300:	00000213          	li	tp,0
 304:	00002097          	auipc	ra,0x2
 308:	cfd08093          	addi	ra,ra,-771 # 2001 <tdat2>
 30c:	0010c703          	lbu	a4,1(ra)
 310:	0f000393          	li	t2,240
 314:	0a771663          	bne	a4,t2,3c0 <fail>
 318:	00120213          	addi	tp,tp,1 # 1 <_start+0x1>
 31c:	00200293          	li	t0,2
 320:	fe5212e3          	bne	tp,t0,304 <test_15+0x8>

00000324 <test_16>:
 324:	01000193          	li	gp,16
 328:	00000213          	li	tp,0
 32c:	00002097          	auipc	ra,0x2
 330:	cd608093          	addi	ra,ra,-810 # 2002 <tdat3>
 334:	00000013          	nop
 338:	0010c703          	lbu	a4,1(ra)
 33c:	00f00393          	li	t2,15
 340:	08771063          	bne	a4,t2,3c0 <fail>
 344:	00120213          	addi	tp,tp,1 # 1 <_start+0x1>
 348:	00200293          	li	t0,2
 34c:	fe5210e3          	bne	tp,t0,32c <test_16+0x8>

00000350 <test_17>:
 350:	01100193          	li	gp,17
 354:	00000213          	li	tp,0
 358:	00002097          	auipc	ra,0x2
 35c:	ca808093          	addi	ra,ra,-856 # 2000 <begin_signature>
 360:	00000013          	nop
 364:	00000013          	nop
 368:	0010c703          	lbu	a4,1(ra)
 36c:	00000393          	li	t2,0
 370:	04771863          	bne	a4,t2,3c0 <fail>
 374:	00120213          	addi	tp,tp,1 # 1 <_start+0x1>
 378:	00200293          	li	t0,2
 37c:	fc521ee3          	bne	tp,t0,358 <test_17+0x8>

00000380 <test_18>:
 380:	00002297          	auipc	t0,0x2
 384:	c8028293          	addi	t0,t0,-896 # 2000 <begin_signature>
 388:	0002c103          	lbu	sp,0(t0)
 38c:	00200113          	li	sp,2
 390:	00200393          	li	t2,2
 394:	01200193          	li	gp,18
 398:	02711463          	bne	sp,t2,3c0 <fail>

0000039c <test_19>:
 39c:	00002297          	auipc	t0,0x2
 3a0:	c6428293          	addi	t0,t0,-924 # 2000 <begin_signature>
 3a4:	0002c103          	lbu	sp,0(t0)
 3a8:	00000013          	nop
 3ac:	00200113          	li	sp,2
 3b0:	00200393          	li	t2,2
 3b4:	01300193          	li	gp,19
 3b8:	00711463          	bne	sp,t2,3c0 <fail>
 3bc:	02301063          	bne	zero,gp,3dc <pass>

000003c0 <fail>:
 3c0:	0ff0000f          	fence
 3c4:	00018063          	beqz	gp,3c4 <fail+0x4>
 3c8:	00119193          	slli	gp,gp,0x1
 3cc:	0011e193          	ori	gp,gp,1
 3d0:	05d00893          	li	a7,93
 3d4:	00018513          	mv	a0,gp
 3d8:	00000073          	ecall

000003dc <pass>:
 3dc:	0ff0000f          	fence
 3e0:	00100193          	li	gp,1
 3e4:	05d00893          	li	a7,93
 3e8:	00000513          	li	a0,0
 3ec:	00000073          	ecall
 3f0:	c0001073          	unimp
 3f4:	0000                	unimp
 3f6:	0000                	unimp
 3f8:	0000                	unimp
 3fa:	0000                	unimp
