
rv32ui-p-srai:     file format elf32-littleriscv


Disassembly of section .text.init:

00000000 <_start>:
   0:	0480006f          	j	48 <reset_vector>

00000004 <trap_vector>:
   4:	34202f73          	csrr	t5,mcause
   8:	00800f93          	li	t6,8
   c:	03ff0863          	beq	t5,t6,3c <write_tohost>
  10:	00900f93          	li	t6,9
  14:	03ff0463          	beq	t5,t6,3c <write_tohost>
  18:	00b00f93          	li	t6,11
  1c:	03ff0063          	beq	t5,t6,3c <write_tohost>
  20:	00000f13          	li	t5,0
  24:	000f0463          	beqz	t5,2c <trap_vector+0x28>
  28:	000f0067          	jr	t5
  2c:	34202f73          	csrr	t5,mcause
  30:	000f5463          	bgez	t5,38 <handle_exception>
  34:	0040006f          	j	38 <handle_exception>

00000038 <handle_exception>:
  38:	5391e193          	ori	gp,gp,1337

0000003c <write_tohost>:
  3c:	00001f17          	auipc	t5,0x1
  40:	fc3f2223          	sw	gp,-60(t5) # 1000 <tohost>
  44:	ff9ff06f          	j	3c <write_tohost>

00000048 <reset_vector>:
  48:	00000093          	li	ra,0
  4c:	00000113          	li	sp,0
  50:	00000193          	li	gp,0
  54:	00000213          	li	tp,0
  58:	00000293          	li	t0,0
  5c:	00000313          	li	t1,0
  60:	00000393          	li	t2,0
  64:	00000413          	li	s0,0
  68:	00000493          	li	s1,0
  6c:	00000513          	li	a0,0
  70:	00000593          	li	a1,0
  74:	00000613          	li	a2,0
  78:	00000693          	li	a3,0
  7c:	00000713          	li	a4,0
  80:	00000793          	li	a5,0
  84:	00000813          	li	a6,0
  88:	00000893          	li	a7,0
  8c:	00000913          	li	s2,0
  90:	00000993          	li	s3,0
  94:	00000a13          	li	s4,0
  98:	00000a93          	li	s5,0
  9c:	00000b13          	li	s6,0
  a0:	00000b93          	li	s7,0
  a4:	00000c13          	li	s8,0
  a8:	00000c93          	li	s9,0
  ac:	00000d13          	li	s10,0
  b0:	00000d93          	li	s11,0
  b4:	00000e13          	li	t3,0
  b8:	00000e93          	li	t4,0
  bc:	00000f13          	li	t5,0
  c0:	00000f93          	li	t6,0
  c4:	f1402573          	csrr	a0,mhartid
  c8:	00051063          	bnez	a0,c8 <reset_vector+0x80>
  cc:	00000297          	auipc	t0,0x0
  d0:	01028293          	addi	t0,t0,16 # dc <reset_vector+0x94>
  d4:	30529073          	csrw	mtvec,t0
  d8:	18005073          	csrwi	satp,0
  dc:	00000297          	auipc	t0,0x0
  e0:	02028293          	addi	t0,t0,32 # fc <reset_vector+0xb4>
  e4:	30529073          	csrw	mtvec,t0
  e8:	800002b7          	lui	t0,0x80000
  ec:	fff28293          	addi	t0,t0,-1 # 7fffffff <_end+0x7fffdfff>
  f0:	3b029073          	csrw	pmpaddr0,t0
  f4:	01f00293          	li	t0,31
  f8:	3a029073          	csrw	pmpcfg0,t0
  fc:	30405073          	csrwi	mie,0
 100:	00000297          	auipc	t0,0x0
 104:	01428293          	addi	t0,t0,20 # 114 <reset_vector+0xcc>
 108:	30529073          	csrw	mtvec,t0
 10c:	30205073          	csrwi	medeleg,0
 110:	30305073          	csrwi	mideleg,0
 114:	00000193          	li	gp,0
 118:	00000297          	auipc	t0,0x0
 11c:	eec28293          	addi	t0,t0,-276 # 4 <trap_vector>
 120:	30529073          	csrw	mtvec,t0
 124:	00100513          	li	a0,1
 128:	01f51513          	slli	a0,a0,0x1f
 12c:	00054c63          	bltz	a0,144 <reset_vector+0xfc>
 130:	0ff0000f          	fence
 134:	00100193          	li	gp,1
 138:	05d00893          	li	a7,93
 13c:	00000513          	li	a0,0
 140:	00000073          	ecall
 144:	00000293          	li	t0,0
 148:	00028a63          	beqz	t0,15c <reset_vector+0x114>
 14c:	10529073          	csrw	stvec,t0
 150:	0000b2b7          	lui	t0,0xb
 154:	10928293          	addi	t0,t0,265 # b109 <_end+0x9109>
 158:	30229073          	csrw	medeleg,t0
 15c:	30005073          	csrwi	mstatus,0
 160:	00000297          	auipc	t0,0x0
 164:	01428293          	addi	t0,t0,20 # 174 <test_2>
 168:	34129073          	csrw	mepc,t0
 16c:	f1402573          	csrr	a0,mhartid
 170:	30200073          	mret

00000174 <test_2>:
 174:	00000093          	li	ra,0
 178:	4000d713          	srai	a4,ra,0x0
 17c:	00000393          	li	t2,0
 180:	00200193          	li	gp,2
 184:	2a771463          	bne	a4,t2,42c <fail>

00000188 <test_3>:
 188:	800000b7          	lui	ra,0x80000
 18c:	4010d713          	srai	a4,ra,0x1
 190:	c00003b7          	lui	t2,0xc0000
 194:	00300193          	li	gp,3
 198:	28771a63          	bne	a4,t2,42c <fail>

0000019c <test_4>:
 19c:	800000b7          	lui	ra,0x80000
 1a0:	4070d713          	srai	a4,ra,0x7
 1a4:	ff0003b7          	lui	t2,0xff000
 1a8:	00400193          	li	gp,4
 1ac:	28771063          	bne	a4,t2,42c <fail>

000001b0 <test_5>:
 1b0:	800000b7          	lui	ra,0x80000
 1b4:	40e0d713          	srai	a4,ra,0xe
 1b8:	fffe03b7          	lui	t2,0xfffe0
 1bc:	00500193          	li	gp,5
 1c0:	26771663          	bne	a4,t2,42c <fail>

000001c4 <test_6>:
 1c4:	800000b7          	lui	ra,0x80000
 1c8:	00108093          	addi	ra,ra,1 # 80000001 <_end+0x7fffe001>
 1cc:	41f0d713          	srai	a4,ra,0x1f
 1d0:	fff00393          	li	t2,-1
 1d4:	00600193          	li	gp,6
 1d8:	24771a63          	bne	a4,t2,42c <fail>

000001dc <test_7>:
 1dc:	800000b7          	lui	ra,0x80000
 1e0:	fff08093          	addi	ra,ra,-1 # 7fffffff <_end+0x7fffdfff>
 1e4:	4000d713          	srai	a4,ra,0x0
 1e8:	800003b7          	lui	t2,0x80000
 1ec:	fff38393          	addi	t2,t2,-1 # 7fffffff <_end+0x7fffdfff>
 1f0:	00700193          	li	gp,7
 1f4:	22771c63          	bne	a4,t2,42c <fail>

000001f8 <test_8>:
 1f8:	800000b7          	lui	ra,0x80000
 1fc:	fff08093          	addi	ra,ra,-1 # 7fffffff <_end+0x7fffdfff>
 200:	4010d713          	srai	a4,ra,0x1
 204:	400003b7          	lui	t2,0x40000
 208:	fff38393          	addi	t2,t2,-1 # 3fffffff <_end+0x3fffdfff>
 20c:	00800193          	li	gp,8
 210:	20771e63          	bne	a4,t2,42c <fail>

00000214 <test_9>:
 214:	800000b7          	lui	ra,0x80000
 218:	fff08093          	addi	ra,ra,-1 # 7fffffff <_end+0x7fffdfff>
 21c:	4070d713          	srai	a4,ra,0x7
 220:	010003b7          	lui	t2,0x1000
 224:	fff38393          	addi	t2,t2,-1 # ffffff <_end+0xffdfff>
 228:	00900193          	li	gp,9
 22c:	20771063          	bne	a4,t2,42c <fail>

00000230 <test_10>:
 230:	800000b7          	lui	ra,0x80000
 234:	fff08093          	addi	ra,ra,-1 # 7fffffff <_end+0x7fffdfff>
 238:	40e0d713          	srai	a4,ra,0xe
 23c:	000203b7          	lui	t2,0x20
 240:	fff38393          	addi	t2,t2,-1 # 1ffff <_end+0x1dfff>
 244:	00a00193          	li	gp,10
 248:	1e771263          	bne	a4,t2,42c <fail>

0000024c <test_11>:
 24c:	800000b7          	lui	ra,0x80000
 250:	fff08093          	addi	ra,ra,-1 # 7fffffff <_end+0x7fffdfff>
 254:	41f0d713          	srai	a4,ra,0x1f
 258:	00000393          	li	t2,0
 25c:	00b00193          	li	gp,11
 260:	1c771663          	bne	a4,t2,42c <fail>

00000264 <test_12>:
 264:	818180b7          	lui	ra,0x81818
 268:	18108093          	addi	ra,ra,385 # 81818181 <_end+0x81816181>
 26c:	4000d713          	srai	a4,ra,0x0
 270:	818183b7          	lui	t2,0x81818
 274:	18138393          	addi	t2,t2,385 # 81818181 <_end+0x81816181>
 278:	00c00193          	li	gp,12
 27c:	1a771863          	bne	a4,t2,42c <fail>

00000280 <test_13>:
 280:	818180b7          	lui	ra,0x81818
 284:	18108093          	addi	ra,ra,385 # 81818181 <_end+0x81816181>
 288:	4010d713          	srai	a4,ra,0x1
 28c:	c0c0c3b7          	lui	t2,0xc0c0c
 290:	0c038393          	addi	t2,t2,192 # c0c0c0c0 <_end+0xc0c0a0c0>
 294:	00d00193          	li	gp,13
 298:	18771a63          	bne	a4,t2,42c <fail>

0000029c <test_14>:
 29c:	818180b7          	lui	ra,0x81818
 2a0:	18108093          	addi	ra,ra,385 # 81818181 <_end+0x81816181>
 2a4:	4070d713          	srai	a4,ra,0x7
 2a8:	ff0303b7          	lui	t2,0xff030
 2ac:	30338393          	addi	t2,t2,771 # ff030303 <_end+0xff02e303>
 2b0:	00e00193          	li	gp,14
 2b4:	16771c63          	bne	a4,t2,42c <fail>

000002b8 <test_15>:
 2b8:	818180b7          	lui	ra,0x81818
 2bc:	18108093          	addi	ra,ra,385 # 81818181 <_end+0x81816181>
 2c0:	40e0d713          	srai	a4,ra,0xe
 2c4:	fffe03b7          	lui	t2,0xfffe0
 2c8:	60638393          	addi	t2,t2,1542 # fffe0606 <_end+0xfffde606>
 2cc:	00f00193          	li	gp,15
 2d0:	14771e63          	bne	a4,t2,42c <fail>

000002d4 <test_16>:
 2d4:	818180b7          	lui	ra,0x81818
 2d8:	18108093          	addi	ra,ra,385 # 81818181 <_end+0x81816181>
 2dc:	41f0d713          	srai	a4,ra,0x1f
 2e0:	fff00393          	li	t2,-1
 2e4:	01000193          	li	gp,16
 2e8:	14771263          	bne	a4,t2,42c <fail>

000002ec <test_17>:
 2ec:	800000b7          	lui	ra,0x80000
 2f0:	4070d093          	srai	ra,ra,0x7
 2f4:	ff0003b7          	lui	t2,0xff000
 2f8:	01100193          	li	gp,17
 2fc:	12709863          	bne	ra,t2,42c <fail>

00000300 <test_18>:
 300:	00000213          	li	tp,0
 304:	800000b7          	lui	ra,0x80000
 308:	4070d713          	srai	a4,ra,0x7
 30c:	00070313          	mv	t1,a4
 310:	00120213          	addi	tp,tp,1 # 1 <_start+0x1>
 314:	00200293          	li	t0,2
 318:	fe5216e3          	bne	tp,t0,304 <test_18+0x4>
 31c:	ff0003b7          	lui	t2,0xff000
 320:	01200193          	li	gp,18
 324:	10731463          	bne	t1,t2,42c <fail>

00000328 <test_19>:
 328:	00000213          	li	tp,0
 32c:	800000b7          	lui	ra,0x80000
 330:	40e0d713          	srai	a4,ra,0xe
 334:	00000013          	nop
 338:	00070313          	mv	t1,a4
 33c:	00120213          	addi	tp,tp,1 # 1 <_start+0x1>
 340:	00200293          	li	t0,2
 344:	fe5214e3          	bne	tp,t0,32c <test_19+0x4>
 348:	fffe03b7          	lui	t2,0xfffe0
 34c:	01300193          	li	gp,19
 350:	0c731e63          	bne	t1,t2,42c <fail>

00000354 <test_20>:
 354:	00000213          	li	tp,0
 358:	800000b7          	lui	ra,0x80000
 35c:	00108093          	addi	ra,ra,1 # 80000001 <_end+0x7fffe001>
 360:	41f0d713          	srai	a4,ra,0x1f
 364:	00000013          	nop
 368:	00000013          	nop
 36c:	00070313          	mv	t1,a4
 370:	00120213          	addi	tp,tp,1 # 1 <_start+0x1>
 374:	00200293          	li	t0,2
 378:	fe5210e3          	bne	tp,t0,358 <test_20+0x4>
 37c:	fff00393          	li	t2,-1
 380:	01400193          	li	gp,20
 384:	0a731463          	bne	t1,t2,42c <fail>

00000388 <test_21>:
 388:	00000213          	li	tp,0
 38c:	800000b7          	lui	ra,0x80000
 390:	4070d713          	srai	a4,ra,0x7
 394:	00120213          	addi	tp,tp,1 # 1 <_start+0x1>
 398:	00200293          	li	t0,2
 39c:	fe5218e3          	bne	tp,t0,38c <test_21+0x4>
 3a0:	ff0003b7          	lui	t2,0xff000
 3a4:	01500193          	li	gp,21
 3a8:	08771263          	bne	a4,t2,42c <fail>

000003ac <test_22>:
 3ac:	00000213          	li	tp,0
 3b0:	800000b7          	lui	ra,0x80000
 3b4:	00000013          	nop
 3b8:	40e0d713          	srai	a4,ra,0xe
 3bc:	00120213          	addi	tp,tp,1 # 1 <_start+0x1>
 3c0:	00200293          	li	t0,2
 3c4:	fe5216e3          	bne	tp,t0,3b0 <test_22+0x4>
 3c8:	fffe03b7          	lui	t2,0xfffe0
 3cc:	01600193          	li	gp,22
 3d0:	04771e63          	bne	a4,t2,42c <fail>

000003d4 <test_23>:
 3d4:	00000213          	li	tp,0
 3d8:	800000b7          	lui	ra,0x80000
 3dc:	00108093          	addi	ra,ra,1 # 80000001 <_end+0x7fffe001>
 3e0:	00000013          	nop
 3e4:	00000013          	nop
 3e8:	41f0d713          	srai	a4,ra,0x1f
 3ec:	00120213          	addi	tp,tp,1 # 1 <_start+0x1>
 3f0:	00200293          	li	t0,2
 3f4:	fe5212e3          	bne	tp,t0,3d8 <test_23+0x4>
 3f8:	fff00393          	li	t2,-1
 3fc:	01700193          	li	gp,23
 400:	02771663          	bne	a4,t2,42c <fail>

00000404 <test_24>:
 404:	40405093          	srai	ra,zero,0x4
 408:	00000393          	li	t2,0
 40c:	01800193          	li	gp,24
 410:	00709e63          	bne	ra,t2,42c <fail>

00000414 <test_25>:
 414:	02100093          	li	ra,33
 418:	40a0d013          	srai	zero,ra,0xa
 41c:	00000393          	li	t2,0
 420:	01900193          	li	gp,25
 424:	00701463          	bne	zero,t2,42c <fail>
 428:	02301063          	bne	zero,gp,448 <pass>

0000042c <fail>:
 42c:	0ff0000f          	fence
 430:	00018063          	beqz	gp,430 <fail+0x4>
 434:	00119193          	slli	gp,gp,0x1
 438:	0011e193          	ori	gp,gp,1
 43c:	05d00893          	li	a7,93
 440:	00018513          	mv	a0,gp
 444:	00000073          	ecall

00000448 <pass>:
 448:	0ff0000f          	fence
 44c:	00100193          	li	gp,1
 450:	05d00893          	li	a7,93
 454:	00000513          	li	a0,0
 458:	00000073          	ecall
 45c:	c0001073          	unimp
 460:	0000                	unimp
 462:	0000                	unimp
 464:	0000                	unimp
 466:	0000                	unimp
 468:	0000                	unimp
 46a:	0000                	unimp
 46c:	0000                	unimp
 46e:	0000                	unimp
 470:	0000                	unimp
 472:	0000                	unimp
 474:	0000                	unimp
 476:	0000                	unimp
 478:	0000                	unimp
 47a:	0000                	unimp
