
rv32um-p-mul:     file format elf32-littleriscv


Disassembly of section .text.init:

00000000 <_start>:
   0:	0480006f          	j	48 <reset_vector>

00000004 <trap_vector>:
   4:	34202f73          	csrr	t5,mcause
   8:	00800f93          	li	t6,8
   c:	03ff0863          	beq	t5,t6,3c <write_tohost>
  10:	00900f93          	li	t6,9
  14:	03ff0463          	beq	t5,t6,3c <write_tohost>
  18:	00b00f93          	li	t6,11
  1c:	03ff0063          	beq	t5,t6,3c <write_tohost>
  20:	00000f13          	li	t5,0
  24:	000f0463          	beqz	t5,2c <trap_vector+0x28>
  28:	000f0067          	jr	t5
  2c:	34202f73          	csrr	t5,mcause
  30:	000f5463          	bgez	t5,38 <handle_exception>
  34:	0040006f          	j	38 <handle_exception>

00000038 <handle_exception>:
  38:	5391e193          	ori	gp,gp,1337

0000003c <write_tohost>:
  3c:	00001f17          	auipc	t5,0x1
  40:	fc3f2223          	sw	gp,-60(t5) # 1000 <tohost>
  44:	ff9ff06f          	j	3c <write_tohost>

00000048 <reset_vector>:
  48:	00000093          	li	ra,0
  4c:	00000113          	li	sp,0
  50:	00000193          	li	gp,0
  54:	00000213          	li	tp,0
  58:	00000293          	li	t0,0
  5c:	00000313          	li	t1,0
  60:	00000393          	li	t2,0
  64:	00000413          	li	s0,0
  68:	00000493          	li	s1,0
  6c:	00000513          	li	a0,0
  70:	00000593          	li	a1,0
  74:	00000613          	li	a2,0
  78:	00000693          	li	a3,0
  7c:	00000713          	li	a4,0
  80:	00000793          	li	a5,0
  84:	00000813          	li	a6,0
  88:	00000893          	li	a7,0
  8c:	00000913          	li	s2,0
  90:	00000993          	li	s3,0
  94:	00000a13          	li	s4,0
  98:	00000a93          	li	s5,0
  9c:	00000b13          	li	s6,0
  a0:	00000b93          	li	s7,0
  a4:	00000c13          	li	s8,0
  a8:	00000c93          	li	s9,0
  ac:	00000d13          	li	s10,0
  b0:	00000d93          	li	s11,0
  b4:	00000e13          	li	t3,0
  b8:	00000e93          	li	t4,0
  bc:	00000f13          	li	t5,0
  c0:	00000f93          	li	t6,0
  c4:	f1402573          	csrr	a0,mhartid
  c8:	00051063          	bnez	a0,c8 <reset_vector+0x80>
  cc:	00000297          	auipc	t0,0x0
  d0:	01028293          	addi	t0,t0,16 # dc <reset_vector+0x94>
  d4:	30529073          	csrw	mtvec,t0
  d8:	18005073          	csrwi	satp,0
  dc:	00000297          	auipc	t0,0x0
  e0:	02028293          	addi	t0,t0,32 # fc <reset_vector+0xb4>
  e4:	30529073          	csrw	mtvec,t0
  e8:	800002b7          	lui	t0,0x80000
  ec:	fff28293          	addi	t0,t0,-1 # 7fffffff <_end+0x7fffdfff>
  f0:	3b029073          	csrw	pmpaddr0,t0
  f4:	01f00293          	li	t0,31
  f8:	3a029073          	csrw	pmpcfg0,t0
  fc:	30405073          	csrwi	mie,0
 100:	00000297          	auipc	t0,0x0
 104:	01428293          	addi	t0,t0,20 # 114 <reset_vector+0xcc>
 108:	30529073          	csrw	mtvec,t0
 10c:	30205073          	csrwi	medeleg,0
 110:	30305073          	csrwi	mideleg,0
 114:	00000193          	li	gp,0
 118:	00000297          	auipc	t0,0x0
 11c:	eec28293          	addi	t0,t0,-276 # 4 <trap_vector>
 120:	30529073          	csrw	mtvec,t0
 124:	00100513          	li	a0,1
 128:	01f51513          	slli	a0,a0,0x1f
 12c:	00054c63          	bltz	a0,144 <reset_vector+0xfc>
 130:	0ff0000f          	fence
 134:	00100193          	li	gp,1
 138:	05d00893          	li	a7,93
 13c:	00000513          	li	a0,0
 140:	00000073          	ecall
 144:	00000293          	li	t0,0
 148:	00028a63          	beqz	t0,15c <reset_vector+0x114>
 14c:	10529073          	csrw	stvec,t0
 150:	0000b2b7          	lui	t0,0xb
 154:	10928293          	addi	t0,t0,265 # b109 <_end+0x9109>
 158:	30229073          	csrw	medeleg,t0
 15c:	30005073          	csrwi	mstatus,0
 160:	00000297          	auipc	t0,0x0
 164:	01428293          	addi	t0,t0,20 # 174 <test_32>
 168:	34129073          	csrw	mepc,t0
 16c:	f1402573          	csrr	a0,mhartid
 170:	30200073          	mret

00000174 <test_32>:
 174:	000080b7          	lui	ra,0x8
 178:	e0008093          	addi	ra,ra,-512 # 7e00 <_end+0x5e00>
 17c:	b6db7137          	lui	sp,0xb6db7
 180:	db710113          	addi	sp,sp,-585 # b6db6db7 <_end+0xb6db4db7>
 184:	02208733          	mul	a4,ra,sp
 188:	000013b7          	lui	t2,0x1
 18c:	20038393          	addi	t2,t2,512 # 1200 <fromhost+0x1c0>
 190:	02000193          	li	gp,32
 194:	4a771463          	bne	a4,t2,63c <fail>

00000198 <test_33>:
 198:	000080b7          	lui	ra,0x8
 19c:	fc008093          	addi	ra,ra,-64 # 7fc0 <_end+0x5fc0>
 1a0:	b6db7137          	lui	sp,0xb6db7
 1a4:	db710113          	addi	sp,sp,-585 # b6db6db7 <_end+0xb6db4db7>
 1a8:	02208733          	mul	a4,ra,sp
 1ac:	000013b7          	lui	t2,0x1
 1b0:	24038393          	addi	t2,t2,576 # 1240 <fromhost+0x200>
 1b4:	02100193          	li	gp,33
 1b8:	48771263          	bne	a4,t2,63c <fail>

000001bc <test_2>:
 1bc:	00000093          	li	ra,0
 1c0:	00000113          	li	sp,0
 1c4:	02208733          	mul	a4,ra,sp
 1c8:	00000393          	li	t2,0
 1cc:	00200193          	li	gp,2
 1d0:	46771663          	bne	a4,t2,63c <fail>

000001d4 <test_3>:
 1d4:	00100093          	li	ra,1
 1d8:	00100113          	li	sp,1
 1dc:	02208733          	mul	a4,ra,sp
 1e0:	00100393          	li	t2,1
 1e4:	00300193          	li	gp,3
 1e8:	44771a63          	bne	a4,t2,63c <fail>

000001ec <test_4>:
 1ec:	00300093          	li	ra,3
 1f0:	00700113          	li	sp,7
 1f4:	02208733          	mul	a4,ra,sp
 1f8:	01500393          	li	t2,21
 1fc:	00400193          	li	gp,4
 200:	42771e63          	bne	a4,t2,63c <fail>

00000204 <test_5>:
 204:	00000093          	li	ra,0
 208:	ffff8137          	lui	sp,0xffff8
 20c:	02208733          	mul	a4,ra,sp
 210:	00000393          	li	t2,0
 214:	00500193          	li	gp,5
 218:	42771263          	bne	a4,t2,63c <fail>

0000021c <test_6>:
 21c:	800000b7          	lui	ra,0x80000
 220:	00000113          	li	sp,0
 224:	02208733          	mul	a4,ra,sp
 228:	00000393          	li	t2,0
 22c:	00600193          	li	gp,6
 230:	40771663          	bne	a4,t2,63c <fail>

00000234 <test_7>:
 234:	800000b7          	lui	ra,0x80000
 238:	ffff8137          	lui	sp,0xffff8
 23c:	02208733          	mul	a4,ra,sp
 240:	00000393          	li	t2,0
 244:	00700193          	li	gp,7
 248:	3e771a63          	bne	a4,t2,63c <fail>

0000024c <test_30>:
 24c:	aaaab0b7          	lui	ra,0xaaaab
 250:	aab08093          	addi	ra,ra,-1365 # aaaaaaab <_end+0xaaaa8aab>
 254:	00030137          	lui	sp,0x30
 258:	e7d10113          	addi	sp,sp,-387 # 2fe7d <_end+0x2de7d>
 25c:	02208733          	mul	a4,ra,sp
 260:	000103b7          	lui	t2,0x10
 264:	f7f38393          	addi	t2,t2,-129 # ff7f <_end+0xdf7f>
 268:	01e00193          	li	gp,30
 26c:	3c771863          	bne	a4,t2,63c <fail>

00000270 <test_31>:
 270:	000300b7          	lui	ra,0x30
 274:	e7d08093          	addi	ra,ra,-387 # 2fe7d <_end+0x2de7d>
 278:	aaaab137          	lui	sp,0xaaaab
 27c:	aab10113          	addi	sp,sp,-1365 # aaaaaaab <_end+0xaaaa8aab>
 280:	02208733          	mul	a4,ra,sp
 284:	000103b7          	lui	t2,0x10
 288:	f7f38393          	addi	t2,t2,-129 # ff7f <_end+0xdf7f>
 28c:	01f00193          	li	gp,31
 290:	3a771663          	bne	a4,t2,63c <fail>

00000294 <test_34>:
 294:	ff0000b7          	lui	ra,0xff000
 298:	ff000137          	lui	sp,0xff000
 29c:	02208733          	mul	a4,ra,sp
 2a0:	00000393          	li	t2,0
 2a4:	02200193          	li	gp,34
 2a8:	38771a63          	bne	a4,t2,63c <fail>

000002ac <test_35>:
 2ac:	fff00093          	li	ra,-1
 2b0:	fff00113          	li	sp,-1
 2b4:	02208733          	mul	a4,ra,sp
 2b8:	00100393          	li	t2,1
 2bc:	02300193          	li	gp,35
 2c0:	36771e63          	bne	a4,t2,63c <fail>

000002c4 <test_36>:
 2c4:	fff00093          	li	ra,-1
 2c8:	00100113          	li	sp,1
 2cc:	02208733          	mul	a4,ra,sp
 2d0:	fff00393          	li	t2,-1
 2d4:	02400193          	li	gp,36
 2d8:	36771263          	bne	a4,t2,63c <fail>

000002dc <test_37>:
 2dc:	00100093          	li	ra,1
 2e0:	fff00113          	li	sp,-1
 2e4:	02208733          	mul	a4,ra,sp
 2e8:	fff00393          	li	t2,-1
 2ec:	02500193          	li	gp,37
 2f0:	34771663          	bne	a4,t2,63c <fail>

000002f4 <test_8>:
 2f4:	00d00093          	li	ra,13
 2f8:	00b00113          	li	sp,11
 2fc:	022080b3          	mul	ra,ra,sp
 300:	08f00393          	li	t2,143
 304:	00800193          	li	gp,8
 308:	32709a63          	bne	ra,t2,63c <fail>

0000030c <test_9>:
 30c:	00e00093          	li	ra,14
 310:	00b00113          	li	sp,11
 314:	02208133          	mul	sp,ra,sp
 318:	09a00393          	li	t2,154
 31c:	00900193          	li	gp,9
 320:	30711e63          	bne	sp,t2,63c <fail>

00000324 <test_10>:
 324:	00d00093          	li	ra,13
 328:	021080b3          	mul	ra,ra,ra
 32c:	0a900393          	li	t2,169
 330:	00a00193          	li	gp,10
 334:	30709463          	bne	ra,t2,63c <fail>

00000338 <test_11>:
 338:	00000213          	li	tp,0
 33c:	00d00093          	li	ra,13
 340:	00b00113          	li	sp,11
 344:	02208733          	mul	a4,ra,sp
 348:	00070313          	mv	t1,a4
 34c:	00120213          	addi	tp,tp,1 # 1 <_start+0x1>
 350:	00200293          	li	t0,2
 354:	fe5214e3          	bne	tp,t0,33c <test_11+0x4>
 358:	08f00393          	li	t2,143
 35c:	00b00193          	li	gp,11
 360:	2c731e63          	bne	t1,t2,63c <fail>

00000364 <test_12>:
 364:	00000213          	li	tp,0
 368:	00e00093          	li	ra,14
 36c:	00b00113          	li	sp,11
 370:	02208733          	mul	a4,ra,sp
 374:	00000013          	nop
 378:	00070313          	mv	t1,a4
 37c:	00120213          	addi	tp,tp,1 # 1 <_start+0x1>
 380:	00200293          	li	t0,2
 384:	fe5212e3          	bne	tp,t0,368 <test_12+0x4>
 388:	09a00393          	li	t2,154
 38c:	00c00193          	li	gp,12
 390:	2a731663          	bne	t1,t2,63c <fail>

00000394 <test_13>:
 394:	00000213          	li	tp,0
 398:	00f00093          	li	ra,15
 39c:	00b00113          	li	sp,11
 3a0:	02208733          	mul	a4,ra,sp
 3a4:	00000013          	nop
 3a8:	00000013          	nop
 3ac:	00070313          	mv	t1,a4
 3b0:	00120213          	addi	tp,tp,1 # 1 <_start+0x1>
 3b4:	00200293          	li	t0,2
 3b8:	fe5210e3          	bne	tp,t0,398 <test_13+0x4>
 3bc:	0a500393          	li	t2,165
 3c0:	00d00193          	li	gp,13
 3c4:	26731c63          	bne	t1,t2,63c <fail>

000003c8 <test_14>:
 3c8:	00000213          	li	tp,0
 3cc:	00d00093          	li	ra,13
 3d0:	00b00113          	li	sp,11
 3d4:	02208733          	mul	a4,ra,sp
 3d8:	00120213          	addi	tp,tp,1 # 1 <_start+0x1>
 3dc:	00200293          	li	t0,2
 3e0:	fe5216e3          	bne	tp,t0,3cc <test_14+0x4>
 3e4:	08f00393          	li	t2,143
 3e8:	00e00193          	li	gp,14
 3ec:	24771863          	bne	a4,t2,63c <fail>

000003f0 <test_15>:
 3f0:	00000213          	li	tp,0
 3f4:	00e00093          	li	ra,14
 3f8:	00b00113          	li	sp,11
 3fc:	00000013          	nop
 400:	02208733          	mul	a4,ra,sp
 404:	00120213          	addi	tp,tp,1 # 1 <_start+0x1>
 408:	00200293          	li	t0,2
 40c:	fe5214e3          	bne	tp,t0,3f4 <test_15+0x4>
 410:	09a00393          	li	t2,154
 414:	00f00193          	li	gp,15
 418:	22771263          	bne	a4,t2,63c <fail>

0000041c <test_16>:
 41c:	00000213          	li	tp,0
 420:	00f00093          	li	ra,15
 424:	00b00113          	li	sp,11
 428:	00000013          	nop
 42c:	00000013          	nop
 430:	02208733          	mul	a4,ra,sp
 434:	00120213          	addi	tp,tp,1 # 1 <_start+0x1>
 438:	00200293          	li	t0,2
 43c:	fe5212e3          	bne	tp,t0,420 <test_16+0x4>
 440:	0a500393          	li	t2,165
 444:	01000193          	li	gp,16
 448:	1e771a63          	bne	a4,t2,63c <fail>

0000044c <test_17>:
 44c:	00000213          	li	tp,0
 450:	00d00093          	li	ra,13
 454:	00000013          	nop
 458:	00b00113          	li	sp,11
 45c:	02208733          	mul	a4,ra,sp
 460:	00120213          	addi	tp,tp,1 # 1 <_start+0x1>
 464:	00200293          	li	t0,2
 468:	fe5214e3          	bne	tp,t0,450 <test_17+0x4>
 46c:	08f00393          	li	t2,143
 470:	01100193          	li	gp,17
 474:	1c771463          	bne	a4,t2,63c <fail>

00000478 <test_18>:
 478:	00000213          	li	tp,0
 47c:	00e00093          	li	ra,14
 480:	00000013          	nop
 484:	00b00113          	li	sp,11
 488:	00000013          	nop
 48c:	02208733          	mul	a4,ra,sp
 490:	00120213          	addi	tp,tp,1 # 1 <_start+0x1>
 494:	00200293          	li	t0,2
 498:	fe5212e3          	bne	tp,t0,47c <test_18+0x4>
 49c:	09a00393          	li	t2,154
 4a0:	01200193          	li	gp,18
 4a4:	18771c63          	bne	a4,t2,63c <fail>

000004a8 <test_19>:
 4a8:	00000213          	li	tp,0
 4ac:	00f00093          	li	ra,15
 4b0:	00000013          	nop
 4b4:	00000013          	nop
 4b8:	00b00113          	li	sp,11
 4bc:	02208733          	mul	a4,ra,sp
 4c0:	00120213          	addi	tp,tp,1 # 1 <_start+0x1>
 4c4:	00200293          	li	t0,2
 4c8:	fe5212e3          	bne	tp,t0,4ac <test_19+0x4>
 4cc:	0a500393          	li	t2,165
 4d0:	01300193          	li	gp,19
 4d4:	16771463          	bne	a4,t2,63c <fail>

000004d8 <test_20>:
 4d8:	00000213          	li	tp,0
 4dc:	00b00113          	li	sp,11
 4e0:	00d00093          	li	ra,13
 4e4:	02208733          	mul	a4,ra,sp
 4e8:	00120213          	addi	tp,tp,1 # 1 <_start+0x1>
 4ec:	00200293          	li	t0,2
 4f0:	fe5216e3          	bne	tp,t0,4dc <test_20+0x4>
 4f4:	08f00393          	li	t2,143
 4f8:	01400193          	li	gp,20
 4fc:	14771063          	bne	a4,t2,63c <fail>

00000500 <test_21>:
 500:	00000213          	li	tp,0
 504:	00b00113          	li	sp,11
 508:	00e00093          	li	ra,14
 50c:	00000013          	nop
 510:	02208733          	mul	a4,ra,sp
 514:	00120213          	addi	tp,tp,1 # 1 <_start+0x1>
 518:	00200293          	li	t0,2
 51c:	fe5214e3          	bne	tp,t0,504 <test_21+0x4>
 520:	09a00393          	li	t2,154
 524:	01500193          	li	gp,21
 528:	10771a63          	bne	a4,t2,63c <fail>

0000052c <test_22>:
 52c:	00000213          	li	tp,0
 530:	00b00113          	li	sp,11
 534:	00f00093          	li	ra,15
 538:	00000013          	nop
 53c:	00000013          	nop
 540:	02208733          	mul	a4,ra,sp
 544:	00120213          	addi	tp,tp,1 # 1 <_start+0x1>
 548:	00200293          	li	t0,2
 54c:	fe5212e3          	bne	tp,t0,530 <test_22+0x4>
 550:	0a500393          	li	t2,165
 554:	01600193          	li	gp,22
 558:	0e771263          	bne	a4,t2,63c <fail>

0000055c <test_23>:
 55c:	00000213          	li	tp,0
 560:	00b00113          	li	sp,11
 564:	00000013          	nop
 568:	00d00093          	li	ra,13
 56c:	02208733          	mul	a4,ra,sp
 570:	00120213          	addi	tp,tp,1 # 1 <_start+0x1>
 574:	00200293          	li	t0,2
 578:	fe5214e3          	bne	tp,t0,560 <test_23+0x4>
 57c:	08f00393          	li	t2,143
 580:	01700193          	li	gp,23
 584:	0a771c63          	bne	a4,t2,63c <fail>

00000588 <test_24>:
 588:	00000213          	li	tp,0
 58c:	00b00113          	li	sp,11
 590:	00000013          	nop
 594:	00e00093          	li	ra,14
 598:	00000013          	nop
 59c:	02208733          	mul	a4,ra,sp
 5a0:	00120213          	addi	tp,tp,1 # 1 <_start+0x1>
 5a4:	00200293          	li	t0,2
 5a8:	fe5212e3          	bne	tp,t0,58c <test_24+0x4>
 5ac:	09a00393          	li	t2,154
 5b0:	01800193          	li	gp,24
 5b4:	08771463          	bne	a4,t2,63c <fail>

000005b8 <test_25>:
 5b8:	00000213          	li	tp,0
 5bc:	00b00113          	li	sp,11
 5c0:	00000013          	nop
 5c4:	00000013          	nop
 5c8:	00f00093          	li	ra,15
 5cc:	02208733          	mul	a4,ra,sp
 5d0:	00120213          	addi	tp,tp,1 # 1 <_start+0x1>
 5d4:	00200293          	li	t0,2
 5d8:	fe5212e3          	bne	tp,t0,5bc <test_25+0x4>
 5dc:	0a500393          	li	t2,165
 5e0:	01900193          	li	gp,25
 5e4:	04771c63          	bne	a4,t2,63c <fail>

000005e8 <test_26>:
 5e8:	01f00093          	li	ra,31
 5ec:	02100133          	mul	sp,zero,ra
 5f0:	00000393          	li	t2,0
 5f4:	01a00193          	li	gp,26
 5f8:	04711263          	bne	sp,t2,63c <fail>

000005fc <test_27>:
 5fc:	02000093          	li	ra,32
 600:	02008133          	mul	sp,ra,zero
 604:	00000393          	li	t2,0
 608:	01b00193          	li	gp,27
 60c:	02711863          	bne	sp,t2,63c <fail>

00000610 <test_28>:
 610:	020000b3          	mul	ra,zero,zero
 614:	00000393          	li	t2,0
 618:	01c00193          	li	gp,28
 61c:	02709063          	bne	ra,t2,63c <fail>

00000620 <test_29>:
 620:	02100093          	li	ra,33
 624:	02200113          	li	sp,34
 628:	02208033          	mul	zero,ra,sp
 62c:	00000393          	li	t2,0
 630:	01d00193          	li	gp,29
 634:	00701463          	bne	zero,t2,63c <fail>
 638:	02301063          	bne	zero,gp,658 <pass>

0000063c <fail>:
 63c:	0ff0000f          	fence
 640:	00018063          	beqz	gp,640 <fail+0x4>
 644:	00119193          	slli	gp,gp,0x1
 648:	0011e193          	ori	gp,gp,1
 64c:	05d00893          	li	a7,93
 650:	00018513          	mv	a0,gp
 654:	00000073          	ecall

00000658 <pass>:
 658:	0ff0000f          	fence
 65c:	00100193          	li	gp,1
 660:	05d00893          	li	a7,93
 664:	00000513          	li	a0,0
 668:	00000073          	ecall
 66c:	c0001073          	unimp
 670:	0000                	unimp
 672:	0000                	unimp
 674:	0000                	unimp
 676:	0000                	unimp
 678:	0000                	unimp
 67a:	0000                	unimp
