
rv32ui-p-sb:     file format elf32-littleriscv


Disassembly of section .text.init:

00000000 <_start>:
   0:	0480006f          	j	48 <reset_vector>

00000004 <trap_vector>:
   4:	34202f73          	csrr	t5,mcause
   8:	00800f93          	li	t6,8
   c:	03ff0863          	beq	t5,t6,3c <write_tohost>
  10:	00900f93          	li	t6,9
  14:	03ff0463          	beq	t5,t6,3c <write_tohost>
  18:	00b00f93          	li	t6,11
  1c:	03ff0063          	beq	t5,t6,3c <write_tohost>
  20:	00000f13          	li	t5,0
  24:	000f0463          	beqz	t5,2c <trap_vector+0x28>
  28:	000f0067          	jr	t5
  2c:	34202f73          	csrr	t5,mcause
  30:	000f5463          	bgez	t5,38 <handle_exception>
  34:	0040006f          	j	38 <handle_exception>

00000038 <handle_exception>:
  38:	5391e193          	ori	gp,gp,1337

0000003c <write_tohost>:
  3c:	00001f17          	auipc	t5,0x1
  40:	fc3f2223          	sw	gp,-60(t5) # 1000 <tohost>
  44:	ff9ff06f          	j	3c <write_tohost>

00000048 <reset_vector>:
  48:	00000093          	li	ra,0
  4c:	00000113          	li	sp,0
  50:	00000193          	li	gp,0
  54:	00000213          	li	tp,0
  58:	00000293          	li	t0,0
  5c:	00000313          	li	t1,0
  60:	00000393          	li	t2,0
  64:	00000413          	li	s0,0
  68:	00000493          	li	s1,0
  6c:	00000513          	li	a0,0
  70:	00000593          	li	a1,0
  74:	00000613          	li	a2,0
  78:	00000693          	li	a3,0
  7c:	00000713          	li	a4,0
  80:	00000793          	li	a5,0
  84:	00000813          	li	a6,0
  88:	00000893          	li	a7,0
  8c:	00000913          	li	s2,0
  90:	00000993          	li	s3,0
  94:	00000a13          	li	s4,0
  98:	00000a93          	li	s5,0
  9c:	00000b13          	li	s6,0
  a0:	00000b93          	li	s7,0
  a4:	00000c13          	li	s8,0
  a8:	00000c93          	li	s9,0
  ac:	00000d13          	li	s10,0
  b0:	00000d93          	li	s11,0
  b4:	00000e13          	li	t3,0
  b8:	00000e93          	li	t4,0
  bc:	00000f13          	li	t5,0
  c0:	00000f93          	li	t6,0
  c4:	f1402573          	csrr	a0,mhartid
  c8:	00051063          	bnez	a0,c8 <reset_vector+0x80>
  cc:	00000297          	auipc	t0,0x0
  d0:	01028293          	addi	t0,t0,16 # dc <reset_vector+0x94>
  d4:	30529073          	csrw	mtvec,t0
  d8:	18005073          	csrwi	satp,0
  dc:	00000297          	auipc	t0,0x0
  e0:	02028293          	addi	t0,t0,32 # fc <reset_vector+0xb4>
  e4:	30529073          	csrw	mtvec,t0
  e8:	800002b7          	lui	t0,0x80000
  ec:	fff28293          	addi	t0,t0,-1 # 7fffffff <_end+0x7fffdfef>
  f0:	3b029073          	csrw	pmpaddr0,t0
  f4:	01f00293          	li	t0,31
  f8:	3a029073          	csrw	pmpcfg0,t0
  fc:	30405073          	csrwi	mie,0
 100:	00000297          	auipc	t0,0x0
 104:	01428293          	addi	t0,t0,20 # 114 <reset_vector+0xcc>
 108:	30529073          	csrw	mtvec,t0
 10c:	30205073          	csrwi	medeleg,0
 110:	30305073          	csrwi	mideleg,0
 114:	00000193          	li	gp,0
 118:	00000297          	auipc	t0,0x0
 11c:	eec28293          	addi	t0,t0,-276 # 4 <trap_vector>
 120:	30529073          	csrw	mtvec,t0
 124:	00100513          	li	a0,1
 128:	01f51513          	slli	a0,a0,0x1f
 12c:	00054c63          	bltz	a0,144 <reset_vector+0xfc>
 130:	0ff0000f          	fence
 134:	00100193          	li	gp,1
 138:	05d00893          	li	a7,93
 13c:	00000513          	li	a0,0
 140:	00000073          	ecall
 144:	00000293          	li	t0,0
 148:	00028a63          	beqz	t0,15c <reset_vector+0x114>
 14c:	10529073          	csrw	stvec,t0
 150:	0000b2b7          	lui	t0,0xb
 154:	10928293          	addi	t0,t0,265 # b109 <_end+0x90f9>
 158:	30229073          	csrw	medeleg,t0
 15c:	30005073          	csrwi	mstatus,0
 160:	00000297          	auipc	t0,0x0
 164:	01428293          	addi	t0,t0,20 # 174 <test_2>
 168:	34129073          	csrw	mepc,t0
 16c:	f1402573          	csrr	a0,mhartid
 170:	30200073          	mret

00000174 <test_2>:
 174:	00002097          	auipc	ra,0x2
 178:	e8c08093          	addi	ra,ra,-372 # 2000 <begin_signature>
 17c:	faa00113          	li	sp,-86
 180:	00208023          	sb	sp,0(ra)
 184:	00008703          	lb	a4,0(ra)
 188:	faa00393          	li	t2,-86
 18c:	00200193          	li	gp,2
 190:	3c771c63          	bne	a4,t2,568 <fail>

00000194 <test_3>:
 194:	00002097          	auipc	ra,0x2
 198:	e6c08093          	addi	ra,ra,-404 # 2000 <begin_signature>
 19c:	00000113          	li	sp,0
 1a0:	002080a3          	sb	sp,1(ra)
 1a4:	00108703          	lb	a4,1(ra)
 1a8:	00000393          	li	t2,0
 1ac:	00300193          	li	gp,3
 1b0:	3a771c63          	bne	a4,t2,568 <fail>

000001b4 <test_4>:
 1b4:	00002097          	auipc	ra,0x2
 1b8:	e4c08093          	addi	ra,ra,-436 # 2000 <begin_signature>
 1bc:	fffff137          	lui	sp,0xfffff
 1c0:	fa010113          	addi	sp,sp,-96 # ffffefa0 <_end+0xffffcf90>
 1c4:	00208123          	sb	sp,2(ra)
 1c8:	00209703          	lh	a4,2(ra)
 1cc:	fffff3b7          	lui	t2,0xfffff
 1d0:	fa038393          	addi	t2,t2,-96 # ffffefa0 <_end+0xffffcf90>
 1d4:	00400193          	li	gp,4
 1d8:	38771863          	bne	a4,t2,568 <fail>

000001dc <test_5>:
 1dc:	00002097          	auipc	ra,0x2
 1e0:	e2408093          	addi	ra,ra,-476 # 2000 <begin_signature>
 1e4:	00a00113          	li	sp,10
 1e8:	002081a3          	sb	sp,3(ra)
 1ec:	00308703          	lb	a4,3(ra)
 1f0:	00a00393          	li	t2,10
 1f4:	00500193          	li	gp,5
 1f8:	36771863          	bne	a4,t2,568 <fail>

000001fc <test_6>:
 1fc:	00002097          	auipc	ra,0x2
 200:	e0b08093          	addi	ra,ra,-501 # 2007 <tdat8>
 204:	faa00113          	li	sp,-86
 208:	fe208ea3          	sb	sp,-3(ra)
 20c:	ffd08703          	lb	a4,-3(ra)
 210:	faa00393          	li	t2,-86
 214:	00600193          	li	gp,6
 218:	34771863          	bne	a4,t2,568 <fail>

0000021c <test_7>:
 21c:	00002097          	auipc	ra,0x2
 220:	deb08093          	addi	ra,ra,-533 # 2007 <tdat8>
 224:	00000113          	li	sp,0
 228:	fe208f23          	sb	sp,-2(ra)
 22c:	ffe08703          	lb	a4,-2(ra)
 230:	00000393          	li	t2,0
 234:	00700193          	li	gp,7
 238:	32771863          	bne	a4,t2,568 <fail>

0000023c <test_8>:
 23c:	00002097          	auipc	ra,0x2
 240:	dcb08093          	addi	ra,ra,-565 # 2007 <tdat8>
 244:	fa000113          	li	sp,-96
 248:	fe208fa3          	sb	sp,-1(ra)
 24c:	fff08703          	lb	a4,-1(ra)
 250:	fa000393          	li	t2,-96
 254:	00800193          	li	gp,8
 258:	30771863          	bne	a4,t2,568 <fail>

0000025c <test_9>:
 25c:	00002097          	auipc	ra,0x2
 260:	dab08093          	addi	ra,ra,-597 # 2007 <tdat8>
 264:	00a00113          	li	sp,10
 268:	00208023          	sb	sp,0(ra)
 26c:	00008703          	lb	a4,0(ra)
 270:	00a00393          	li	t2,10
 274:	00900193          	li	gp,9
 278:	2e771863          	bne	a4,t2,568 <fail>

0000027c <test_10>:
 27c:	00002097          	auipc	ra,0x2
 280:	d8c08093          	addi	ra,ra,-628 # 2008 <tdat9>
 284:	12345137          	lui	sp,0x12345
 288:	67810113          	addi	sp,sp,1656 # 12345678 <_end+0x12343668>
 28c:	fe008213          	addi	tp,ra,-32
 290:	02220023          	sb	sp,32(tp) # 20 <trap_vector+0x1c>
 294:	00008283          	lb	t0,0(ra)
 298:	07800393          	li	t2,120
 29c:	00a00193          	li	gp,10
 2a0:	2c729463          	bne	t0,t2,568 <fail>

000002a4 <test_11>:
 2a4:	00002097          	auipc	ra,0x2
 2a8:	d6408093          	addi	ra,ra,-668 # 2008 <tdat9>
 2ac:	00003137          	lui	sp,0x3
 2b0:	09810113          	addi	sp,sp,152 # 3098 <_end+0x1088>
 2b4:	ffa08093          	addi	ra,ra,-6
 2b8:	002083a3          	sb	sp,7(ra)
 2bc:	00002217          	auipc	tp,0x2
 2c0:	d4d20213          	addi	tp,tp,-691 # 2009 <tdat10>
 2c4:	00020283          	lb	t0,0(tp) # 0 <_start>
 2c8:	f9800393          	li	t2,-104
 2cc:	00b00193          	li	gp,11
 2d0:	28729c63          	bne	t0,t2,568 <fail>

000002d4 <test_12>:
 2d4:	00c00193          	li	gp,12
 2d8:	00000213          	li	tp,0
 2dc:	fdd00093          	li	ra,-35
 2e0:	00002117          	auipc	sp,0x2
 2e4:	d2010113          	addi	sp,sp,-736 # 2000 <begin_signature>
 2e8:	00110023          	sb	ra,0(sp)
 2ec:	00010703          	lb	a4,0(sp)
 2f0:	fdd00393          	li	t2,-35
 2f4:	26771a63          	bne	a4,t2,568 <fail>
 2f8:	00120213          	addi	tp,tp,1 # 1 <_start+0x1>
 2fc:	00200293          	li	t0,2
 300:	fc521ee3          	bne	tp,t0,2dc <test_12+0x8>

00000304 <test_13>:
 304:	00d00193          	li	gp,13
 308:	00000213          	li	tp,0
 30c:	fcd00093          	li	ra,-51
 310:	00002117          	auipc	sp,0x2
 314:	cf010113          	addi	sp,sp,-784 # 2000 <begin_signature>
 318:	00000013          	nop
 31c:	001100a3          	sb	ra,1(sp)
 320:	00110703          	lb	a4,1(sp)
 324:	fcd00393          	li	t2,-51
 328:	24771063          	bne	a4,t2,568 <fail>
 32c:	00120213          	addi	tp,tp,1 # 1 <_start+0x1>
 330:	00200293          	li	t0,2
 334:	fc521ce3          	bne	tp,t0,30c <test_13+0x8>

00000338 <test_14>:
 338:	00e00193          	li	gp,14
 33c:	00000213          	li	tp,0
 340:	fcc00093          	li	ra,-52
 344:	00002117          	auipc	sp,0x2
 348:	cbc10113          	addi	sp,sp,-836 # 2000 <begin_signature>
 34c:	00000013          	nop
 350:	00000013          	nop
 354:	00110123          	sb	ra,2(sp)
 358:	00210703          	lb	a4,2(sp)
 35c:	fcc00393          	li	t2,-52
 360:	20771463          	bne	a4,t2,568 <fail>
 364:	00120213          	addi	tp,tp,1 # 1 <_start+0x1>
 368:	00200293          	li	t0,2
 36c:	fc521ae3          	bne	tp,t0,340 <test_14+0x8>

00000370 <test_15>:
 370:	00f00193          	li	gp,15
 374:	00000213          	li	tp,0
 378:	fbc00093          	li	ra,-68
 37c:	00000013          	nop
 380:	00002117          	auipc	sp,0x2
 384:	c8010113          	addi	sp,sp,-896 # 2000 <begin_signature>
 388:	001101a3          	sb	ra,3(sp)
 38c:	00310703          	lb	a4,3(sp)
 390:	fbc00393          	li	t2,-68
 394:	1c771a63          	bne	a4,t2,568 <fail>
 398:	00120213          	addi	tp,tp,1 # 1 <_start+0x1>
 39c:	00200293          	li	t0,2
 3a0:	fc521ce3          	bne	tp,t0,378 <test_15+0x8>

000003a4 <test_16>:
 3a4:	01000193          	li	gp,16
 3a8:	00000213          	li	tp,0
 3ac:	fbb00093          	li	ra,-69
 3b0:	00000013          	nop
 3b4:	00002117          	auipc	sp,0x2
 3b8:	c4c10113          	addi	sp,sp,-948 # 2000 <begin_signature>
 3bc:	00000013          	nop
 3c0:	00110223          	sb	ra,4(sp)
 3c4:	00410703          	lb	a4,4(sp)
 3c8:	fbb00393          	li	t2,-69
 3cc:	18771e63          	bne	a4,t2,568 <fail>
 3d0:	00120213          	addi	tp,tp,1 # 1 <_start+0x1>
 3d4:	00200293          	li	t0,2
 3d8:	fc521ae3          	bne	tp,t0,3ac <test_16+0x8>

000003dc <test_17>:
 3dc:	01100193          	li	gp,17
 3e0:	00000213          	li	tp,0
 3e4:	fab00093          	li	ra,-85
 3e8:	00000013          	nop
 3ec:	00000013          	nop
 3f0:	00002117          	auipc	sp,0x2
 3f4:	c1010113          	addi	sp,sp,-1008 # 2000 <begin_signature>
 3f8:	001102a3          	sb	ra,5(sp)
 3fc:	00510703          	lb	a4,5(sp)
 400:	fab00393          	li	t2,-85
 404:	16771263          	bne	a4,t2,568 <fail>
 408:	00120213          	addi	tp,tp,1 # 1 <_start+0x1>
 40c:	00200293          	li	t0,2
 410:	fc521ae3          	bne	tp,t0,3e4 <test_17+0x8>

00000414 <test_18>:
 414:	01200193          	li	gp,18
 418:	00000213          	li	tp,0
 41c:	00002117          	auipc	sp,0x2
 420:	be410113          	addi	sp,sp,-1052 # 2000 <begin_signature>
 424:	03300093          	li	ra,51
 428:	00110023          	sb	ra,0(sp)
 42c:	00010703          	lb	a4,0(sp)
 430:	03300393          	li	t2,51
 434:	12771a63          	bne	a4,t2,568 <fail>
 438:	00120213          	addi	tp,tp,1 # 1 <_start+0x1>
 43c:	00200293          	li	t0,2
 440:	fc521ee3          	bne	tp,t0,41c <test_18+0x8>

00000444 <test_19>:
 444:	01300193          	li	gp,19
 448:	00000213          	li	tp,0
 44c:	00002117          	auipc	sp,0x2
 450:	bb410113          	addi	sp,sp,-1100 # 2000 <begin_signature>
 454:	02300093          	li	ra,35
 458:	00000013          	nop
 45c:	001100a3          	sb	ra,1(sp)
 460:	00110703          	lb	a4,1(sp)
 464:	02300393          	li	t2,35
 468:	10771063          	bne	a4,t2,568 <fail>
 46c:	00120213          	addi	tp,tp,1 # 1 <_start+0x1>
 470:	00200293          	li	t0,2
 474:	fc521ce3          	bne	tp,t0,44c <test_19+0x8>

00000478 <test_20>:
 478:	01400193          	li	gp,20
 47c:	00000213          	li	tp,0
 480:	00002117          	auipc	sp,0x2
 484:	b8010113          	addi	sp,sp,-1152 # 2000 <begin_signature>
 488:	02200093          	li	ra,34
 48c:	00000013          	nop
 490:	00000013          	nop
 494:	00110123          	sb	ra,2(sp)
 498:	00210703          	lb	a4,2(sp)
 49c:	02200393          	li	t2,34
 4a0:	0c771463          	bne	a4,t2,568 <fail>
 4a4:	00120213          	addi	tp,tp,1 # 1 <_start+0x1>
 4a8:	00200293          	li	t0,2
 4ac:	fc521ae3          	bne	tp,t0,480 <test_20+0x8>

000004b0 <test_21>:
 4b0:	01500193          	li	gp,21
 4b4:	00000213          	li	tp,0
 4b8:	00002117          	auipc	sp,0x2
 4bc:	b4810113          	addi	sp,sp,-1208 # 2000 <begin_signature>
 4c0:	00000013          	nop
 4c4:	01200093          	li	ra,18
 4c8:	001101a3          	sb	ra,3(sp)
 4cc:	00310703          	lb	a4,3(sp)
 4d0:	01200393          	li	t2,18
 4d4:	08771a63          	bne	a4,t2,568 <fail>
 4d8:	00120213          	addi	tp,tp,1 # 1 <_start+0x1>
 4dc:	00200293          	li	t0,2
 4e0:	fc521ce3          	bne	tp,t0,4b8 <test_21+0x8>

000004e4 <test_22>:
 4e4:	01600193          	li	gp,22
 4e8:	00000213          	li	tp,0
 4ec:	00002117          	auipc	sp,0x2
 4f0:	b1410113          	addi	sp,sp,-1260 # 2000 <begin_signature>
 4f4:	00000013          	nop
 4f8:	01100093          	li	ra,17
 4fc:	00000013          	nop
 500:	00110223          	sb	ra,4(sp)
 504:	00410703          	lb	a4,4(sp)
 508:	01100393          	li	t2,17
 50c:	04771e63          	bne	a4,t2,568 <fail>
 510:	00120213          	addi	tp,tp,1 # 1 <_start+0x1>
 514:	00200293          	li	t0,2
 518:	fc521ae3          	bne	tp,t0,4ec <test_22+0x8>

0000051c <test_23>:
 51c:	01700193          	li	gp,23
 520:	00000213          	li	tp,0
 524:	00002117          	auipc	sp,0x2
 528:	adc10113          	addi	sp,sp,-1316 # 2000 <begin_signature>
 52c:	00000013          	nop
 530:	00000013          	nop
 534:	00100093          	li	ra,1
 538:	001102a3          	sb	ra,5(sp)
 53c:	00510703          	lb	a4,5(sp)
 540:	00100393          	li	t2,1
 544:	02771263          	bne	a4,t2,568 <fail>
 548:	00120213          	addi	tp,tp,1 # 1 <_start+0x1>
 54c:	00200293          	li	t0,2
 550:	fc521ae3          	bne	tp,t0,524 <test_23+0x8>
 554:	0ef00513          	li	a0,239
 558:	00002597          	auipc	a1,0x2
 55c:	aa858593          	addi	a1,a1,-1368 # 2000 <begin_signature>
 560:	00a581a3          	sb	a0,3(a1)
 564:	02301063          	bne	zero,gp,584 <pass>

00000568 <fail>:
 568:	0ff0000f          	fence
 56c:	00018063          	beqz	gp,56c <fail+0x4>
 570:	00119193          	slli	gp,gp,0x1
 574:	0011e193          	ori	gp,gp,1
 578:	05d00893          	li	a7,93
 57c:	00018513          	mv	a0,gp
 580:	00000073          	ecall

00000584 <pass>:
 584:	0ff0000f          	fence
 588:	00100193          	li	gp,1
 58c:	05d00893          	li	a7,93
 590:	00000513          	li	a0,0
 594:	00000073          	ecall
 598:	c0001073          	unimp
 59c:	0000                	unimp
 59e:	0000                	unimp
 5a0:	0000                	unimp
 5a2:	0000                	unimp
 5a4:	0000                	unimp
 5a6:	0000                	unimp
 5a8:	0000                	unimp
 5aa:	0000                	unimp
 5ac:	0000                	unimp
 5ae:	0000                	unimp
 5b0:	0000                	unimp
 5b2:	0000                	unimp
 5b4:	0000                	unimp
 5b6:	0000                	unimp
 5b8:	0000                	unimp
 5ba:	0000                	unimp
