
rv32mi-p-scall:     file format elf32-littleriscv


Disassembly of section .text.init:

00000000 <_start>:
   0:	04c0006f          	j	4c <reset_vector>

00000004 <trap_vector>:
   4:	34202f73          	csrr	t5,mcause
   8:	00800f93          	li	t6,8
   c:	03ff0a63          	beq	t5,t6,40 <write_tohost>
  10:	00900f93          	li	t6,9
  14:	03ff0663          	beq	t5,t6,40 <write_tohost>
  18:	00b00f93          	li	t6,11
  1c:	03ff0263          	beq	t5,t6,40 <write_tohost>
  20:	00000f17          	auipc	t5,0x0
  24:	1e4f0f13          	addi	t5,t5,484 # 204 <mtvec_handler>
  28:	000f0463          	beqz	t5,30 <trap_vector+0x2c>
  2c:	000f0067          	jr	t5
  30:	34202f73          	csrr	t5,mcause
  34:	000f5463          	bgez	t5,3c <handle_exception>
  38:	0040006f          	j	3c <handle_exception>

0000003c <handle_exception>:
  3c:	5391e193          	ori	gp,gp,1337

00000040 <write_tohost>:
  40:	00001f17          	auipc	t5,0x1
  44:	fc3f2023          	sw	gp,-64(t5) # 1000 <tohost>
  48:	ff9ff06f          	j	40 <write_tohost>

0000004c <reset_vector>:
  4c:	00000093          	li	ra,0
  50:	00000113          	li	sp,0
  54:	00000193          	li	gp,0
  58:	00000213          	li	tp,0
  5c:	00000293          	li	t0,0
  60:	00000313          	li	t1,0
  64:	00000393          	li	t2,0
  68:	00000413          	li	s0,0
  6c:	00000493          	li	s1,0
  70:	00000513          	li	a0,0
  74:	00000593          	li	a1,0
  78:	00000613          	li	a2,0
  7c:	00000693          	li	a3,0
  80:	00000713          	li	a4,0
  84:	00000793          	li	a5,0
  88:	00000813          	li	a6,0
  8c:	00000893          	li	a7,0
  90:	00000913          	li	s2,0
  94:	00000993          	li	s3,0
  98:	00000a13          	li	s4,0
  9c:	00000a93          	li	s5,0
  a0:	00000b13          	li	s6,0
  a4:	00000b93          	li	s7,0
  a8:	00000c13          	li	s8,0
  ac:	00000c93          	li	s9,0
  b0:	00000d13          	li	s10,0
  b4:	00000d93          	li	s11,0
  b8:	00000e13          	li	t3,0
  bc:	00000e93          	li	t4,0
  c0:	00000f13          	li	t5,0
  c4:	00000f93          	li	t6,0
  c8:	f1402573          	csrr	a0,mhartid
  cc:	00051063          	bnez	a0,cc <reset_vector+0x80>
  d0:	00000297          	auipc	t0,0x0
  d4:	01028293          	addi	t0,t0,16 # e0 <reset_vector+0x94>
  d8:	30529073          	csrw	mtvec,t0
  dc:	18005073          	csrwi	satp,0
  e0:	00000297          	auipc	t0,0x0
  e4:	02028293          	addi	t0,t0,32 # 100 <reset_vector+0xb4>
  e8:	30529073          	csrw	mtvec,t0
  ec:	800002b7          	lui	t0,0x80000
  f0:	fff28293          	addi	t0,t0,-1 # 7fffffff <_end+0x7fffdfff>
  f4:	3b029073          	csrw	pmpaddr0,t0
  f8:	01f00293          	li	t0,31
  fc:	3a029073          	csrw	pmpcfg0,t0
 100:	30405073          	csrwi	mie,0
 104:	00000297          	auipc	t0,0x0
 108:	01428293          	addi	t0,t0,20 # 118 <reset_vector+0xcc>
 10c:	30529073          	csrw	mtvec,t0
 110:	30205073          	csrwi	medeleg,0
 114:	30305073          	csrwi	mideleg,0
 118:	00000193          	li	gp,0
 11c:	00000297          	auipc	t0,0x0
 120:	ee828293          	addi	t0,t0,-280 # 4 <trap_vector>
 124:	30529073          	csrw	mtvec,t0
 128:	00100513          	li	a0,1
 12c:	01f51513          	slli	a0,a0,0x1f
 130:	00054c63          	bltz	a0,148 <reset_vector+0xfc>
 134:	0ff0000f          	fence
 138:	00100193          	li	gp,1
 13c:	05d00893          	li	a7,93
 140:	00000513          	li	a0,0
 144:	00000073          	ecall
 148:	00000293          	li	t0,0
 14c:	00028a63          	beqz	t0,160 <reset_vector+0x114>
 150:	10529073          	csrw	stvec,t0
 154:	0000b2b7          	lui	t0,0xb
 158:	10928293          	addi	t0,t0,265 # b109 <_end+0x9109>
 15c:	30229073          	csrw	medeleg,t0
 160:	30005073          	csrwi	mstatus,0
 164:	00002537          	lui	a0,0x2
 168:	80050513          	addi	a0,a0,-2048 # 1800 <fromhost+0x7c0>
 16c:	30052073          	csrs	mstatus,a0
 170:	00000297          	auipc	t0,0x0
 174:	01428293          	addi	t0,t0,20 # 184 <reset_vector+0x138>
 178:	34129073          	csrw	mepc,t0
 17c:	f1402573          	csrr	a0,mhartid
 180:	30200073          	mret
 184:	00200193          	li	gp,2
 188:	00800313          	li	t1,8
 18c:	000022b7          	lui	t0,0x2
 190:	80028293          	addi	t0,t0,-2048 # 1800 <fromhost+0x7c0>
 194:	3002b073          	csrc	mstatus,t0
 198:	300023f3          	csrr	t2,mstatus
 19c:	0072f2b3          	and	t0,t0,t2
 1a0:	00028463          	beqz	t0,1a8 <reset_vector+0x15c>
 1a4:	00b00313          	li	t1,11
 1a8:	000022b7          	lui	t0,0x2
 1ac:	80028293          	addi	t0,t0,-2048 # 1800 <fromhost+0x7c0>
 1b0:	3002b073          	csrc	mstatus,t0
 1b4:	00000297          	auipc	t0,0x0
 1b8:	01028293          	addi	t0,t0,16 # 1c4 <reset_vector+0x178>
 1bc:	34129073          	csrw	mepc,t0
 1c0:	30200073          	mret
 1c4:	00100193          	li	gp,1

000001c8 <do_scall>:
 1c8:	00000073          	ecall
 1cc:	0080006f          	j	1d4 <fail>
 1d0:	02301063          	bne	zero,gp,1f0 <pass>

000001d4 <fail>:
 1d4:	0ff0000f          	fence
 1d8:	00018063          	beqz	gp,1d8 <fail+0x4>
 1dc:	00119193          	slli	gp,gp,0x1
 1e0:	0011e193          	ori	gp,gp,1
 1e4:	05d00893          	li	a7,93
 1e8:	00018513          	mv	a0,gp
 1ec:	00000073          	ecall

000001f0 <pass>:
 1f0:	0ff0000f          	fence
 1f4:	00100193          	li	gp,1
 1f8:	05d00893          	li	a7,93
 1fc:	00000513          	li	a0,0
 200:	00000073          	ecall

00000204 <mtvec_handler>:
 204:	342022f3          	csrr	t0,mcause
 208:	fc6296e3          	bne	t0,t1,1d4 <fail>
 20c:	00000397          	auipc	t2,0x0
 210:	fbc38393          	addi	t2,t2,-68 # 1c8 <do_scall>
 214:	341022f3          	csrr	t0,mepc
 218:	fa729ee3          	bne	t0,t2,1d4 <fail>
 21c:	fd5ff06f          	j	1f0 <pass>
 220:	c0001073          	unimp
 224:	0000                	unimp
 226:	0000                	unimp
 228:	0000                	unimp
 22a:	0000                	unimp
 22c:	0000                	unimp
 22e:	0000                	unimp
 230:	0000                	unimp
 232:	0000                	unimp
 234:	0000                	unimp
 236:	0000                	unimp
 238:	0000                	unimp
 23a:	0000                	unimp
 23c:	0000                	unimp
 23e:	0000                	unimp
