
rv64ui-p-bne:     file format elf64-littleriscv


Disassembly of section .text.init:

0000000000000000 <_start>:
   0:	0480006f          	j	48 <reset_vector>

0000000000000004 <trap_vector>:
   4:	34202f73          	csrr	t5,mcause
   8:	00800f93          	li	t6,8
   c:	03ff0863          	beq	t5,t6,3c <write_tohost>
  10:	00900f93          	li	t6,9
  14:	03ff0463          	beq	t5,t6,3c <write_tohost>
  18:	00b00f93          	li	t6,11
  1c:	03ff0063          	beq	t5,t6,3c <write_tohost>
  20:	00000f13          	li	t5,0
  24:	000f0463          	beqz	t5,2c <trap_vector+0x28>
  28:	000f0067          	jr	t5
  2c:	34202f73          	csrr	t5,mcause
  30:	000f5463          	bgez	t5,38 <handle_exception>
  34:	0040006f          	j	38 <handle_exception>

0000000000000038 <handle_exception>:
  38:	5391e193          	ori	gp,gp,1337

000000000000003c <write_tohost>:
  3c:	00001f17          	auipc	t5,0x1
  40:	fc3f2223          	sw	gp,-60(t5) # 1000 <tohost>
  44:	ff9ff06f          	j	3c <write_tohost>

0000000000000048 <reset_vector>:
  48:	00000093          	li	ra,0
  4c:	00000113          	li	sp,0
  50:	00000193          	li	gp,0
  54:	00000213          	li	tp,0
  58:	00000293          	li	t0,0
  5c:	00000313          	li	t1,0
  60:	00000393          	li	t2,0
  64:	00000413          	li	s0,0
  68:	00000493          	li	s1,0
  6c:	00000513          	li	a0,0
  70:	00000593          	li	a1,0
  74:	00000613          	li	a2,0
  78:	00000693          	li	a3,0
  7c:	00000713          	li	a4,0
  80:	00000793          	li	a5,0
  84:	00000813          	li	a6,0
  88:	00000893          	li	a7,0
  8c:	00000913          	li	s2,0
  90:	00000993          	li	s3,0
  94:	00000a13          	li	s4,0
  98:	00000a93          	li	s5,0
  9c:	00000b13          	li	s6,0
  a0:	00000b93          	li	s7,0
  a4:	00000c13          	li	s8,0
  a8:	00000c93          	li	s9,0
  ac:	00000d13          	li	s10,0
  b0:	00000d93          	li	s11,0
  b4:	00000e13          	li	t3,0
  b8:	00000e93          	li	t4,0
  bc:	00000f13          	li	t5,0
  c0:	00000f93          	li	t6,0
  c4:	f1402573          	csrr	a0,mhartid
  c8:	00051063          	bnez	a0,c8 <reset_vector+0x80>
  cc:	00000297          	auipc	t0,0x0
  d0:	01028293          	addi	t0,t0,16 # dc <reset_vector+0x94>
  d4:	30529073          	csrw	mtvec,t0
  d8:	18005073          	csrwi	satp,0
  dc:	00000297          	auipc	t0,0x0
  e0:	02428293          	addi	t0,t0,36 # 100 <reset_vector+0xb8>
  e4:	30529073          	csrw	mtvec,t0
  e8:	0010029b          	addiw	t0,zero,1
  ec:	03529293          	slli	t0,t0,0x35
  f0:	fff28293          	addi	t0,t0,-1
  f4:	3b029073          	csrw	pmpaddr0,t0
  f8:	01f00293          	li	t0,31
  fc:	3a029073          	csrw	pmpcfg0,t0
 100:	30405073          	csrwi	mie,0
 104:	00000297          	auipc	t0,0x0
 108:	01428293          	addi	t0,t0,20 # 118 <reset_vector+0xd0>
 10c:	30529073          	csrw	mtvec,t0
 110:	30205073          	csrwi	medeleg,0
 114:	30305073          	csrwi	mideleg,0
 118:	00000193          	li	gp,0
 11c:	00000297          	auipc	t0,0x0
 120:	ee828293          	addi	t0,t0,-280 # 4 <trap_vector>
 124:	30529073          	csrw	mtvec,t0
 128:	00100513          	li	a0,1
 12c:	01f51513          	slli	a0,a0,0x1f
 130:	00055c63          	bgez	a0,148 <reset_vector+0x100>
 134:	0ff0000f          	fence
 138:	00100193          	li	gp,1
 13c:	05d00893          	li	a7,93
 140:	00000513          	li	a0,0
 144:	00000073          	ecall
 148:	00000293          	li	t0,0
 14c:	00028a63          	beqz	t0,160 <reset_vector+0x118>
 150:	10529073          	csrw	stvec,t0
 154:	0000b2b7          	lui	t0,0xb
 158:	1092829b          	addiw	t0,t0,265
 15c:	30229073          	csrw	medeleg,t0
 160:	30005073          	csrwi	mstatus,0
 164:	00000297          	auipc	t0,0x0
 168:	01428293          	addi	t0,t0,20 # 178 <test_2>
 16c:	34129073          	csrw	mepc,t0
 170:	f1402573          	csrr	a0,mhartid
 174:	30200073          	mret

0000000000000178 <test_2>:
 178:	00200193          	li	gp,2
 17c:	00000093          	li	ra,0
 180:	00100113          	li	sp,1
 184:	00209663          	bne	ra,sp,190 <test_2+0x18>
 188:	2a301a63          	bne	zero,gp,43c <fail>
 18c:	00301663          	bne	zero,gp,198 <test_3>
 190:	fe209ee3          	bne	ra,sp,18c <test_2+0x14>
 194:	2a301463          	bne	zero,gp,43c <fail>

0000000000000198 <test_3>:
 198:	00300193          	li	gp,3
 19c:	00100093          	li	ra,1
 1a0:	00000113          	li	sp,0
 1a4:	00209663          	bne	ra,sp,1b0 <test_3+0x18>
 1a8:	28301a63          	bne	zero,gp,43c <fail>
 1ac:	00301663          	bne	zero,gp,1b8 <test_4>
 1b0:	fe209ee3          	bne	ra,sp,1ac <test_3+0x14>
 1b4:	28301463          	bne	zero,gp,43c <fail>

00000000000001b8 <test_4>:
 1b8:	00400193          	li	gp,4
 1bc:	fff00093          	li	ra,-1
 1c0:	00100113          	li	sp,1
 1c4:	00209663          	bne	ra,sp,1d0 <test_4+0x18>
 1c8:	26301a63          	bne	zero,gp,43c <fail>
 1cc:	00301663          	bne	zero,gp,1d8 <test_5>
 1d0:	fe209ee3          	bne	ra,sp,1cc <test_4+0x14>
 1d4:	26301463          	bne	zero,gp,43c <fail>

00000000000001d8 <test_5>:
 1d8:	00500193          	li	gp,5
 1dc:	00100093          	li	ra,1
 1e0:	fff00113          	li	sp,-1
 1e4:	00209663          	bne	ra,sp,1f0 <test_5+0x18>
 1e8:	24301a63          	bne	zero,gp,43c <fail>
 1ec:	00301663          	bne	zero,gp,1f8 <test_6>
 1f0:	fe209ee3          	bne	ra,sp,1ec <test_5+0x14>
 1f4:	24301463          	bne	zero,gp,43c <fail>

00000000000001f8 <test_6>:
 1f8:	00600193          	li	gp,6
 1fc:	00000093          	li	ra,0
 200:	00000113          	li	sp,0
 204:	00209463          	bne	ra,sp,20c <test_6+0x14>
 208:	00301463          	bne	zero,gp,210 <test_6+0x18>
 20c:	22301863          	bne	zero,gp,43c <fail>
 210:	fe209ee3          	bne	ra,sp,20c <test_6+0x14>

0000000000000214 <test_7>:
 214:	00700193          	li	gp,7
 218:	00100093          	li	ra,1
 21c:	00100113          	li	sp,1
 220:	00209463          	bne	ra,sp,228 <test_7+0x14>
 224:	00301463          	bne	zero,gp,22c <test_7+0x18>
 228:	20301a63          	bne	zero,gp,43c <fail>
 22c:	fe209ee3          	bne	ra,sp,228 <test_7+0x14>

0000000000000230 <test_8>:
 230:	00800193          	li	gp,8
 234:	fff00093          	li	ra,-1
 238:	fff00113          	li	sp,-1
 23c:	00209463          	bne	ra,sp,244 <test_8+0x14>
 240:	00301463          	bne	zero,gp,248 <test_8+0x18>
 244:	1e301c63          	bne	zero,gp,43c <fail>
 248:	fe209ee3          	bne	ra,sp,244 <test_8+0x14>

000000000000024c <test_9>:
 24c:	00900193          	li	gp,9
 250:	00000213          	li	tp,0
 254:	00000093          	li	ra,0
 258:	00000113          	li	sp,0
 25c:	1e209063          	bne	ra,sp,43c <fail>
 260:	00120213          	addi	tp,tp,1 # 1 <_start+0x1>
 264:	00200293          	li	t0,2
 268:	fe5216e3          	bne	tp,t0,254 <test_9+0x8>

000000000000026c <test_10>:
 26c:	00a00193          	li	gp,10
 270:	00000213          	li	tp,0
 274:	00000093          	li	ra,0
 278:	00000113          	li	sp,0
 27c:	00000013          	nop
 280:	1a209e63          	bne	ra,sp,43c <fail>
 284:	00120213          	addi	tp,tp,1 # 1 <_start+0x1>
 288:	00200293          	li	t0,2
 28c:	fe5214e3          	bne	tp,t0,274 <test_10+0x8>

0000000000000290 <test_11>:
 290:	00b00193          	li	gp,11
 294:	00000213          	li	tp,0
 298:	00000093          	li	ra,0
 29c:	00000113          	li	sp,0
 2a0:	00000013          	nop
 2a4:	00000013          	nop
 2a8:	18209a63          	bne	ra,sp,43c <fail>
 2ac:	00120213          	addi	tp,tp,1 # 1 <_start+0x1>
 2b0:	00200293          	li	t0,2
 2b4:	fe5212e3          	bne	tp,t0,298 <test_11+0x8>

00000000000002b8 <test_12>:
 2b8:	00c00193          	li	gp,12
 2bc:	00000213          	li	tp,0
 2c0:	00000093          	li	ra,0
 2c4:	00000013          	nop
 2c8:	00000113          	li	sp,0
 2cc:	16209863          	bne	ra,sp,43c <fail>
 2d0:	00120213          	addi	tp,tp,1 # 1 <_start+0x1>
 2d4:	00200293          	li	t0,2
 2d8:	fe5214e3          	bne	tp,t0,2c0 <test_12+0x8>

00000000000002dc <test_13>:
 2dc:	00d00193          	li	gp,13
 2e0:	00000213          	li	tp,0
 2e4:	00000093          	li	ra,0
 2e8:	00000013          	nop
 2ec:	00000113          	li	sp,0
 2f0:	00000013          	nop
 2f4:	14209463          	bne	ra,sp,43c <fail>
 2f8:	00120213          	addi	tp,tp,1 # 1 <_start+0x1>
 2fc:	00200293          	li	t0,2
 300:	fe5212e3          	bne	tp,t0,2e4 <test_13+0x8>

0000000000000304 <test_14>:
 304:	00e00193          	li	gp,14
 308:	00000213          	li	tp,0
 30c:	00000093          	li	ra,0
 310:	00000013          	nop
 314:	00000013          	nop
 318:	00000113          	li	sp,0
 31c:	12209063          	bne	ra,sp,43c <fail>
 320:	00120213          	addi	tp,tp,1 # 1 <_start+0x1>
 324:	00200293          	li	t0,2
 328:	fe5212e3          	bne	tp,t0,30c <test_14+0x8>

000000000000032c <test_15>:
 32c:	00f00193          	li	gp,15
 330:	00000213          	li	tp,0
 334:	00000093          	li	ra,0
 338:	00000113          	li	sp,0
 33c:	10209063          	bne	ra,sp,43c <fail>
 340:	00120213          	addi	tp,tp,1 # 1 <_start+0x1>
 344:	00200293          	li	t0,2
 348:	fe5216e3          	bne	tp,t0,334 <test_15+0x8>

000000000000034c <test_16>:
 34c:	01000193          	li	gp,16
 350:	00000213          	li	tp,0
 354:	00000093          	li	ra,0
 358:	00000113          	li	sp,0
 35c:	00000013          	nop
 360:	0c209e63          	bne	ra,sp,43c <fail>
 364:	00120213          	addi	tp,tp,1 # 1 <_start+0x1>
 368:	00200293          	li	t0,2
 36c:	fe5214e3          	bne	tp,t0,354 <test_16+0x8>

0000000000000370 <test_17>:
 370:	01100193          	li	gp,17
 374:	00000213          	li	tp,0
 378:	00000093          	li	ra,0
 37c:	00000113          	li	sp,0
 380:	00000013          	nop
 384:	00000013          	nop
 388:	0a209a63          	bne	ra,sp,43c <fail>
 38c:	00120213          	addi	tp,tp,1 # 1 <_start+0x1>
 390:	00200293          	li	t0,2
 394:	fe5212e3          	bne	tp,t0,378 <test_17+0x8>

0000000000000398 <test_18>:
 398:	01200193          	li	gp,18
 39c:	00000213          	li	tp,0
 3a0:	00000093          	li	ra,0
 3a4:	00000013          	nop
 3a8:	00000113          	li	sp,0
 3ac:	08209863          	bne	ra,sp,43c <fail>
 3b0:	00120213          	addi	tp,tp,1 # 1 <_start+0x1>
 3b4:	00200293          	li	t0,2
 3b8:	fe5214e3          	bne	tp,t0,3a0 <test_18+0x8>

00000000000003bc <test_19>:
 3bc:	01300193          	li	gp,19
 3c0:	00000213          	li	tp,0
 3c4:	00000093          	li	ra,0
 3c8:	00000013          	nop
 3cc:	00000113          	li	sp,0
 3d0:	00000013          	nop
 3d4:	06209463          	bne	ra,sp,43c <fail>
 3d8:	00120213          	addi	tp,tp,1 # 1 <_start+0x1>
 3dc:	00200293          	li	t0,2
 3e0:	fe5212e3          	bne	tp,t0,3c4 <test_19+0x8>

00000000000003e4 <test_20>:
 3e4:	01400193          	li	gp,20
 3e8:	00000213          	li	tp,0
 3ec:	00000093          	li	ra,0
 3f0:	00000013          	nop
 3f4:	00000013          	nop
 3f8:	00000113          	li	sp,0
 3fc:	04209063          	bne	ra,sp,43c <fail>
 400:	00120213          	addi	tp,tp,1 # 1 <_start+0x1>
 404:	00200293          	li	t0,2
 408:	fe5212e3          	bne	tp,t0,3ec <test_20+0x8>

000000000000040c <test_21>:
 40c:	00100093          	li	ra,1
 410:	00009a63          	bnez	ra,424 <test_21+0x18>
 414:	00108093          	addi	ra,ra,1
 418:	00108093          	addi	ra,ra,1
 41c:	00108093          	addi	ra,ra,1
 420:	00108093          	addi	ra,ra,1
 424:	00108093          	addi	ra,ra,1
 428:	00108093          	addi	ra,ra,1
 42c:	00300393          	li	t2,3
 430:	01500193          	li	gp,21
 434:	00709463          	bne	ra,t2,43c <fail>
 438:	02301063          	bne	zero,gp,458 <pass>

000000000000043c <fail>:
 43c:	0ff0000f          	fence
 440:	00018063          	beqz	gp,440 <fail+0x4>
 444:	00119193          	slli	gp,gp,0x1
 448:	0011e193          	ori	gp,gp,1
 44c:	05d00893          	li	a7,93
 450:	00018513          	mv	a0,gp
 454:	00000073          	ecall

0000000000000458 <pass>:
 458:	0ff0000f          	fence
 45c:	00100193          	li	gp,1
 460:	05d00893          	li	a7,93
 464:	00000513          	li	a0,0
 468:	00000073          	ecall
 46c:	c0001073          	unimp
 470:	0000                	unimp
 472:	0000                	unimp
 474:	0000                	unimp
 476:	0000                	unimp
 478:	0000                	unimp
 47a:	0000                	unimp
