
rv64mi-p-breakpoint:     file format elf64-littleriscv


Disassembly of section .text.init:

0000000000000000 <_start>:
   0:	04c0006f          	j	4c <reset_vector>

0000000000000004 <trap_vector>:
   4:	34202f73          	csrr	t5,mcause
   8:	00800f93          	li	t6,8
   c:	03ff0a63          	beq	t5,t6,40 <write_tohost>
  10:	00900f93          	li	t6,9
  14:	03ff0663          	beq	t5,t6,40 <write_tohost>
  18:	00b00f93          	li	t6,11
  1c:	03ff0263          	beq	t5,t6,40 <write_tohost>
  20:	00000f17          	auipc	t5,0x0
  24:	294f0f13          	addi	t5,t5,660 # 2b4 <mtvec_handler>
  28:	000f0463          	beqz	t5,30 <trap_vector+0x2c>
  2c:	000f0067          	jr	t5
  30:	34202f73          	csrr	t5,mcause
  34:	000f5463          	bgez	t5,3c <handle_exception>
  38:	0040006f          	j	3c <handle_exception>

000000000000003c <handle_exception>:
  3c:	5391e193          	ori	gp,gp,1337

0000000000000040 <write_tohost>:
  40:	00001f17          	auipc	t5,0x1
  44:	fc3f2023          	sw	gp,-64(t5) # 1000 <tohost>
  48:	ff9ff06f          	j	40 <write_tohost>

000000000000004c <reset_vector>:
  4c:	00000093          	li	ra,0
  50:	00000113          	li	sp,0
  54:	00000193          	li	gp,0
  58:	00000213          	li	tp,0
  5c:	00000293          	li	t0,0
  60:	00000313          	li	t1,0
  64:	00000393          	li	t2,0
  68:	00000413          	li	s0,0
  6c:	00000493          	li	s1,0
  70:	00000513          	li	a0,0
  74:	00000593          	li	a1,0
  78:	00000613          	li	a2,0
  7c:	00000693          	li	a3,0
  80:	00000713          	li	a4,0
  84:	00000793          	li	a5,0
  88:	00000813          	li	a6,0
  8c:	00000893          	li	a7,0
  90:	00000913          	li	s2,0
  94:	00000993          	li	s3,0
  98:	00000a13          	li	s4,0
  9c:	00000a93          	li	s5,0
  a0:	00000b13          	li	s6,0
  a4:	00000b93          	li	s7,0
  a8:	00000c13          	li	s8,0
  ac:	00000c93          	li	s9,0
  b0:	00000d13          	li	s10,0
  b4:	00000d93          	li	s11,0
  b8:	00000e13          	li	t3,0
  bc:	00000e93          	li	t4,0
  c0:	00000f13          	li	t5,0
  c4:	00000f93          	li	t6,0
  c8:	f1402573          	csrr	a0,mhartid
  cc:	00051063          	bnez	a0,cc <reset_vector+0x80>
  d0:	00000297          	auipc	t0,0x0
  d4:	01028293          	addi	t0,t0,16 # e0 <reset_vector+0x94>
  d8:	30529073          	csrw	mtvec,t0
  dc:	18005073          	csrwi	satp,0
  e0:	00000297          	auipc	t0,0x0
  e4:	02428293          	addi	t0,t0,36 # 104 <reset_vector+0xb8>
  e8:	30529073          	csrw	mtvec,t0
  ec:	0010029b          	addiw	t0,zero,1
  f0:	03529293          	slli	t0,t0,0x35
  f4:	fff28293          	addi	t0,t0,-1
  f8:	3b029073          	csrw	pmpaddr0,t0
  fc:	01f00293          	li	t0,31
 100:	3a029073          	csrw	pmpcfg0,t0
 104:	30405073          	csrwi	mie,0
 108:	00000297          	auipc	t0,0x0
 10c:	01428293          	addi	t0,t0,20 # 11c <reset_vector+0xd0>
 110:	30529073          	csrw	mtvec,t0
 114:	30205073          	csrwi	medeleg,0
 118:	30305073          	csrwi	mideleg,0
 11c:	00000193          	li	gp,0
 120:	00000297          	auipc	t0,0x0
 124:	ee428293          	addi	t0,t0,-284 # 4 <trap_vector>
 128:	30529073          	csrw	mtvec,t0
 12c:	00100513          	li	a0,1
 130:	01f51513          	slli	a0,a0,0x1f
 134:	00055c63          	bgez	a0,14c <reset_vector+0x100>
 138:	0ff0000f          	fence
 13c:	00100193          	li	gp,1
 140:	05d00893          	li	a7,93
 144:	00000513          	li	a0,0
 148:	00000073          	ecall
 14c:	00000293          	li	t0,0
 150:	00028a63          	beqz	t0,164 <reset_vector+0x118>
 154:	10529073          	csrw	stvec,t0
 158:	0000b2b7          	lui	t0,0xb
 15c:	1092829b          	addiw	t0,t0,265
 160:	30229073          	csrw	medeleg,t0
 164:	30005073          	csrwi	mstatus,0
 168:	00002537          	lui	a0,0x2
 16c:	8005051b          	addiw	a0,a0,-2048
 170:	30052073          	csrs	mstatus,a0
 174:	00000297          	auipc	t0,0x0
 178:	01428293          	addi	t0,t0,20 # 188 <reset_vector+0x13c>
 17c:	34129073          	csrw	mepc,t0
 180:	f1402573          	csrr	a0,mhartid
 184:	30200073          	mret
 188:	00200193          	li	gp,2
 18c:	7a001073          	csrw	tselect,zero
 190:	7a0025f3          	csrr	a1,tselect
 194:	10b01663          	bne	zero,a1,2a0 <pass>
 198:	00000617          	auipc	a2,0x0
 19c:	02460613          	addi	a2,a2,36 # 1bc <reset_vector+0x170>
 1a0:	7a261073          	csrw	tdata2,a2
 1a4:	0010051b          	addiw	a0,zero,1
 1a8:	03d51513          	slli	a0,a0,0x3d
 1ac:	04450513          	addi	a0,a0,68 # 2044 <_end+0x34>
 1b0:	7a151073          	csrw	tdata1,a0
 1b4:	7a1025f3          	csrr	a1,tdata1
 1b8:	00b51863          	bne	a0,a1,1c8 <reset_vector+0x17c>
 1bc:	0c000463          	beqz	zero,284 <fail>
 1c0:	00300193          	li	gp,3
 1c4:	00062503          	lw	a0,0(a2)
 1c8:	00400193          	li	gp,4
 1cc:	0010051b          	addiw	a0,zero,1
 1d0:	03d51513          	slli	a0,a0,0x3d
 1d4:	04150513          	addi	a0,a0,65
 1d8:	7a151073          	csrw	tdata1,a0
 1dc:	7a1025f3          	csrr	a1,tdata1
 1e0:	02b51063          	bne	a0,a1,200 <reset_vector+0x1b4>
 1e4:	00002617          	auipc	a2,0x2
 1e8:	e1c60613          	addi	a2,a2,-484 # 2000 <begin_signature>
 1ec:	7a261073          	csrw	tdata2,a2
 1f0:	00062603          	lw	a2,0(a2)
 1f4:	08060863          	beqz	a2,284 <fail>
 1f8:	00500193          	li	gp,5
 1fc:	00062023          	sw	zero,0(a2)
 200:	00600193          	li	gp,6
 204:	0010051b          	addiw	a0,zero,1
 208:	03d51513          	slli	a0,a0,0x3d
 20c:	04250513          	addi	a0,a0,66
 210:	7a151073          	csrw	tdata1,a0
 214:	7a1025f3          	csrr	a1,tdata1
 218:	06b51463          	bne	a0,a1,280 <reset_vector+0x234>
 21c:	00c62023          	sw	a2,0(a2)
 220:	00700193          	li	gp,7
 224:	00062603          	lw	a2,0(a2)
 228:	04061e63          	bnez	a2,284 <fail>
 22c:	00100513          	li	a0,1
 230:	7a051073          	csrw	tselect,a0
 234:	7a0025f3          	csrr	a1,tselect
 238:	06b51463          	bne	a0,a1,2a0 <pass>
 23c:	0010051b          	addiw	a0,zero,1
 240:	03d51513          	slli	a0,a0,0x3d
 244:	04150513          	addi	a0,a0,65
 248:	7a151073          	csrw	tdata1,a0
 24c:	00002697          	auipc	a3,0x2
 250:	db868693          	addi	a3,a3,-584 # 2004 <data2>
 254:	7a269073          	csrw	tdata2,a3
 258:	00800193          	li	gp,8
 25c:	0006a683          	lw	a3,0(a3)
 260:	02068263          	beqz	a3,284 <fail>
 264:	00a00193          	li	gp,10
 268:	00002617          	auipc	a2,0x2
 26c:	d9860613          	addi	a2,a2,-616 # 2000 <begin_signature>
 270:	00c62023          	sw	a2,0(a2)
 274:	00b00193          	li	gp,11
 278:	00062603          	lw	a2,0(a2)
 27c:	00061463          	bnez	a2,284 <fail>
 280:	02301063          	bne	zero,gp,2a0 <pass>

0000000000000284 <fail>:
 284:	0ff0000f          	fence
 288:	00018063          	beqz	gp,288 <fail+0x4>
 28c:	00119193          	slli	gp,gp,0x1
 290:	0011e193          	ori	gp,gp,1
 294:	05d00893          	li	a7,93
 298:	00018513          	mv	a0,gp
 29c:	00000073          	ecall

00000000000002a0 <pass>:
 2a0:	0ff0000f          	fence
 2a4:	00100193          	li	gp,1
 2a8:	05d00893          	li	a7,93
 2ac:	00000513          	li	a0,0
 2b0:	00000073          	ecall

00000000000002b4 <mtvec_handler>:
 2b4:	0011f293          	andi	t0,gp,1
 2b8:	fc0296e3          	bnez	t0,284 <fail>
 2bc:	00300293          	li	t0,3
 2c0:	34202373          	csrr	t1,mcause
 2c4:	fc6290e3          	bne	t0,t1,284 <fail>
 2c8:	341022f3          	csrr	t0,mepc
 2cc:	00428293          	addi	t0,t0,4
 2d0:	34129073          	csrw	mepc,t0
 2d4:	30200073          	mret
 2d8:	c0001073          	unimp
 2dc:	0000                	unimp
 2de:	0000                	unimp
 2e0:	0000                	unimp
 2e2:	0000                	unimp
 2e4:	0000                	unimp
 2e6:	0000                	unimp
 2e8:	0000                	unimp
 2ea:	0000                	unimp
 2ec:	0000                	unimp
 2ee:	0000                	unimp
 2f0:	0000                	unimp
 2f2:	0000                	unimp
 2f4:	0000                	unimp
 2f6:	0000                	unimp
 2f8:	0000                	unimp
 2fa:	0000                	unimp
 2fc:	0000                	unimp
 2fe:	0000                	unimp
