
rv64ud-p-fcmp:     file format elf64-littleriscv


Disassembly of section .text.init:

0000000000000000 <_start>:
   0:	0480006f          	j	48 <reset_vector>

0000000000000004 <trap_vector>:
   4:	34202f73          	csrr	t5,mcause
   8:	00800f93          	li	t6,8
   c:	03ff0863          	beq	t5,t6,3c <write_tohost>
  10:	00900f93          	li	t6,9
  14:	03ff0463          	beq	t5,t6,3c <write_tohost>
  18:	00b00f93          	li	t6,11
  1c:	03ff0063          	beq	t5,t6,3c <write_tohost>
  20:	00000f13          	li	t5,0
  24:	000f0463          	beqz	t5,2c <trap_vector+0x28>
  28:	000f0067          	jr	t5
  2c:	34202f73          	csrr	t5,mcause
  30:	000f5463          	bgez	t5,38 <handle_exception>
  34:	0040006f          	j	38 <handle_exception>

0000000000000038 <handle_exception>:
  38:	5391e193          	ori	gp,gp,1337

000000000000003c <write_tohost>:
  3c:	00001f17          	auipc	t5,0x1
  40:	fc3f2223          	sw	gp,-60(t5) # 1000 <tohost>
  44:	ff9ff06f          	j	3c <write_tohost>

0000000000000048 <reset_vector>:
  48:	00000093          	li	ra,0
  4c:	00000113          	li	sp,0
  50:	00000193          	li	gp,0
  54:	00000213          	li	tp,0
  58:	00000293          	li	t0,0
  5c:	00000313          	li	t1,0
  60:	00000393          	li	t2,0
  64:	00000413          	li	s0,0
  68:	00000493          	li	s1,0
  6c:	00000513          	li	a0,0
  70:	00000593          	li	a1,0
  74:	00000613          	li	a2,0
  78:	00000693          	li	a3,0
  7c:	00000713          	li	a4,0
  80:	00000793          	li	a5,0
  84:	00000813          	li	a6,0
  88:	00000893          	li	a7,0
  8c:	00000913          	li	s2,0
  90:	00000993          	li	s3,0
  94:	00000a13          	li	s4,0
  98:	00000a93          	li	s5,0
  9c:	00000b13          	li	s6,0
  a0:	00000b93          	li	s7,0
  a4:	00000c13          	li	s8,0
  a8:	00000c93          	li	s9,0
  ac:	00000d13          	li	s10,0
  b0:	00000d93          	li	s11,0
  b4:	00000e13          	li	t3,0
  b8:	00000e93          	li	t4,0
  bc:	00000f13          	li	t5,0
  c0:	00000f93          	li	t6,0
  c4:	f1402573          	csrr	a0,mhartid
  c8:	00051063          	bnez	a0,c8 <reset_vector+0x80>
  cc:	00000297          	auipc	t0,0x0
  d0:	01028293          	addi	t0,t0,16 # dc <reset_vector+0x94>
  d4:	30529073          	csrw	mtvec,t0
  d8:	18005073          	csrwi	satp,0
  dc:	00000297          	auipc	t0,0x0
  e0:	02428293          	addi	t0,t0,36 # 100 <reset_vector+0xb8>
  e4:	30529073          	csrw	mtvec,t0
  e8:	0010029b          	addiw	t0,zero,1
  ec:	03529293          	slli	t0,t0,0x35
  f0:	fff28293          	addi	t0,t0,-1
  f4:	3b029073          	csrw	pmpaddr0,t0
  f8:	01f00293          	li	t0,31
  fc:	3a029073          	csrw	pmpcfg0,t0
 100:	30405073          	csrwi	mie,0
 104:	00000297          	auipc	t0,0x0
 108:	01428293          	addi	t0,t0,20 # 118 <reset_vector+0xd0>
 10c:	30529073          	csrw	mtvec,t0
 110:	30205073          	csrwi	medeleg,0
 114:	30305073          	csrwi	mideleg,0
 118:	00000193          	li	gp,0
 11c:	00000297          	auipc	t0,0x0
 120:	ee828293          	addi	t0,t0,-280 # 4 <trap_vector>
 124:	30529073          	csrw	mtvec,t0
 128:	00100513          	li	a0,1
 12c:	01f51513          	slli	a0,a0,0x1f
 130:	00055c63          	bgez	a0,148 <reset_vector+0x100>
 134:	0ff0000f          	fence
 138:	00100193          	li	gp,1
 13c:	05d00893          	li	a7,93
 140:	00000513          	li	a0,0
 144:	00000073          	ecall
 148:	00000293          	li	t0,0
 14c:	00028a63          	beqz	t0,160 <reset_vector+0x118>
 150:	10529073          	csrw	stvec,t0
 154:	0000b2b7          	lui	t0,0xb
 158:	1092829b          	addiw	t0,t0,265
 15c:	30229073          	csrw	medeleg,t0
 160:	30005073          	csrwi	mstatus,0
 164:	00002537          	lui	a0,0x2
 168:	30052073          	csrs	mstatus,a0
 16c:	00305073          	csrwi	fcsr,0
 170:	00000297          	auipc	t0,0x0
 174:	01428293          	addi	t0,t0,20 # 184 <test_2>
 178:	34129073          	csrw	mepc,t0
 17c:	f1402573          	csrr	a0,mhartid
 180:	30200073          	mret

0000000000000184 <test_2>:
 184:	00200193          	li	gp,2
 188:	00002517          	auipc	a0,0x2
 18c:	e7850513          	addi	a0,a0,-392 # 2000 <test_2_data>
 190:	00053007          	fld	ft0,0(a0)
 194:	00853087          	fld	ft1,8(a0)
 198:	01053107          	fld	ft2,16(a0)
 19c:	01853683          	ld	a3,24(a0)
 1a0:	a2102553          	feq.d	a0,ft0,ft1
 1a4:	001015f3          	fsflags	a1,zero
 1a8:	00000613          	li	a2,0
 1ac:	2ad51663          	bne	a0,a3,458 <fail>
 1b0:	2ac59463          	bne	a1,a2,458 <fail>

00000000000001b4 <test_3>:
 1b4:	00300193          	li	gp,3
 1b8:	00002517          	auipc	a0,0x2
 1bc:	e6850513          	addi	a0,a0,-408 # 2020 <test_3_data>
 1c0:	00053007          	fld	ft0,0(a0)
 1c4:	00853087          	fld	ft1,8(a0)
 1c8:	01053107          	fld	ft2,16(a0)
 1cc:	01853683          	ld	a3,24(a0)
 1d0:	a2100553          	fle.d	a0,ft0,ft1
 1d4:	001015f3          	fsflags	a1,zero
 1d8:	00000613          	li	a2,0
 1dc:	26d51e63          	bne	a0,a3,458 <fail>
 1e0:	26c59c63          	bne	a1,a2,458 <fail>

00000000000001e4 <test_4>:
 1e4:	00400193          	li	gp,4
 1e8:	00002517          	auipc	a0,0x2
 1ec:	e5850513          	addi	a0,a0,-424 # 2040 <test_4_data>
 1f0:	00053007          	fld	ft0,0(a0)
 1f4:	00853087          	fld	ft1,8(a0)
 1f8:	01053107          	fld	ft2,16(a0)
 1fc:	01853683          	ld	a3,24(a0)
 200:	a2101553          	flt.d	a0,ft0,ft1
 204:	001015f3          	fsflags	a1,zero
 208:	00000613          	li	a2,0
 20c:	24d51663          	bne	a0,a3,458 <fail>
 210:	24c59463          	bne	a1,a2,458 <fail>

0000000000000214 <test_5>:
 214:	00500193          	li	gp,5
 218:	00002517          	auipc	a0,0x2
 21c:	e4850513          	addi	a0,a0,-440 # 2060 <test_5_data>
 220:	00053007          	fld	ft0,0(a0)
 224:	00853087          	fld	ft1,8(a0)
 228:	01053107          	fld	ft2,16(a0)
 22c:	01853683          	ld	a3,24(a0)
 230:	a2102553          	feq.d	a0,ft0,ft1
 234:	001015f3          	fsflags	a1,zero
 238:	00000613          	li	a2,0
 23c:	20d51e63          	bne	a0,a3,458 <fail>
 240:	20c59c63          	bne	a1,a2,458 <fail>

0000000000000244 <test_6>:
 244:	00600193          	li	gp,6
 248:	00002517          	auipc	a0,0x2
 24c:	e3850513          	addi	a0,a0,-456 # 2080 <test_6_data>
 250:	00053007          	fld	ft0,0(a0)
 254:	00853087          	fld	ft1,8(a0)
 258:	01053107          	fld	ft2,16(a0)
 25c:	01853683          	ld	a3,24(a0)
 260:	a2100553          	fle.d	a0,ft0,ft1
 264:	001015f3          	fsflags	a1,zero
 268:	00000613          	li	a2,0
 26c:	1ed51663          	bne	a0,a3,458 <fail>
 270:	1ec59463          	bne	a1,a2,458 <fail>

0000000000000274 <test_7>:
 274:	00700193          	li	gp,7
 278:	00002517          	auipc	a0,0x2
 27c:	e2850513          	addi	a0,a0,-472 # 20a0 <test_7_data>
 280:	00053007          	fld	ft0,0(a0)
 284:	00853087          	fld	ft1,8(a0)
 288:	01053107          	fld	ft2,16(a0)
 28c:	01853683          	ld	a3,24(a0)
 290:	a2101553          	flt.d	a0,ft0,ft1
 294:	001015f3          	fsflags	a1,zero
 298:	00000613          	li	a2,0
 29c:	1ad51e63          	bne	a0,a3,458 <fail>
 2a0:	1ac59c63          	bne	a1,a2,458 <fail>

00000000000002a4 <test_8>:
 2a4:	00800193          	li	gp,8
 2a8:	00002517          	auipc	a0,0x2
 2ac:	e1850513          	addi	a0,a0,-488 # 20c0 <test_8_data>
 2b0:	00053007          	fld	ft0,0(a0)
 2b4:	00853087          	fld	ft1,8(a0)
 2b8:	01053107          	fld	ft2,16(a0)
 2bc:	01853683          	ld	a3,24(a0)
 2c0:	a2102553          	feq.d	a0,ft0,ft1
 2c4:	001015f3          	fsflags	a1,zero
 2c8:	00000613          	li	a2,0
 2cc:	18d51663          	bne	a0,a3,458 <fail>
 2d0:	18c59463          	bne	a1,a2,458 <fail>

00000000000002d4 <test_9>:
 2d4:	00900193          	li	gp,9
 2d8:	00002517          	auipc	a0,0x2
 2dc:	e0850513          	addi	a0,a0,-504 # 20e0 <test_9_data>
 2e0:	00053007          	fld	ft0,0(a0)
 2e4:	00853087          	fld	ft1,8(a0)
 2e8:	01053107          	fld	ft2,16(a0)
 2ec:	01853683          	ld	a3,24(a0)
 2f0:	a2102553          	feq.d	a0,ft0,ft1
 2f4:	001015f3          	fsflags	a1,zero
 2f8:	00000613          	li	a2,0
 2fc:	14d51e63          	bne	a0,a3,458 <fail>
 300:	14c59c63          	bne	a1,a2,458 <fail>

0000000000000304 <test_10>:
 304:	00a00193          	li	gp,10
 308:	00002517          	auipc	a0,0x2
 30c:	df850513          	addi	a0,a0,-520 # 2100 <test_10_data>
 310:	00053007          	fld	ft0,0(a0)
 314:	00853087          	fld	ft1,8(a0)
 318:	01053107          	fld	ft2,16(a0)
 31c:	01853683          	ld	a3,24(a0)
 320:	a2102553          	feq.d	a0,ft0,ft1
 324:	001015f3          	fsflags	a1,zero
 328:	01000613          	li	a2,16
 32c:	12d51663          	bne	a0,a3,458 <fail>
 330:	12c59463          	bne	a1,a2,458 <fail>

0000000000000334 <test_11>:
 334:	00b00193          	li	gp,11
 338:	00002517          	auipc	a0,0x2
 33c:	de850513          	addi	a0,a0,-536 # 2120 <test_11_data>
 340:	00053007          	fld	ft0,0(a0)
 344:	00853087          	fld	ft1,8(a0)
 348:	01053107          	fld	ft2,16(a0)
 34c:	01853683          	ld	a3,24(a0)
 350:	a2101553          	flt.d	a0,ft0,ft1
 354:	001015f3          	fsflags	a1,zero
 358:	01000613          	li	a2,16
 35c:	0ed51e63          	bne	a0,a3,458 <fail>
 360:	0ec59c63          	bne	a1,a2,458 <fail>

0000000000000364 <test_12>:
 364:	00c00193          	li	gp,12
 368:	00002517          	auipc	a0,0x2
 36c:	dd850513          	addi	a0,a0,-552 # 2140 <test_12_data>
 370:	00053007          	fld	ft0,0(a0)
 374:	00853087          	fld	ft1,8(a0)
 378:	01053107          	fld	ft2,16(a0)
 37c:	01853683          	ld	a3,24(a0)
 380:	a2101553          	flt.d	a0,ft0,ft1
 384:	001015f3          	fsflags	a1,zero
 388:	01000613          	li	a2,16
 38c:	0cd51663          	bne	a0,a3,458 <fail>
 390:	0cc59463          	bne	a1,a2,458 <fail>

0000000000000394 <test_13>:
 394:	00d00193          	li	gp,13
 398:	00002517          	auipc	a0,0x2
 39c:	dc850513          	addi	a0,a0,-568 # 2160 <test_13_data>
 3a0:	00053007          	fld	ft0,0(a0)
 3a4:	00853087          	fld	ft1,8(a0)
 3a8:	01053107          	fld	ft2,16(a0)
 3ac:	01853683          	ld	a3,24(a0)
 3b0:	a2101553          	flt.d	a0,ft0,ft1
 3b4:	001015f3          	fsflags	a1,zero
 3b8:	01000613          	li	a2,16
 3bc:	08d51e63          	bne	a0,a3,458 <fail>
 3c0:	08c59c63          	bne	a1,a2,458 <fail>

00000000000003c4 <test_14>:
 3c4:	00e00193          	li	gp,14
 3c8:	00002517          	auipc	a0,0x2
 3cc:	db850513          	addi	a0,a0,-584 # 2180 <test_14_data>
 3d0:	00053007          	fld	ft0,0(a0)
 3d4:	00853087          	fld	ft1,8(a0)
 3d8:	01053107          	fld	ft2,16(a0)
 3dc:	01853683          	ld	a3,24(a0)
 3e0:	a2100553          	fle.d	a0,ft0,ft1
 3e4:	001015f3          	fsflags	a1,zero
 3e8:	01000613          	li	a2,16
 3ec:	06d51663          	bne	a0,a3,458 <fail>
 3f0:	06c59463          	bne	a1,a2,458 <fail>

00000000000003f4 <test_15>:
 3f4:	00f00193          	li	gp,15
 3f8:	00002517          	auipc	a0,0x2
 3fc:	da850513          	addi	a0,a0,-600 # 21a0 <test_15_data>
 400:	00053007          	fld	ft0,0(a0)
 404:	00853087          	fld	ft1,8(a0)
 408:	01053107          	fld	ft2,16(a0)
 40c:	01853683          	ld	a3,24(a0)
 410:	a2100553          	fle.d	a0,ft0,ft1
 414:	001015f3          	fsflags	a1,zero
 418:	01000613          	li	a2,16
 41c:	02d51e63          	bne	a0,a3,458 <fail>
 420:	02c59c63          	bne	a1,a2,458 <fail>

0000000000000424 <test_16>:
 424:	01000193          	li	gp,16
 428:	00002517          	auipc	a0,0x2
 42c:	d9850513          	addi	a0,a0,-616 # 21c0 <test_16_data>
 430:	00053007          	fld	ft0,0(a0)
 434:	00853087          	fld	ft1,8(a0)
 438:	01053107          	fld	ft2,16(a0)
 43c:	01853683          	ld	a3,24(a0)
 440:	a2100553          	fle.d	a0,ft0,ft1
 444:	001015f3          	fsflags	a1,zero
 448:	01000613          	li	a2,16
 44c:	00d51663          	bne	a0,a3,458 <fail>
 450:	00c59463          	bne	a1,a2,458 <fail>
 454:	02301063          	bne	zero,gp,474 <pass>

0000000000000458 <fail>:
 458:	0ff0000f          	fence
 45c:	00018063          	beqz	gp,45c <fail+0x4>
 460:	00119193          	slli	gp,gp,0x1
 464:	0011e193          	ori	gp,gp,1
 468:	05d00893          	li	a7,93
 46c:	00018513          	mv	a0,gp
 470:	00000073          	ecall

0000000000000474 <pass>:
 474:	0ff0000f          	fence
 478:	00100193          	li	gp,1
 47c:	05d00893          	li	a7,93
 480:	00000513          	li	a0,0
 484:	00000073          	ecall
 488:	c0001073          	unimp
 48c:	0000                	unimp
 48e:	0000                	unimp
 490:	0000                	unimp
 492:	0000                	unimp
 494:	0000                	unimp
 496:	0000                	unimp
 498:	0000                	unimp
 49a:	0000                	unimp
 49c:	0000                	unimp
 49e:	0000                	unimp
 4a0:	0000                	unimp
 4a2:	0000                	unimp
 4a4:	0000                	unimp
 4a6:	0000                	unimp
 4a8:	0000                	unimp
 4aa:	0000                	unimp
 4ac:	0000                	unimp
 4ae:	0000                	unimp
 4b0:	0000                	unimp
 4b2:	0000                	unimp
 4b4:	0000                	unimp
 4b6:	0000                	unimp
 4b8:	0000                	unimp
 4ba:	0000                	unimp
