
rv64ui-p-addiw:     file format elf64-littleriscv


Disassembly of section .text.init:

0000000000000000 <_start>:
   0:	0480006f          	j	48 <reset_vector>

0000000000000004 <trap_vector>:
   4:	34202f73          	csrr	t5,mcause
   8:	00800f93          	li	t6,8
   c:	03ff0863          	beq	t5,t6,3c <write_tohost>
  10:	00900f93          	li	t6,9
  14:	03ff0463          	beq	t5,t6,3c <write_tohost>
  18:	00b00f93          	li	t6,11
  1c:	03ff0063          	beq	t5,t6,3c <write_tohost>
  20:	00000f13          	li	t5,0
  24:	000f0463          	beqz	t5,2c <trap_vector+0x28>
  28:	000f0067          	jr	t5
  2c:	34202f73          	csrr	t5,mcause
  30:	000f5463          	bgez	t5,38 <handle_exception>
  34:	0040006f          	j	38 <handle_exception>

0000000000000038 <handle_exception>:
  38:	5391e193          	ori	gp,gp,1337

000000000000003c <write_tohost>:
  3c:	00001f17          	auipc	t5,0x1
  40:	fc3f2223          	sw	gp,-60(t5) # 1000 <tohost>
  44:	ff9ff06f          	j	3c <write_tohost>

0000000000000048 <reset_vector>:
  48:	00000093          	li	ra,0
  4c:	00000113          	li	sp,0
  50:	00000193          	li	gp,0
  54:	00000213          	li	tp,0
  58:	00000293          	li	t0,0
  5c:	00000313          	li	t1,0
  60:	00000393          	li	t2,0
  64:	00000413          	li	s0,0
  68:	00000493          	li	s1,0
  6c:	00000513          	li	a0,0
  70:	00000593          	li	a1,0
  74:	00000613          	li	a2,0
  78:	00000693          	li	a3,0
  7c:	00000713          	li	a4,0
  80:	00000793          	li	a5,0
  84:	00000813          	li	a6,0
  88:	00000893          	li	a7,0
  8c:	00000913          	li	s2,0
  90:	00000993          	li	s3,0
  94:	00000a13          	li	s4,0
  98:	00000a93          	li	s5,0
  9c:	00000b13          	li	s6,0
  a0:	00000b93          	li	s7,0
  a4:	00000c13          	li	s8,0
  a8:	00000c93          	li	s9,0
  ac:	00000d13          	li	s10,0
  b0:	00000d93          	li	s11,0
  b4:	00000e13          	li	t3,0
  b8:	00000e93          	li	t4,0
  bc:	00000f13          	li	t5,0
  c0:	00000f93          	li	t6,0
  c4:	f1402573          	csrr	a0,mhartid
  c8:	00051063          	bnez	a0,c8 <reset_vector+0x80>
  cc:	00000297          	auipc	t0,0x0
  d0:	01028293          	addi	t0,t0,16 # dc <reset_vector+0x94>
  d4:	30529073          	csrw	mtvec,t0
  d8:	18005073          	csrwi	satp,0
  dc:	00000297          	auipc	t0,0x0
  e0:	02428293          	addi	t0,t0,36 # 100 <reset_vector+0xb8>
  e4:	30529073          	csrw	mtvec,t0
  e8:	0010029b          	addiw	t0,zero,1
  ec:	03529293          	slli	t0,t0,0x35
  f0:	fff28293          	addi	t0,t0,-1
  f4:	3b029073          	csrw	pmpaddr0,t0
  f8:	01f00293          	li	t0,31
  fc:	3a029073          	csrw	pmpcfg0,t0
 100:	30405073          	csrwi	mie,0
 104:	00000297          	auipc	t0,0x0
 108:	01428293          	addi	t0,t0,20 # 118 <reset_vector+0xd0>
 10c:	30529073          	csrw	mtvec,t0
 110:	30205073          	csrwi	medeleg,0
 114:	30305073          	csrwi	mideleg,0
 118:	00000193          	li	gp,0
 11c:	00000297          	auipc	t0,0x0
 120:	ee828293          	addi	t0,t0,-280 # 4 <trap_vector>
 124:	30529073          	csrw	mtvec,t0
 128:	00100513          	li	a0,1
 12c:	01f51513          	slli	a0,a0,0x1f
 130:	00055c63          	bgez	a0,148 <reset_vector+0x100>
 134:	0ff0000f          	fence
 138:	00100193          	li	gp,1
 13c:	05d00893          	li	a7,93
 140:	00000513          	li	a0,0
 144:	00000073          	ecall
 148:	00000293          	li	t0,0
 14c:	00028a63          	beqz	t0,160 <reset_vector+0x118>
 150:	10529073          	csrw	stvec,t0
 154:	0000b2b7          	lui	t0,0xb
 158:	1092829b          	addiw	t0,t0,265
 15c:	30229073          	csrw	medeleg,t0
 160:	30005073          	csrwi	mstatus,0
 164:	00000297          	auipc	t0,0x0
 168:	01428293          	addi	t0,t0,20 # 178 <test_2>
 16c:	34129073          	csrw	mepc,t0
 170:	f1402573          	csrr	a0,mhartid
 174:	30200073          	mret

0000000000000178 <test_2>:
 178:	00000093          	li	ra,0
 17c:	0000871b          	sext.w	a4,ra
 180:	00000393          	li	t2,0
 184:	00200193          	li	gp,2
 188:	26771c63          	bne	a4,t2,400 <fail>

000000000000018c <test_3>:
 18c:	00100093          	li	ra,1
 190:	0010871b          	addiw	a4,ra,1
 194:	00200393          	li	t2,2
 198:	00300193          	li	gp,3
 19c:	26771263          	bne	a4,t2,400 <fail>

00000000000001a0 <test_4>:
 1a0:	00300093          	li	ra,3
 1a4:	0070871b          	addiw	a4,ra,7
 1a8:	00a00393          	li	t2,10
 1ac:	00400193          	li	gp,4
 1b0:	24771863          	bne	a4,t2,400 <fail>

00000000000001b4 <test_5>:
 1b4:	00000093          	li	ra,0
 1b8:	8000871b          	addiw	a4,ra,-2048
 1bc:	80000393          	li	t2,-2048
 1c0:	00500193          	li	gp,5
 1c4:	22771e63          	bne	a4,t2,400 <fail>

00000000000001c8 <test_6>:
 1c8:	800000b7          	lui	ra,0x80000
 1cc:	0000871b          	sext.w	a4,ra
 1d0:	800003b7          	lui	t2,0x80000
 1d4:	00600193          	li	gp,6
 1d8:	22771463          	bne	a4,t2,400 <fail>

00000000000001dc <test_7>:
 1dc:	800000b7          	lui	ra,0x80000
 1e0:	8000871b          	addiw	a4,ra,-2048
 1e4:	800003b7          	lui	t2,0x80000
 1e8:	8003839b          	addiw	t2,t2,-2048
 1ec:	00700193          	li	gp,7
 1f0:	20771863          	bne	a4,t2,400 <fail>

00000000000001f4 <test_8>:
 1f4:	00000093          	li	ra,0
 1f8:	7ff0871b          	addiw	a4,ra,2047
 1fc:	7ff00393          	li	t2,2047
 200:	00800193          	li	gp,8
 204:	1e771e63          	bne	a4,t2,400 <fail>

0000000000000208 <test_9>:
 208:	800000b7          	lui	ra,0x80000
 20c:	fff0809b          	addiw	ra,ra,-1
 210:	0000871b          	sext.w	a4,ra
 214:	800003b7          	lui	t2,0x80000
 218:	fff3839b          	addiw	t2,t2,-1
 21c:	00900193          	li	gp,9
 220:	1e771063          	bne	a4,t2,400 <fail>

0000000000000224 <test_10>:
 224:	800000b7          	lui	ra,0x80000
 228:	fff0809b          	addiw	ra,ra,-1
 22c:	7ff0871b          	addiw	a4,ra,2047
 230:	800003b7          	lui	t2,0x80000
 234:	7fe3839b          	addiw	t2,t2,2046
 238:	00a00193          	li	gp,10
 23c:	1c771263          	bne	a4,t2,400 <fail>

0000000000000240 <test_11>:
 240:	800000b7          	lui	ra,0x80000
 244:	7ff0871b          	addiw	a4,ra,2047
 248:	800003b7          	lui	t2,0x80000
 24c:	7ff3839b          	addiw	t2,t2,2047
 250:	00b00193          	li	gp,11
 254:	1a771663          	bne	a4,t2,400 <fail>

0000000000000258 <test_12>:
 258:	800000b7          	lui	ra,0x80000
 25c:	fff0809b          	addiw	ra,ra,-1
 260:	8000871b          	addiw	a4,ra,-2048
 264:	7ffff3b7          	lui	t2,0x7ffff
 268:	7ff3839b          	addiw	t2,t2,2047
 26c:	00c00193          	li	gp,12
 270:	18771863          	bne	a4,t2,400 <fail>

0000000000000274 <test_13>:
 274:	00000093          	li	ra,0
 278:	fff0871b          	addiw	a4,ra,-1
 27c:	fff00393          	li	t2,-1
 280:	00d00193          	li	gp,13
 284:	16771e63          	bne	a4,t2,400 <fail>

0000000000000288 <test_14>:
 288:	fff00093          	li	ra,-1
 28c:	0010871b          	addiw	a4,ra,1
 290:	00000393          	li	t2,0
 294:	00e00193          	li	gp,14
 298:	16771463          	bne	a4,t2,400 <fail>

000000000000029c <test_15>:
 29c:	fff00093          	li	ra,-1
 2a0:	fff0871b          	addiw	a4,ra,-1
 2a4:	ffe00393          	li	t2,-2
 2a8:	00f00193          	li	gp,15
 2ac:	14771a63          	bne	a4,t2,400 <fail>

00000000000002b0 <test_16>:
 2b0:	800000b7          	lui	ra,0x80000
 2b4:	fff0809b          	addiw	ra,ra,-1
 2b8:	0010871b          	addiw	a4,ra,1
 2bc:	800003b7          	lui	t2,0x80000
 2c0:	01000193          	li	gp,16
 2c4:	12771e63          	bne	a4,t2,400 <fail>

00000000000002c8 <test_17>:
 2c8:	00d00093          	li	ra,13
 2cc:	00b0809b          	addiw	ra,ra,11
 2d0:	01800393          	li	t2,24
 2d4:	01100193          	li	gp,17
 2d8:	12709463          	bne	ra,t2,400 <fail>

00000000000002dc <test_18>:
 2dc:	00000213          	li	tp,0
 2e0:	00d00093          	li	ra,13
 2e4:	00b0871b          	addiw	a4,ra,11
 2e8:	00070313          	mv	t1,a4
 2ec:	00120213          	addi	tp,tp,1 # 1 <_start+0x1>
 2f0:	00200293          	li	t0,2
 2f4:	fe5216e3          	bne	tp,t0,2e0 <test_18+0x4>
 2f8:	01800393          	li	t2,24
 2fc:	01200193          	li	gp,18
 300:	10731063          	bne	t1,t2,400 <fail>

0000000000000304 <test_19>:
 304:	00000213          	li	tp,0
 308:	00d00093          	li	ra,13
 30c:	00a0871b          	addiw	a4,ra,10
 310:	00000013          	nop
 314:	00070313          	mv	t1,a4
 318:	00120213          	addi	tp,tp,1 # 1 <_start+0x1>
 31c:	00200293          	li	t0,2
 320:	fe5214e3          	bne	tp,t0,308 <test_19+0x4>
 324:	01700393          	li	t2,23
 328:	01300193          	li	gp,19
 32c:	0c731a63          	bne	t1,t2,400 <fail>

0000000000000330 <test_20>:
 330:	00000213          	li	tp,0
 334:	00d00093          	li	ra,13
 338:	0090871b          	addiw	a4,ra,9
 33c:	00000013          	nop
 340:	00000013          	nop
 344:	00070313          	mv	t1,a4
 348:	00120213          	addi	tp,tp,1 # 1 <_start+0x1>
 34c:	00200293          	li	t0,2
 350:	fe5212e3          	bne	tp,t0,334 <test_20+0x4>
 354:	01600393          	li	t2,22
 358:	01400193          	li	gp,20
 35c:	0a731263          	bne	t1,t2,400 <fail>

0000000000000360 <test_21>:
 360:	00000213          	li	tp,0
 364:	00d00093          	li	ra,13
 368:	00b0871b          	addiw	a4,ra,11
 36c:	00120213          	addi	tp,tp,1 # 1 <_start+0x1>
 370:	00200293          	li	t0,2
 374:	fe5218e3          	bne	tp,t0,364 <test_21+0x4>
 378:	01800393          	li	t2,24
 37c:	01500193          	li	gp,21
 380:	08771063          	bne	a4,t2,400 <fail>

0000000000000384 <test_22>:
 384:	00000213          	li	tp,0
 388:	00d00093          	li	ra,13
 38c:	00000013          	nop
 390:	00a0871b          	addiw	a4,ra,10
 394:	00120213          	addi	tp,tp,1 # 1 <_start+0x1>
 398:	00200293          	li	t0,2
 39c:	fe5216e3          	bne	tp,t0,388 <test_22+0x4>
 3a0:	01700393          	li	t2,23
 3a4:	01600193          	li	gp,22
 3a8:	04771c63          	bne	a4,t2,400 <fail>

00000000000003ac <test_23>:
 3ac:	00000213          	li	tp,0
 3b0:	00d00093          	li	ra,13
 3b4:	00000013          	nop
 3b8:	00000013          	nop
 3bc:	0090871b          	addiw	a4,ra,9
 3c0:	00120213          	addi	tp,tp,1 # 1 <_start+0x1>
 3c4:	00200293          	li	t0,2
 3c8:	fe5214e3          	bne	tp,t0,3b0 <test_23+0x4>
 3cc:	01600393          	li	t2,22
 3d0:	01700193          	li	gp,23
 3d4:	02771663          	bne	a4,t2,400 <fail>

00000000000003d8 <test_24>:
 3d8:	0200009b          	addiw	ra,zero,32
 3dc:	02000393          	li	t2,32
 3e0:	01800193          	li	gp,24
 3e4:	00709e63          	bne	ra,t2,400 <fail>

00000000000003e8 <test_25>:
 3e8:	02100093          	li	ra,33
 3ec:	0320801b          	addiw	zero,ra,50
 3f0:	00000393          	li	t2,0
 3f4:	01900193          	li	gp,25
 3f8:	00701463          	bne	zero,t2,400 <fail>
 3fc:	02301063          	bne	zero,gp,41c <pass>

0000000000000400 <fail>:
 400:	0ff0000f          	fence
 404:	00018063          	beqz	gp,404 <fail+0x4>
 408:	00119193          	slli	gp,gp,0x1
 40c:	0011e193          	ori	gp,gp,1
 410:	05d00893          	li	a7,93
 414:	00018513          	mv	a0,gp
 418:	00000073          	ecall

000000000000041c <pass>:
 41c:	0ff0000f          	fence
 420:	00100193          	li	gp,1
 424:	05d00893          	li	a7,93
 428:	00000513          	li	a0,0
 42c:	00000073          	ecall
 430:	c0001073          	unimp
 434:	0000                	unimp
 436:	0000                	unimp
 438:	0000                	unimp
 43a:	0000                	unimp
