
rv64ui-p-ld:     file format elf64-littleriscv


Disassembly of section .text.init:

0000000000000000 <_start>:
   0:	0480006f          	j	48 <reset_vector>

0000000000000004 <trap_vector>:
   4:	34202f73          	csrr	t5,mcause
   8:	00800f93          	li	t6,8
   c:	03ff0863          	beq	t5,t6,3c <write_tohost>
  10:	00900f93          	li	t6,9
  14:	03ff0463          	beq	t5,t6,3c <write_tohost>
  18:	00b00f93          	li	t6,11
  1c:	03ff0063          	beq	t5,t6,3c <write_tohost>
  20:	00000f13          	li	t5,0
  24:	000f0463          	beqz	t5,2c <trap_vector+0x28>
  28:	000f0067          	jr	t5
  2c:	34202f73          	csrr	t5,mcause
  30:	000f5463          	bgez	t5,38 <handle_exception>
  34:	0040006f          	j	38 <handle_exception>

0000000000000038 <handle_exception>:
  38:	5391e193          	ori	gp,gp,1337

000000000000003c <write_tohost>:
  3c:	00001f17          	auipc	t5,0x1
  40:	fc3f2223          	sw	gp,-60(t5) # 1000 <tohost>
  44:	ff9ff06f          	j	3c <write_tohost>

0000000000000048 <reset_vector>:
  48:	00000093          	li	ra,0
  4c:	00000113          	li	sp,0
  50:	00000193          	li	gp,0
  54:	00000213          	li	tp,0
  58:	00000293          	li	t0,0
  5c:	00000313          	li	t1,0
  60:	00000393          	li	t2,0
  64:	00000413          	li	s0,0
  68:	00000493          	li	s1,0
  6c:	00000513          	li	a0,0
  70:	00000593          	li	a1,0
  74:	00000613          	li	a2,0
  78:	00000693          	li	a3,0
  7c:	00000713          	li	a4,0
  80:	00000793          	li	a5,0
  84:	00000813          	li	a6,0
  88:	00000893          	li	a7,0
  8c:	00000913          	li	s2,0
  90:	00000993          	li	s3,0
  94:	00000a13          	li	s4,0
  98:	00000a93          	li	s5,0
  9c:	00000b13          	li	s6,0
  a0:	00000b93          	li	s7,0
  a4:	00000c13          	li	s8,0
  a8:	00000c93          	li	s9,0
  ac:	00000d13          	li	s10,0
  b0:	00000d93          	li	s11,0
  b4:	00000e13          	li	t3,0
  b8:	00000e93          	li	t4,0
  bc:	00000f13          	li	t5,0
  c0:	00000f93          	li	t6,0
  c4:	f1402573          	csrr	a0,mhartid
  c8:	00051063          	bnez	a0,c8 <reset_vector+0x80>
  cc:	00000297          	auipc	t0,0x0
  d0:	01028293          	addi	t0,t0,16 # dc <reset_vector+0x94>
  d4:	30529073          	csrw	mtvec,t0
  d8:	18005073          	csrwi	satp,0
  dc:	00000297          	auipc	t0,0x0
  e0:	02428293          	addi	t0,t0,36 # 100 <reset_vector+0xb8>
  e4:	30529073          	csrw	mtvec,t0
  e8:	0010029b          	addiw	t0,zero,1
  ec:	03529293          	slli	t0,t0,0x35
  f0:	fff28293          	addi	t0,t0,-1
  f4:	3b029073          	csrw	pmpaddr0,t0
  f8:	01f00293          	li	t0,31
  fc:	3a029073          	csrw	pmpcfg0,t0
 100:	30405073          	csrwi	mie,0
 104:	00000297          	auipc	t0,0x0
 108:	01428293          	addi	t0,t0,20 # 118 <reset_vector+0xd0>
 10c:	30529073          	csrw	mtvec,t0
 110:	30205073          	csrwi	medeleg,0
 114:	30305073          	csrwi	mideleg,0
 118:	00000193          	li	gp,0
 11c:	00000297          	auipc	t0,0x0
 120:	ee828293          	addi	t0,t0,-280 # 4 <trap_vector>
 124:	30529073          	csrw	mtvec,t0
 128:	00100513          	li	a0,1
 12c:	01f51513          	slli	a0,a0,0x1f
 130:	00055c63          	bgez	a0,148 <reset_vector+0x100>
 134:	0ff0000f          	fence
 138:	00100193          	li	gp,1
 13c:	05d00893          	li	a7,93
 140:	00000513          	li	a0,0
 144:	00000073          	ecall
 148:	00000293          	li	t0,0
 14c:	00028a63          	beqz	t0,160 <reset_vector+0x118>
 150:	10529073          	csrw	stvec,t0
 154:	0000b2b7          	lui	t0,0xb
 158:	1092829b          	addiw	t0,t0,265
 15c:	30229073          	csrw	medeleg,t0
 160:	30005073          	csrwi	mstatus,0
 164:	00000297          	auipc	t0,0x0
 168:	01428293          	addi	t0,t0,20 # 178 <test_2>
 16c:	34129073          	csrw	mepc,t0
 170:	f1402573          	csrr	a0,mhartid
 174:	30200073          	mret

0000000000000178 <test_2>:
 178:	00002097          	auipc	ra,0x2
 17c:	e8808093          	addi	ra,ra,-376 # 2000 <begin_signature>
 180:	0000b703          	ld	a4,0(ra)
 184:	00ff03b7          	lui	t2,0xff0
 188:	0ff3839b          	addiw	t2,t2,255
 18c:	01039393          	slli	t2,t2,0x10
 190:	0ff38393          	addi	t2,t2,255 # ff00ff <_end+0xfee0df>
 194:	01039393          	slli	t2,t2,0x10
 198:	0ff38393          	addi	t2,t2,255
 19c:	00200193          	li	gp,2
 1a0:	3a771263          	bne	a4,t2,544 <fail>

00000000000001a4 <test_3>:
 1a4:	00002097          	auipc	ra,0x2
 1a8:	e5c08093          	addi	ra,ra,-420 # 2000 <begin_signature>
 1ac:	0080b703          	ld	a4,8(ra)
 1b0:	ff0103b7          	lui	t2,0xff010
 1b4:	f013839b          	addiw	t2,t2,-255
 1b8:	01039393          	slli	t2,t2,0x10
 1bc:	f0138393          	addi	t2,t2,-255 # ffffffffff00ff01 <_end+0xffffffffff00dee1>
 1c0:	01039393          	slli	t2,t2,0x10
 1c4:	f0038393          	addi	t2,t2,-256
 1c8:	00300193          	li	gp,3
 1cc:	36771c63          	bne	a4,t2,544 <fail>

00000000000001d0 <test_4>:
 1d0:	00002097          	auipc	ra,0x2
 1d4:	e3008093          	addi	ra,ra,-464 # 2000 <begin_signature>
 1d8:	0100b703          	ld	a4,16(ra)
 1dc:	000103b7          	lui	t2,0x10
 1e0:	f013839b          	addiw	t2,t2,-255
 1e4:	01039393          	slli	t2,t2,0x10
 1e8:	f0138393          	addi	t2,t2,-255 # ff01 <_end+0xdee1>
 1ec:	01039393          	slli	t2,t2,0x10
 1f0:	f0138393          	addi	t2,t2,-255
 1f4:	00c39393          	slli	t2,t2,0xc
 1f8:	ff038393          	addi	t2,t2,-16
 1fc:	00400193          	li	gp,4
 200:	34771263          	bne	a4,t2,544 <fail>

0000000000000204 <test_5>:
 204:	00002097          	auipc	ra,0x2
 208:	dfc08093          	addi	ra,ra,-516 # 2000 <begin_signature>
 20c:	0180b703          	ld	a4,24(ra)
 210:	ffff03b7          	lui	t2,0xffff0
 214:	0ff3839b          	addiw	t2,t2,255
 218:	01039393          	slli	t2,t2,0x10
 21c:	0ff38393          	addi	t2,t2,255 # ffffffffffff00ff <_end+0xfffffffffffee0df>
 220:	01039393          	slli	t2,t2,0x10
 224:	0ff38393          	addi	t2,t2,255
 228:	00c39393          	slli	t2,t2,0xc
 22c:	00f38393          	addi	t2,t2,15
 230:	00500193          	li	gp,5
 234:	30771863          	bne	a4,t2,544 <fail>

0000000000000238 <test_6>:
 238:	00002097          	auipc	ra,0x2
 23c:	de008093          	addi	ra,ra,-544 # 2018 <tdat4>
 240:	fe80b703          	ld	a4,-24(ra)
 244:	00ff03b7          	lui	t2,0xff0
 248:	0ff3839b          	addiw	t2,t2,255
 24c:	01039393          	slli	t2,t2,0x10
 250:	0ff38393          	addi	t2,t2,255 # ff00ff <_end+0xfee0df>
 254:	01039393          	slli	t2,t2,0x10
 258:	0ff38393          	addi	t2,t2,255
 25c:	00600193          	li	gp,6
 260:	2e771263          	bne	a4,t2,544 <fail>

0000000000000264 <test_7>:
 264:	00002097          	auipc	ra,0x2
 268:	db408093          	addi	ra,ra,-588 # 2018 <tdat4>
 26c:	ff00b703          	ld	a4,-16(ra)
 270:	ff0103b7          	lui	t2,0xff010
 274:	f013839b          	addiw	t2,t2,-255
 278:	01039393          	slli	t2,t2,0x10
 27c:	f0138393          	addi	t2,t2,-255 # ffffffffff00ff01 <_end+0xffffffffff00dee1>
 280:	01039393          	slli	t2,t2,0x10
 284:	f0038393          	addi	t2,t2,-256
 288:	00700193          	li	gp,7
 28c:	2a771c63          	bne	a4,t2,544 <fail>

0000000000000290 <test_8>:
 290:	00002097          	auipc	ra,0x2
 294:	d8808093          	addi	ra,ra,-632 # 2018 <tdat4>
 298:	ff80b703          	ld	a4,-8(ra)
 29c:	000103b7          	lui	t2,0x10
 2a0:	f013839b          	addiw	t2,t2,-255
 2a4:	01039393          	slli	t2,t2,0x10
 2a8:	f0138393          	addi	t2,t2,-255 # ff01 <_end+0xdee1>
 2ac:	01039393          	slli	t2,t2,0x10
 2b0:	f0138393          	addi	t2,t2,-255
 2b4:	00c39393          	slli	t2,t2,0xc
 2b8:	ff038393          	addi	t2,t2,-16
 2bc:	00800193          	li	gp,8
 2c0:	28771263          	bne	a4,t2,544 <fail>

00000000000002c4 <test_9>:
 2c4:	00002097          	auipc	ra,0x2
 2c8:	d5408093          	addi	ra,ra,-684 # 2018 <tdat4>
 2cc:	0000b703          	ld	a4,0(ra)
 2d0:	ffff03b7          	lui	t2,0xffff0
 2d4:	0ff3839b          	addiw	t2,t2,255
 2d8:	01039393          	slli	t2,t2,0x10
 2dc:	0ff38393          	addi	t2,t2,255 # ffffffffffff00ff <_end+0xfffffffffffee0df>
 2e0:	01039393          	slli	t2,t2,0x10
 2e4:	0ff38393          	addi	t2,t2,255
 2e8:	00c39393          	slli	t2,t2,0xc
 2ec:	00f38393          	addi	t2,t2,15
 2f0:	00900193          	li	gp,9
 2f4:	24771863          	bne	a4,t2,544 <fail>

00000000000002f8 <test_10>:
 2f8:	00002097          	auipc	ra,0x2
 2fc:	d0808093          	addi	ra,ra,-760 # 2000 <begin_signature>
 300:	fe008093          	addi	ra,ra,-32
 304:	0200b283          	ld	t0,32(ra)
 308:	00ff03b7          	lui	t2,0xff0
 30c:	0ff3839b          	addiw	t2,t2,255
 310:	01039393          	slli	t2,t2,0x10
 314:	0ff38393          	addi	t2,t2,255 # ff00ff <_end+0xfee0df>
 318:	01039393          	slli	t2,t2,0x10
 31c:	0ff38393          	addi	t2,t2,255
 320:	00a00193          	li	gp,10
 324:	22729063          	bne	t0,t2,544 <fail>

0000000000000328 <test_11>:
 328:	00002097          	auipc	ra,0x2
 32c:	cd808093          	addi	ra,ra,-808 # 2000 <begin_signature>
 330:	ffd08093          	addi	ra,ra,-3
 334:	00b0b283          	ld	t0,11(ra)
 338:	ff0103b7          	lui	t2,0xff010
 33c:	f013839b          	addiw	t2,t2,-255
 340:	01039393          	slli	t2,t2,0x10
 344:	f0138393          	addi	t2,t2,-255 # ffffffffff00ff01 <_end+0xffffffffff00dee1>
 348:	01039393          	slli	t2,t2,0x10
 34c:	f0038393          	addi	t2,t2,-256
 350:	00b00193          	li	gp,11
 354:	1e729863          	bne	t0,t2,544 <fail>

0000000000000358 <test_12>:
 358:	00c00193          	li	gp,12
 35c:	00000213          	li	tp,0
 360:	00002097          	auipc	ra,0x2
 364:	ca808093          	addi	ra,ra,-856 # 2008 <tdat2>
 368:	0080b703          	ld	a4,8(ra)
 36c:	00070313          	mv	t1,a4
 370:	000103b7          	lui	t2,0x10
 374:	f013839b          	addiw	t2,t2,-255
 378:	01039393          	slli	t2,t2,0x10
 37c:	f0138393          	addi	t2,t2,-255 # ff01 <_end+0xdee1>
 380:	01039393          	slli	t2,t2,0x10
 384:	f0138393          	addi	t2,t2,-255
 388:	00c39393          	slli	t2,t2,0xc
 38c:	ff038393          	addi	t2,t2,-16
 390:	1a731a63          	bne	t1,t2,544 <fail>
 394:	00120213          	addi	tp,tp,1 # 1 <_start+0x1>
 398:	00200293          	li	t0,2
 39c:	fc5212e3          	bne	tp,t0,360 <test_12+0x8>

00000000000003a0 <test_13>:
 3a0:	00d00193          	li	gp,13
 3a4:	00000213          	li	tp,0
 3a8:	00002097          	auipc	ra,0x2
 3ac:	c6808093          	addi	ra,ra,-920 # 2010 <tdat3>
 3b0:	0080b703          	ld	a4,8(ra)
 3b4:	00000013          	nop
 3b8:	00070313          	mv	t1,a4
 3bc:	ffff03b7          	lui	t2,0xffff0
 3c0:	0ff3839b          	addiw	t2,t2,255
 3c4:	01039393          	slli	t2,t2,0x10
 3c8:	0ff38393          	addi	t2,t2,255 # ffffffffffff00ff <_end+0xfffffffffffee0df>
 3cc:	01039393          	slli	t2,t2,0x10
 3d0:	0ff38393          	addi	t2,t2,255
 3d4:	00c39393          	slli	t2,t2,0xc
 3d8:	00f38393          	addi	t2,t2,15
 3dc:	16731463          	bne	t1,t2,544 <fail>
 3e0:	00120213          	addi	tp,tp,1 # 1 <_start+0x1>
 3e4:	00200293          	li	t0,2
 3e8:	fc5210e3          	bne	tp,t0,3a8 <test_13+0x8>

00000000000003ec <test_14>:
 3ec:	00e00193          	li	gp,14
 3f0:	00000213          	li	tp,0
 3f4:	00002097          	auipc	ra,0x2
 3f8:	c0c08093          	addi	ra,ra,-1012 # 2000 <begin_signature>
 3fc:	0080b703          	ld	a4,8(ra)
 400:	00000013          	nop
 404:	00000013          	nop
 408:	00070313          	mv	t1,a4
 40c:	ff0103b7          	lui	t2,0xff010
 410:	f013839b          	addiw	t2,t2,-255
 414:	01039393          	slli	t2,t2,0x10
 418:	f0138393          	addi	t2,t2,-255 # ffffffffff00ff01 <_end+0xffffffffff00dee1>
 41c:	01039393          	slli	t2,t2,0x10
 420:	f0038393          	addi	t2,t2,-256
 424:	12731063          	bne	t1,t2,544 <fail>
 428:	00120213          	addi	tp,tp,1 # 1 <_start+0x1>
 42c:	00200293          	li	t0,2
 430:	fc5212e3          	bne	tp,t0,3f4 <test_14+0x8>

0000000000000434 <test_15>:
 434:	00f00193          	li	gp,15
 438:	00000213          	li	tp,0
 43c:	00002097          	auipc	ra,0x2
 440:	bcc08093          	addi	ra,ra,-1076 # 2008 <tdat2>
 444:	0080b703          	ld	a4,8(ra)
 448:	000103b7          	lui	t2,0x10
 44c:	f013839b          	addiw	t2,t2,-255
 450:	01039393          	slli	t2,t2,0x10
 454:	f0138393          	addi	t2,t2,-255 # ff01 <_end+0xdee1>
 458:	01039393          	slli	t2,t2,0x10
 45c:	f0138393          	addi	t2,t2,-255
 460:	00c39393          	slli	t2,t2,0xc
 464:	ff038393          	addi	t2,t2,-16
 468:	0c771e63          	bne	a4,t2,544 <fail>
 46c:	00120213          	addi	tp,tp,1 # 1 <_start+0x1>
 470:	00200293          	li	t0,2
 474:	fc5214e3          	bne	tp,t0,43c <test_15+0x8>

0000000000000478 <test_16>:
 478:	01000193          	li	gp,16
 47c:	00000213          	li	tp,0
 480:	00002097          	auipc	ra,0x2
 484:	b9008093          	addi	ra,ra,-1136 # 2010 <tdat3>
 488:	00000013          	nop
 48c:	0080b703          	ld	a4,8(ra)
 490:	ffff03b7          	lui	t2,0xffff0
 494:	0ff3839b          	addiw	t2,t2,255
 498:	01039393          	slli	t2,t2,0x10
 49c:	0ff38393          	addi	t2,t2,255 # ffffffffffff00ff <_end+0xfffffffffffee0df>
 4a0:	01039393          	slli	t2,t2,0x10
 4a4:	0ff38393          	addi	t2,t2,255
 4a8:	00c39393          	slli	t2,t2,0xc
 4ac:	00f38393          	addi	t2,t2,15
 4b0:	08771a63          	bne	a4,t2,544 <fail>
 4b4:	00120213          	addi	tp,tp,1 # 1 <_start+0x1>
 4b8:	00200293          	li	t0,2
 4bc:	fc5212e3          	bne	tp,t0,480 <test_16+0x8>

00000000000004c0 <test_17>:
 4c0:	01100193          	li	gp,17
 4c4:	00000213          	li	tp,0
 4c8:	00002097          	auipc	ra,0x2
 4cc:	b3808093          	addi	ra,ra,-1224 # 2000 <begin_signature>
 4d0:	00000013          	nop
 4d4:	00000013          	nop
 4d8:	0080b703          	ld	a4,8(ra)
 4dc:	ff0103b7          	lui	t2,0xff010
 4e0:	f013839b          	addiw	t2,t2,-255
 4e4:	01039393          	slli	t2,t2,0x10
 4e8:	f0138393          	addi	t2,t2,-255 # ffffffffff00ff01 <_end+0xffffffffff00dee1>
 4ec:	01039393          	slli	t2,t2,0x10
 4f0:	f0038393          	addi	t2,t2,-256
 4f4:	04771863          	bne	a4,t2,544 <fail>
 4f8:	00120213          	addi	tp,tp,1 # 1 <_start+0x1>
 4fc:	00200293          	li	t0,2
 500:	fc5214e3          	bne	tp,t0,4c8 <test_17+0x8>

0000000000000504 <test_18>:
 504:	00002297          	auipc	t0,0x2
 508:	afc28293          	addi	t0,t0,-1284 # 2000 <begin_signature>
 50c:	0002b103          	ld	sp,0(t0)
 510:	00200113          	li	sp,2
 514:	00200393          	li	t2,2
 518:	01200193          	li	gp,18
 51c:	02711463          	bne	sp,t2,544 <fail>

0000000000000520 <test_19>:
 520:	00002297          	auipc	t0,0x2
 524:	ae028293          	addi	t0,t0,-1312 # 2000 <begin_signature>
 528:	0002b103          	ld	sp,0(t0)
 52c:	00000013          	nop
 530:	00200113          	li	sp,2
 534:	00200393          	li	t2,2
 538:	01300193          	li	gp,19
 53c:	00711463          	bne	sp,t2,544 <fail>
 540:	02301063          	bne	zero,gp,560 <pass>

0000000000000544 <fail>:
 544:	0ff0000f          	fence
 548:	00018063          	beqz	gp,548 <fail+0x4>
 54c:	00119193          	slli	gp,gp,0x1
 550:	0011e193          	ori	gp,gp,1
 554:	05d00893          	li	a7,93
 558:	00018513          	mv	a0,gp
 55c:	00000073          	ecall

0000000000000560 <pass>:
 560:	0ff0000f          	fence
 564:	00100193          	li	gp,1
 568:	05d00893          	li	a7,93
 56c:	00000513          	li	a0,0
 570:	00000073          	ecall
 574:	c0001073          	unimp
 578:	0000                	unimp
 57a:	0000                	unimp
