
rv64uc-v-rvc:     file format elf64-littleriscv


Disassembly of section .text.init:

0000000000000000 <_start>:
   0:	00c0006f          	j	c <handle_reset>

0000000000000004 <nmi_vector>:
   4:	2600206f          	j	2264 <wtf>

0000000000000008 <trap_vector>:
   8:	25c0206f          	j	2264 <wtf>

000000000000000c <handle_reset>:
   c:	00000093          	li	ra,0
  10:	00000113          	li	sp,0
  14:	00000193          	li	gp,0
  18:	00000213          	li	tp,0
  1c:	00000293          	li	t0,0
  20:	00000313          	li	t1,0
  24:	00000393          	li	t2,0
  28:	00000413          	li	s0,0
  2c:	00000493          	li	s1,0
  30:	00000513          	li	a0,0
  34:	00000593          	li	a1,0
  38:	00000613          	li	a2,0
  3c:	00000693          	li	a3,0
  40:	00000713          	li	a4,0
  44:	00000793          	li	a5,0
  48:	00000813          	li	a6,0
  4c:	00000893          	li	a7,0
  50:	00000913          	li	s2,0
  54:	00000993          	li	s3,0
  58:	00000a13          	li	s4,0
  5c:	00000a93          	li	s5,0
  60:	00000b13          	li	s6,0
  64:	00000b93          	li	s7,0
  68:	00000c13          	li	s8,0
  6c:	00000c93          	li	s9,0
  70:	00000d13          	li	s10,0
  74:	00000d93          	li	s11,0
  78:	00000e13          	li	t3,0
  7c:	00000e93          	li	t4,0
  80:	00000f13          	li	t5,0
  84:	00000f93          	li	t6,0
  88:	00000297          	auipc	t0,0x0
  8c:	f8028293          	addi	t0,t0,-128 # 8 <trap_vector>
  90:	30529073          	csrw	mtvec,t0
  94:	0000c117          	auipc	sp,0xc
  98:	63c10113          	addi	sp,sp,1596 # c6d0 <_end+0xee0>
  9c:	f14022f3          	csrr	t0,mhartid
  a0:	00c29293          	slli	t0,t0,0xc
  a4:	00510133          	add	sp,sp,t0
  a8:	34011073          	csrw	mscratch,sp
  ac:	755020ef          	jal	ra,3000 <extra_boot>
  b0:	00003517          	auipc	a0,0x3
  b4:	f5450513          	addi	a0,a0,-172 # 3004 <userstart>
  b8:	7f80206f          	j	28b0 <vm_boot>

00000000000000bc <pop_tf>:
  bc:	10853283          	ld	t0,264(a0)
  c0:	14129073          	csrw	sepc,t0
  c4:	00853083          	ld	ra,8(a0)
  c8:	01053103          	ld	sp,16(a0)
  cc:	01853183          	ld	gp,24(a0)
  d0:	02053203          	ld	tp,32(a0)
  d4:	02853283          	ld	t0,40(a0)
  d8:	03053303          	ld	t1,48(a0)
  dc:	03853383          	ld	t2,56(a0)
  e0:	04053403          	ld	s0,64(a0)
  e4:	04853483          	ld	s1,72(a0)
  e8:	05853583          	ld	a1,88(a0)
  ec:	06053603          	ld	a2,96(a0)
  f0:	06853683          	ld	a3,104(a0)
  f4:	07053703          	ld	a4,112(a0)
  f8:	07853783          	ld	a5,120(a0)
  fc:	08053803          	ld	a6,128(a0)
 100:	08853883          	ld	a7,136(a0)
 104:	09053903          	ld	s2,144(a0)
 108:	09853983          	ld	s3,152(a0)
 10c:	0a053a03          	ld	s4,160(a0)
 110:	0a853a83          	ld	s5,168(a0)
 114:	0b053b03          	ld	s6,176(a0)
 118:	0b853b83          	ld	s7,184(a0)
 11c:	0c053c03          	ld	s8,192(a0)
 120:	0c853c83          	ld	s9,200(a0)
 124:	0d053d03          	ld	s10,208(a0)
 128:	0d853d83          	ld	s11,216(a0)
 12c:	0e053e03          	ld	t3,224(a0)
 130:	0e853e83          	ld	t4,232(a0)
 134:	0f053f03          	ld	t5,240(a0)
 138:	0f853f83          	ld	t6,248(a0)
 13c:	05053503          	ld	a0,80(a0)
 140:	10200073          	sret

0000000000000144 <trap_entry>:
 144:	14011173          	csrrw	sp,sscratch,sp
 148:	00113423          	sd	ra,8(sp)
 14c:	00313c23          	sd	gp,24(sp)
 150:	02413023          	sd	tp,32(sp)
 154:	02513423          	sd	t0,40(sp)
 158:	02613823          	sd	t1,48(sp)
 15c:	02713c23          	sd	t2,56(sp)
 160:	04813023          	sd	s0,64(sp)
 164:	04913423          	sd	s1,72(sp)
 168:	04a13823          	sd	a0,80(sp)
 16c:	04b13c23          	sd	a1,88(sp)
 170:	06c13023          	sd	a2,96(sp)
 174:	06d13423          	sd	a3,104(sp)
 178:	06e13823          	sd	a4,112(sp)
 17c:	06f13c23          	sd	a5,120(sp)
 180:	09013023          	sd	a6,128(sp)
 184:	09113423          	sd	a7,136(sp)
 188:	09213823          	sd	s2,144(sp)
 18c:	09313c23          	sd	s3,152(sp)
 190:	0b413023          	sd	s4,160(sp)
 194:	0b513423          	sd	s5,168(sp)
 198:	0b613823          	sd	s6,176(sp)
 19c:	0b713c23          	sd	s7,184(sp)
 1a0:	0d813023          	sd	s8,192(sp)
 1a4:	0d913423          	sd	s9,200(sp)
 1a8:	0da13823          	sd	s10,208(sp)
 1ac:	0db13c23          	sd	s11,216(sp)
 1b0:	0fc13023          	sd	t3,224(sp)
 1b4:	0fd13423          	sd	t4,232(sp)
 1b8:	0fe13823          	sd	t5,240(sp)
 1bc:	0ff13c23          	sd	t6,248(sp)
 1c0:	140112f3          	csrrw	t0,sscratch,sp
 1c4:	00513823          	sd	t0,16(sp)
 1c8:	100022f3          	csrr	t0,sstatus
 1cc:	10513023          	sd	t0,256(sp)
 1d0:	141022f3          	csrr	t0,sepc
 1d4:	10513423          	sd	t0,264(sp)
 1d8:	143022f3          	csrr	t0,stval
 1dc:	10513823          	sd	t0,272(sp)
 1e0:	142022f3          	csrr	t0,scause
 1e4:	10513c23          	sd	t0,280(sp)
 1e8:	00010513          	mv	a0,sp
 1ec:	3a40206f          	j	2590 <handle_trap>

Disassembly of section .text:

0000000000002000 <memcpy>:
    2000:	00c5e7b3          	or	a5,a1,a2
    2004:	00f567b3          	or	a5,a0,a5
    2008:	0077f793          	andi	a5,a5,7
    200c:	00c506b3          	add	a3,a0,a2
    2010:	02078463          	beqz	a5,2038 <memcpy+0x38>
    2014:	00c58633          	add	a2,a1,a2
    2018:	00050793          	mv	a5,a0
    201c:	02d57e63          	bgeu	a0,a3,2058 <memcpy+0x58>
    2020:	0005c703          	lbu	a4,0(a1)
    2024:	00158593          	addi	a1,a1,1
    2028:	00178793          	addi	a5,a5,1
    202c:	fee78fa3          	sb	a4,-1(a5)
    2030:	fec598e3          	bne	a1,a2,2020 <memcpy+0x20>
    2034:	00008067          	ret
    2038:	fed57ee3          	bgeu	a0,a3,2034 <memcpy+0x34>
    203c:	00050793          	mv	a5,a0
    2040:	0005b703          	ld	a4,0(a1)
    2044:	00878793          	addi	a5,a5,8
    2048:	00858593          	addi	a1,a1,8
    204c:	fee7bc23          	sd	a4,-8(a5)
    2050:	fed7e8e3          	bltu	a5,a3,2040 <memcpy+0x40>
    2054:	00008067          	ret
    2058:	00008067          	ret

000000000000205c <memset>:
    205c:	00c567b3          	or	a5,a0,a2
    2060:	0077f793          	andi	a5,a5,7
    2064:	00c50633          	add	a2,a0,a2
    2068:	0ff5f593          	andi	a1,a1,255
    206c:	00078e63          	beqz	a5,2088 <memset+0x2c>
    2070:	00050793          	mv	a5,a0
    2074:	04c57263          	bgeu	a0,a2,20b8 <memset+0x5c>
    2078:	00178793          	addi	a5,a5,1
    207c:	feb78fa3          	sb	a1,-1(a5)
    2080:	fef61ce3          	bne	a2,a5,2078 <memset+0x1c>
    2084:	00008067          	ret
    2088:	00859793          	slli	a5,a1,0x8
    208c:	00b7e5b3          	or	a1,a5,a1
    2090:	01059793          	slli	a5,a1,0x10
    2094:	00b7e7b3          	or	a5,a5,a1
    2098:	02079593          	slli	a1,a5,0x20
    209c:	00f5e5b3          	or	a1,a1,a5
    20a0:	fec572e3          	bgeu	a0,a2,2084 <memset+0x28>
    20a4:	00050793          	mv	a5,a0
    20a8:	00878793          	addi	a5,a5,8
    20ac:	feb7bc23          	sd	a1,-8(a5)
    20b0:	fec7ece3          	bltu	a5,a2,20a8 <memset+0x4c>
    20b4:	00008067          	ret
    20b8:	00008067          	ret

00000000000020bc <strlen>:
    20bc:	00054783          	lbu	a5,0(a0)
    20c0:	00078e63          	beqz	a5,20dc <strlen+0x20>
    20c4:	00050793          	mv	a5,a0
    20c8:	0017c703          	lbu	a4,1(a5)
    20cc:	00178793          	addi	a5,a5,1
    20d0:	fe071ce3          	bnez	a4,20c8 <strlen+0xc>
    20d4:	40a78533          	sub	a0,a5,a0
    20d8:	00008067          	ret
    20dc:	00000513          	li	a0,0
    20e0:	00008067          	ret

00000000000020e4 <strcmp>:
    20e4:	00054783          	lbu	a5,0(a0)
    20e8:	00158593          	addi	a1,a1,1
    20ec:	00150513          	addi	a0,a0,1
    20f0:	fff5c703          	lbu	a4,-1(a1)
    20f4:	00078a63          	beqz	a5,2108 <strcmp+0x24>
    20f8:	fee786e3          	beq	a5,a4,20e4 <strcmp>
    20fc:	0007851b          	sext.w	a0,a5
    2100:	40e5053b          	subw	a0,a0,a4
    2104:	00008067          	ret
    2108:	00000513          	li	a0,0
    210c:	ff5ff06f          	j	2100 <strcmp+0x1c>

0000000000002110 <memcmp>:
    2110:	00b567b3          	or	a5,a0,a1
    2114:	0077f793          	andi	a5,a5,7
    2118:	02079e63          	bnez	a5,2154 <memcmp+0x44>
    211c:	ff867813          	andi	a6,a2,-8
    2120:	01050833          	add	a6,a0,a6
    2124:	03057863          	bgeu	a0,a6,2154 <memcmp+0x44>
    2128:	00050793          	mv	a5,a0
    212c:	0100006f          	j	213c <memcmp+0x2c>
    2130:	00878793          	addi	a5,a5,8
    2134:	00858593          	addi	a1,a1,8
    2138:	0107f863          	bgeu	a5,a6,2148 <memcmp+0x38>
    213c:	0007b683          	ld	a3,0(a5)
    2140:	0005b703          	ld	a4,0(a1)
    2144:	fee686e3          	beq	a3,a4,2130 <memcmp+0x20>
    2148:	40a78533          	sub	a0,a5,a0
    214c:	40a60633          	sub	a2,a2,a0
    2150:	00078513          	mv	a0,a5
    2154:	00c58633          	add	a2,a1,a2
    2158:	0140006f          	j	216c <memcmp+0x5c>
    215c:	0005c703          	lbu	a4,0(a1)
    2160:	fff54783          	lbu	a5,-1(a0)
    2164:	00158593          	addi	a1,a1,1
    2168:	00e79a63          	bne	a5,a4,217c <memcmp+0x6c>
    216c:	00150513          	addi	a0,a0,1
    2170:	fec596e3          	bne	a1,a2,215c <memcmp+0x4c>
    2174:	00000513          	li	a0,0
    2178:	00008067          	ret
    217c:	40e7853b          	subw	a0,a5,a4
    2180:	00008067          	ret

0000000000002184 <strcpy>:
    2184:	00050793          	mv	a5,a0
    2188:	0005c703          	lbu	a4,0(a1)
    218c:	00178793          	addi	a5,a5,1
    2190:	00158593          	addi	a1,a1,1
    2194:	fee78fa3          	sb	a4,-1(a5)
    2198:	fe0718e3          	bnez	a4,2188 <strcpy+0x4>
    219c:	00008067          	ret

00000000000021a0 <atol>:
    21a0:	00054703          	lbu	a4,0(a0)
    21a4:	02000693          	li	a3,32
    21a8:	00050793          	mv	a5,a0
    21ac:	00d71863          	bne	a4,a3,21bc <atol+0x1c>
    21b0:	0017c703          	lbu	a4,1(a5)
    21b4:	00178793          	addi	a5,a5,1
    21b8:	fed70ce3          	beq	a4,a3,21b0 <atol+0x10>
    21bc:	02d00693          	li	a3,45
    21c0:	06d70063          	beq	a4,a3,2220 <atol+0x80>
    21c4:	02b00693          	li	a3,43
    21c8:	04d70063          	beq	a4,a3,2208 <atol+0x68>
    21cc:	0007c683          	lbu	a3,0(a5)
    21d0:	00000593          	li	a1,0
    21d4:	04068263          	beqz	a3,2218 <atol+0x78>
    21d8:	00000513          	li	a0,0
    21dc:	00178793          	addi	a5,a5,1
    21e0:	fd06861b          	addiw	a2,a3,-48
    21e4:	00251713          	slli	a4,a0,0x2
    21e8:	0007c683          	lbu	a3,0(a5)
    21ec:	00a70533          	add	a0,a4,a0
    21f0:	00151513          	slli	a0,a0,0x1
    21f4:	00a60533          	add	a0,a2,a0
    21f8:	fe0692e3          	bnez	a3,21dc <atol+0x3c>
    21fc:	02058063          	beqz	a1,221c <atol+0x7c>
    2200:	40a00533          	neg	a0,a0
    2204:	00008067          	ret
    2208:	0017c683          	lbu	a3,1(a5)
    220c:	00000593          	li	a1,0
    2210:	00178793          	addi	a5,a5,1
    2214:	fc0692e3          	bnez	a3,21d8 <atol+0x38>
    2218:	00000513          	li	a0,0
    221c:	00008067          	ret
    2220:	0017c683          	lbu	a3,1(a5)
    2224:	00100593          	li	a1,1
    2228:	00178793          	addi	a5,a5,1
    222c:	fa0696e3          	bnez	a3,21d8 <atol+0x38>
    2230:	00000513          	li	a0,0
    2234:	fe9ff06f          	j	221c <atol+0x7c>

0000000000002238 <terminate>:
    2238:	fffff797          	auipc	a5,0xfffff
    223c:	dc878793          	addi	a5,a5,-568 # 1000 <tohost>
    2240:	0007b683          	ld	a3,0(a5)
    2244:	00050713          	mv	a4,a0
    2248:	00068a63          	beqz	a3,225c <terminate+0x24>
    224c:	fffff697          	auipc	a3,0xfffff
    2250:	de06ba23          	sd	zero,-524(a3) # 1040 <fromhost>
    2254:	0007b683          	ld	a3,0(a5)
    2258:	fe069ae3          	bnez	a3,224c <terminate+0x14>
    225c:	00e7b023          	sd	a4,0(a5)
    2260:	0000006f          	j	2260 <terminate+0x28>

0000000000002264 <wtf>:
    2264:	ff010113          	addi	sp,sp,-16
    2268:	34900513          	li	a0,841
    226c:	00113423          	sd	ra,8(sp)
    2270:	fc9ff0ef          	jal	ra,2238 <terminate>

0000000000002274 <printhex>:
    2274:	fe010113          	addi	sp,sp,-32
    2278:	00810613          	addi	a2,sp,8
    227c:	01710793          	addi	a5,sp,23
    2280:	00900813          	li	a6,9
    2284:	0080006f          	j	228c <printhex+0x18>
    2288:	00070793          	mv	a5,a4
    228c:	00f57693          	andi	a3,a0,15
    2290:	00068713          	mv	a4,a3
    2294:	03000593          	li	a1,48
    2298:	00d87463          	bgeu	a6,a3,22a0 <printhex+0x2c>
    229c:	05700593          	li	a1,87
    22a0:	00b7073b          	addw	a4,a4,a1
    22a4:	00e78023          	sb	a4,0(a5)
    22a8:	00455513          	srli	a0,a0,0x4
    22ac:	fff78713          	addi	a4,a5,-1
    22b0:	fcf61ce3          	bne	a2,a5,2288 <printhex+0x14>
    22b4:	00814783          	lbu	a5,8(sp)
    22b8:	00010c23          	sb	zero,24(sp)
    22bc:	04078263          	beqz	a5,2300 <printhex+0x8c>
    22c0:	10100513          	li	a0,257
    22c4:	00060693          	mv	a3,a2
    22c8:	fffff717          	auipc	a4,0xfffff
    22cc:	d3870713          	addi	a4,a4,-712 # 1000 <tohost>
    22d0:	03051513          	slli	a0,a0,0x30
    22d4:	00073583          	ld	a1,0(a4)
    22d8:	00168693          	addi	a3,a3,1
    22dc:	00a7e633          	or	a2,a5,a0
    22e0:	00058a63          	beqz	a1,22f4 <printhex+0x80>
    22e4:	fffff797          	auipc	a5,0xfffff
    22e8:	d407be23          	sd	zero,-676(a5) # 1040 <fromhost>
    22ec:	00073783          	ld	a5,0(a4)
    22f0:	fe079ae3          	bnez	a5,22e4 <printhex+0x70>
    22f4:	0006c783          	lbu	a5,0(a3)
    22f8:	00c73023          	sd	a2,0(a4)
    22fc:	fc079ce3          	bnez	a5,22d4 <printhex+0x60>
    2300:	02010113          	addi	sp,sp,32
    2304:	00008067          	ret

0000000000002308 <handle_fault>:
    2308:	fffff6b7          	lui	a3,0xfffff
    230c:	00d50733          	add	a4,a0,a3
    2310:	0003e7b7          	lui	a5,0x3e
    2314:	14f77063          	bgeu	a4,a5,2454 <handle_fault+0x14c>
    2318:	00c55893          	srli	a7,a0,0xc
    231c:	60088813          	addi	a6,a7,1536
    2320:	00005617          	auipc	a2,0x5
    2324:	ce060613          	addi	a2,a2,-800 # 7000 <pt>
    2328:	00381793          	slli	a5,a6,0x3
    232c:	00f607b3          	add	a5,a2,a5
    2330:	0007b703          	ld	a4,0(a5) # 3e000 <_end+0x32810>
    2334:	00d57533          	and	a0,a0,a3
    2338:	02070663          	beqz	a4,2364 <handle_fault+0x5c>
    233c:	04077693          	andi	a3,a4,64
    2340:	0e068c63          	beqz	a3,2438 <handle_fault+0x130>
    2344:	08077693          	andi	a3,a4,128
    2348:	16069263          	bnez	a3,24ac <handle_fault+0x1a4>
    234c:	00f00693          	li	a3,15
    2350:	14d59e63          	bne	a1,a3,24ac <handle_fault+0x1a4>
    2354:	08076713          	ori	a4,a4,128
    2358:	00e7b023          	sd	a4,0(a5)
    235c:	12050073          	sfence.vma	a0
    2360:	00008067          	ret
    2364:	00009697          	auipc	a3,0x9
    2368:	48468693          	addi	a3,a3,1156 # b7e8 <freelist_head>
    236c:	0006b703          	ld	a4,0(a3)
    2370:	18070463          	beqz	a4,24f8 <handle_fault+0x1f0>
    2374:	00873783          	ld	a5,8(a4)
    2378:	00009597          	auipc	a1,0x9
    237c:	4685b583          	ld	a1,1128(a1) # b7e0 <freelist_tail>
    2380:	00f6b023          	sd	a5,0(a3)
    2384:	0cb78263          	beq	a5,a1,2448 <handle_fault+0x140>
    2388:	00073783          	ld	a5,0(a4)
    238c:	00381593          	slli	a1,a6,0x3
    2390:	00b605b3          	add	a1,a2,a1
    2394:	00c7d793          	srli	a5,a5,0xc
    2398:	00a79793          	slli	a5,a5,0xa
    239c:	0df7e313          	ori	t1,a5,223
    23a0:	01f7e693          	ori	a3,a5,31
    23a4:	0065b023          	sd	t1,0(a1)
    23a8:	12050073          	sfence.vma	a0
    23ac:	00009797          	auipc	a5,0x9
    23b0:	04478793          	addi	a5,a5,68 # b3f0 <user_mapping>
    23b4:	00489893          	slli	a7,a7,0x4
    23b8:	011788b3          	add	a7,a5,a7
    23bc:	0008b783          	ld	a5,0(a7)
    23c0:	18079263          	bnez	a5,2544 <handle_fault+0x23c>
    23c4:	00073783          	ld	a5,0(a4)
    23c8:	00f8b023          	sd	a5,0(a7)
    23cc:	00873783          	ld	a5,8(a4)
    23d0:	00f8b423          	sd	a5,8(a7)
    23d4:	000408b7          	lui	a7,0x40
    23d8:	1008a8f3          	csrrs	a7,sstatus,a7
    23dc:	ffe007b7          	lui	a5,0xffe00
    23e0:	00f507b3          	add	a5,a0,a5
    23e4:	000015b7          	lui	a1,0x1
    23e8:	00050713          	mv	a4,a0
    23ec:	00b785b3          	add	a1,a5,a1
    23f0:	0007bf03          	ld	t5,0(a5) # ffffffffffe00000 <_end+0xffffffffffdf4810>
    23f4:	0087be83          	ld	t4,8(a5)
    23f8:	0107be03          	ld	t3,16(a5)
    23fc:	0187b303          	ld	t1,24(a5)
    2400:	01e73023          	sd	t5,0(a4)
    2404:	01d73423          	sd	t4,8(a4)
    2408:	01c73823          	sd	t3,16(a4)
    240c:	00673c23          	sd	t1,24(a4)
    2410:	02078793          	addi	a5,a5,32
    2414:	02070713          	addi	a4,a4,32
    2418:	fcb79ce3          	bne	a5,a1,23f0 <handle_fault+0xe8>
    241c:	10089073          	csrw	sstatus,a7
    2420:	00381813          	slli	a6,a6,0x3
    2424:	01060633          	add	a2,a2,a6
    2428:	00d63023          	sd	a3,0(a2)
    242c:	12050073          	sfence.vma	a0
    2430:	0000100f          	fence.i
    2434:	00008067          	ret
    2438:	04076713          	ori	a4,a4,64
    243c:	00e7b023          	sd	a4,0(a5)
    2440:	12050073          	sfence.vma	a0
    2444:	00008067          	ret
    2448:	00009797          	auipc	a5,0x9
    244c:	3807bc23          	sd	zero,920(a5) # b7e0 <freelist_tail>
    2450:	f39ff06f          	j	2388 <handle_fault+0x80>
    2454:	10100613          	li	a2,257
    2458:	04100713          	li	a4,65
    245c:	00004697          	auipc	a3,0x4
    2460:	b6c68693          	addi	a3,a3,-1172 # 5fc8 <pass+0xcf0>
    2464:	fffff797          	auipc	a5,0xfffff
    2468:	b9c78793          	addi	a5,a5,-1124 # 1000 <tohost>
    246c:	03061613          	slli	a2,a2,0x30
    2470:	0007b503          	ld	a0,0(a5)
    2474:	00168693          	addi	a3,a3,1
    2478:	00c765b3          	or	a1,a4,a2
    247c:	00050a63          	beqz	a0,2490 <handle_fault+0x188>
    2480:	fffff717          	auipc	a4,0xfffff
    2484:	bc073023          	sd	zero,-1088(a4) # 1040 <fromhost>
    2488:	0007b703          	ld	a4,0(a5)
    248c:	fe071ae3          	bnez	a4,2480 <handle_fault+0x178>
    2490:	0006c703          	lbu	a4,0(a3)
    2494:	00b7b023          	sd	a1,0(a5)
    2498:	fc071ce3          	bnez	a4,2470 <handle_fault+0x168>
    249c:	ff010113          	addi	sp,sp,-16
    24a0:	00300513          	li	a0,3
    24a4:	00113423          	sd	ra,8(sp)
    24a8:	d91ff0ef          	jal	ra,2238 <terminate>
    24ac:	10100613          	li	a2,257
    24b0:	04100713          	li	a4,65
    24b4:	00004697          	auipc	a3,0x4
    24b8:	b5c68693          	addi	a3,a3,-1188 # 6010 <pass+0xd38>
    24bc:	fffff797          	auipc	a5,0xfffff
    24c0:	b4478793          	addi	a5,a5,-1212 # 1000 <tohost>
    24c4:	03061613          	slli	a2,a2,0x30
    24c8:	0007b503          	ld	a0,0(a5)
    24cc:	00168693          	addi	a3,a3,1
    24d0:	00c765b3          	or	a1,a4,a2
    24d4:	00050a63          	beqz	a0,24e8 <handle_fault+0x1e0>
    24d8:	fffff717          	auipc	a4,0xfffff
    24dc:	b6073423          	sd	zero,-1176(a4) # 1040 <fromhost>
    24e0:	0007b703          	ld	a4,0(a5)
    24e4:	fe071ae3          	bnez	a4,24d8 <handle_fault+0x1d0>
    24e8:	0006c703          	lbu	a4,0(a3)
    24ec:	00b7b023          	sd	a1,0(a5)
    24f0:	fc071ce3          	bnez	a4,24c8 <handle_fault+0x1c0>
    24f4:	fa9ff06f          	j	249c <handle_fault+0x194>
    24f8:	10100693          	li	a3,257
    24fc:	04100713          	li	a4,65
    2500:	00004617          	auipc	a2,0x4
    2504:	b5860613          	addi	a2,a2,-1192 # 6058 <pass+0xd80>
    2508:	fffff797          	auipc	a5,0xfffff
    250c:	af878793          	addi	a5,a5,-1288 # 1000 <tohost>
    2510:	03069693          	slli	a3,a3,0x30
    2514:	0007b503          	ld	a0,0(a5)
    2518:	00160613          	addi	a2,a2,1
    251c:	00d765b3          	or	a1,a4,a3
    2520:	00050a63          	beqz	a0,2534 <handle_fault+0x22c>
    2524:	fffff717          	auipc	a4,0xfffff
    2528:	b0073e23          	sd	zero,-1252(a4) # 1040 <fromhost>
    252c:	0007b703          	ld	a4,0(a5)
    2530:	fe071ae3          	bnez	a4,2524 <handle_fault+0x21c>
    2534:	00064703          	lbu	a4,0(a2)
    2538:	00b7b023          	sd	a1,0(a5)
    253c:	fc071ce3          	bnez	a4,2514 <handle_fault+0x20c>
    2540:	f5dff06f          	j	249c <handle_fault+0x194>
    2544:	10100693          	li	a3,257
    2548:	04100713          	li	a4,65
    254c:	00004617          	auipc	a2,0x4
    2550:	b2460613          	addi	a2,a2,-1244 # 6070 <pass+0xd98>
    2554:	fffff797          	auipc	a5,0xfffff
    2558:	aac78793          	addi	a5,a5,-1364 # 1000 <tohost>
    255c:	03069693          	slli	a3,a3,0x30
    2560:	0007b503          	ld	a0,0(a5)
    2564:	00160613          	addi	a2,a2,1
    2568:	00d765b3          	or	a1,a4,a3
    256c:	00050a63          	beqz	a0,2580 <handle_fault+0x278>
    2570:	fffff717          	auipc	a4,0xfffff
    2574:	ac073823          	sd	zero,-1328(a4) # 1040 <fromhost>
    2578:	0007b703          	ld	a4,0(a5)
    257c:	fe071ae3          	bnez	a4,2570 <handle_fault+0x268>
    2580:	00064703          	lbu	a4,0(a2)
    2584:	00b7b023          	sd	a1,0(a5)
    2588:	fc071ce3          	bnez	a4,2560 <handle_fault+0x258>
    258c:	f11ff06f          	j	249c <handle_fault+0x194>

0000000000002590 <handle_trap>:
    2590:	11853583          	ld	a1,280(a0)
    2594:	f8010113          	addi	sp,sp,-128
    2598:	06813823          	sd	s0,112(sp)
    259c:	06113c23          	sd	ra,120(sp)
    25a0:	06913423          	sd	s1,104(sp)
    25a4:	07213023          	sd	s2,96(sp)
    25a8:	05313c23          	sd	s3,88(sp)
    25ac:	05413823          	sd	s4,80(sp)
    25b0:	05513423          	sd	s5,72(sp)
    25b4:	05613023          	sd	s6,64(sp)
    25b8:	03713c23          	sd	s7,56(sp)
    25bc:	03813823          	sd	s8,48(sp)
    25c0:	03913423          	sd	s9,40(sp)
    25c4:	03a13023          	sd	s10,32(sp)
    25c8:	01b13c23          	sd	s11,24(sp)
    25cc:	00800793          	li	a5,8
    25d0:	00050413          	mv	s0,a0
    25d4:	12f58663          	beq	a1,a5,2700 <handle_trap+0x170>
    25d8:	00200793          	li	a5,2
    25dc:	06f58063          	beq	a1,a5,263c <handle_trap+0xac>
    25e0:	ff458793          	addi	a5,a1,-12 # ff4 <trap_entry+0xeb0>
    25e4:	00100713          	li	a4,1
    25e8:	00f77663          	bgeu	a4,a5,25f4 <handle_trap+0x64>
    25ec:	00f00793          	li	a5,15
    25f0:	1cf59e63          	bne	a1,a5,27cc <handle_trap+0x23c>
    25f4:	11043503          	ld	a0,272(s0)
    25f8:	d11ff0ef          	jal	ra,2308 <handle_fault>
    25fc:	00040513          	mv	a0,s0
    2600:	07013403          	ld	s0,112(sp)
    2604:	07813083          	ld	ra,120(sp)
    2608:	06813483          	ld	s1,104(sp)
    260c:	06013903          	ld	s2,96(sp)
    2610:	05813983          	ld	s3,88(sp)
    2614:	05013a03          	ld	s4,80(sp)
    2618:	04813a83          	ld	s5,72(sp)
    261c:	04013b03          	ld	s6,64(sp)
    2620:	03813b83          	ld	s7,56(sp)
    2624:	03013c03          	ld	s8,48(sp)
    2628:	02813c83          	ld	s9,40(sp)
    262c:	02013d03          	ld	s10,32(sp)
    2630:	01813d83          	ld	s11,24(sp)
    2634:	08010113          	addi	sp,sp,128
    2638:	a85fd06f          	j	bc <pop_tf>
    263c:	10853703          	ld	a4,264(a0)
    2640:	00377793          	andi	a5,a4,3
    2644:	06079863          	bnez	a5,26b4 <handle_trap+0x124>
    2648:	008007ef          	jal	a5,2650 <handle_trap+0xc0>
    264c:	00301073          	fscsr	zero
    2650:	00072703          	lw	a4,0(a4)
    2654:	0007a783          	lw	a5,0(a5)
    2658:	04f70a63          	beq	a4,a5,26ac <handle_trap+0x11c>
    265c:	10100513          	li	a0,257
    2660:	04100793          	li	a5,65
    2664:	00004697          	auipc	a3,0x4
    2668:	ae468693          	addi	a3,a3,-1308 # 6148 <pass+0xe70>
    266c:	fffff717          	auipc	a4,0xfffff
    2670:	99470713          	addi	a4,a4,-1644 # 1000 <tohost>
    2674:	03051513          	slli	a0,a0,0x30
    2678:	00073583          	ld	a1,0(a4)
    267c:	00168693          	addi	a3,a3,1
    2680:	00a7e633          	or	a2,a5,a0
    2684:	00058a63          	beqz	a1,2698 <handle_trap+0x108>
    2688:	fffff797          	auipc	a5,0xfffff
    268c:	9a07bc23          	sd	zero,-1608(a5) # 1040 <fromhost>
    2690:	00073783          	ld	a5,0(a4)
    2694:	fe079ae3          	bnez	a5,2688 <handle_trap+0xf8>
    2698:	0006c783          	lbu	a5,0(a3)
    269c:	00c73023          	sd	a2,0(a4)
    26a0:	fc079ce3          	bnez	a5,2678 <handle_trap+0xe8>
    26a4:	00300513          	li	a0,3
    26a8:	b91ff0ef          	jal	ra,2238 <terminate>
    26ac:	00100513          	li	a0,1
    26b0:	b89ff0ef          	jal	ra,2238 <terminate>
    26b4:	10100793          	li	a5,257
    26b8:	00004617          	auipc	a2,0x4
    26bc:	a6860613          	addi	a2,a2,-1432 # 6120 <pass+0xe48>
    26c0:	04100693          	li	a3,65
    26c4:	fffff717          	auipc	a4,0xfffff
    26c8:	93c70713          	addi	a4,a4,-1732 # 1000 <tohost>
    26cc:	03079793          	slli	a5,a5,0x30
    26d0:	00073503          	ld	a0,0(a4)
    26d4:	00160613          	addi	a2,a2,1
    26d8:	00f6e5b3          	or	a1,a3,a5
    26dc:	00050a63          	beqz	a0,26f0 <handle_trap+0x160>
    26e0:	fffff697          	auipc	a3,0xfffff
    26e4:	9606b023          	sd	zero,-1696(a3) # 1040 <fromhost>
    26e8:	00073683          	ld	a3,0(a4)
    26ec:	fe069ae3          	bnez	a3,26e0 <handle_trap+0x150>
    26f0:	00064683          	lbu	a3,0(a2)
    26f4:	00b73023          	sd	a1,0(a4)
    26f8:	fc069ce3          	bnez	a3,26d0 <handle_trap+0x140>
    26fc:	fa9ff06f          	j	26a4 <handle_trap+0x114>
    2700:	05052903          	lw	s2,80(a0)
    2704:	00001c37          	lui	s8,0x1
    2708:	00009497          	auipc	s1,0x9
    270c:	ce848493          	addi	s1,s1,-792 # b3f0 <user_mapping>
    2710:	00005b97          	auipc	s7,0x5
    2714:	8f0b8b93          	addi	s7,s7,-1808 # 7000 <pt>
    2718:	00040b37          	lui	s6,0x40
    271c:	ffe00ab7          	lui	s5,0xffe00
    2720:	00009d97          	auipc	s11,0x9
    2724:	0c0d8d93          	addi	s11,s11,192 # b7e0 <freelist_tail>
    2728:	00009a17          	auipc	s4,0x9
    272c:	0c0a0a13          	addi	s4,s4,192 # b7e8 <freelist_head>
    2730:	0003f9b7          	lui	s3,0x3f
    2734:	0180006f          	j	274c <handle_trap+0x1bc>
    2738:	00f73423          	sd	a5,8(a4)
    273c:	00fdb023          	sd	a5,0(s11)
    2740:	000017b7          	lui	a5,0x1
    2744:	00fc0c33          	add	s8,s8,a5
    2748:	173c0063          	beq	s8,s3,28a8 <handle_trap+0x318>
    274c:	00cc5793          	srli	a5,s8,0xc
    2750:	00479413          	slli	s0,a5,0x4
    2754:	00848733          	add	a4,s1,s0
    2758:	00073703          	ld	a4,0(a4)
    275c:	fe0702e3          	beqz	a4,2740 <handle_trap+0x1b0>
    2760:	60078793          	addi	a5,a5,1536 # 1600 <fromhost+0x5c0>
    2764:	00379793          	slli	a5,a5,0x3
    2768:	00fb87b3          	add	a5,s7,a5
    276c:	0007bc83          	ld	s9,0(a5)
    2770:	040cf793          	andi	a5,s9,64
    2774:	0e078663          	beqz	a5,2860 <handle_trap+0x2d0>
    2778:	100b2d73          	csrrs	s10,sstatus,s6
    277c:	00001637          	lui	a2,0x1
    2780:	015c05b3          	add	a1,s8,s5
    2784:	000c0513          	mv	a0,s8
    2788:	00b13423          	sd	a1,8(sp)
    278c:	985ff0ef          	jal	ra,2110 <memcmp>
    2790:	00050e63          	beqz	a0,27ac <handle_trap+0x21c>
    2794:	080cfc93          	andi	s9,s9,128
    2798:	00813583          	ld	a1,8(sp)
    279c:	060c8e63          	beqz	s9,2818 <handle_trap+0x288>
    27a0:	00001637          	lui	a2,0x1
    27a4:	000c0513          	mv	a0,s8
    27a8:	859ff0ef          	jal	ra,2000 <memcpy>
    27ac:	008487b3          	add	a5,s1,s0
    27b0:	100d1073          	csrw	sstatus,s10
    27b4:	000db703          	ld	a4,0(s11)
    27b8:	0007b023          	sd	zero,0(a5)
    27bc:	f6071ee3          	bnez	a4,2738 <handle_trap+0x1a8>
    27c0:	00fdb023          	sd	a5,0(s11)
    27c4:	00fa3023          	sd	a5,0(s4)
    27c8:	f79ff06f          	j	2740 <handle_trap+0x1b0>
    27cc:	10100793          	li	a5,257
    27d0:	04100613          	li	a2,65
    27d4:	00004697          	auipc	a3,0x4
    27d8:	9a468693          	addi	a3,a3,-1628 # 6178 <pass+0xea0>
    27dc:	fffff717          	auipc	a4,0xfffff
    27e0:	82470713          	addi	a4,a4,-2012 # 1000 <tohost>
    27e4:	03079793          	slli	a5,a5,0x30
    27e8:	00073503          	ld	a0,0(a4)
    27ec:	00168693          	addi	a3,a3,1
    27f0:	00f665b3          	or	a1,a2,a5
    27f4:	00050a63          	beqz	a0,2808 <handle_trap+0x278>
    27f8:	fffff617          	auipc	a2,0xfffff
    27fc:	84063423          	sd	zero,-1976(a2) # 1040 <fromhost>
    2800:	00073603          	ld	a2,0(a4)
    2804:	fe061ae3          	bnez	a2,27f8 <handle_trap+0x268>
    2808:	0006c603          	lbu	a2,0(a3)
    280c:	00b73023          	sd	a1,0(a4)
    2810:	fc061ce3          	bnez	a2,27e8 <handle_trap+0x258>
    2814:	e91ff06f          	j	26a4 <handle_trap+0x114>
    2818:	10100793          	li	a5,257
    281c:	04100613          	li	a2,65
    2820:	00004697          	auipc	a3,0x4
    2824:	8c868693          	addi	a3,a3,-1848 # 60e8 <pass+0xe10>
    2828:	ffffe717          	auipc	a4,0xffffe
    282c:	7d870713          	addi	a4,a4,2008 # 1000 <tohost>
    2830:	03079793          	slli	a5,a5,0x30
    2834:	00168693          	addi	a3,a3,1
    2838:	00f665b3          	or	a1,a2,a5
    283c:	00c0006f          	j	2848 <handle_trap+0x2b8>
    2840:	fffff617          	auipc	a2,0xfffff
    2844:	80063023          	sd	zero,-2048(a2) # 1040 <fromhost>
    2848:	00073603          	ld	a2,0(a4)
    284c:	fe061ae3          	bnez	a2,2840 <handle_trap+0x2b0>
    2850:	0006c603          	lbu	a2,0(a3)
    2854:	00b73023          	sd	a1,0(a4)
    2858:	fc061ee3          	bnez	a2,2834 <handle_trap+0x2a4>
    285c:	e49ff06f          	j	26a4 <handle_trap+0x114>
    2860:	10100793          	li	a5,257
    2864:	04100613          	li	a2,65
    2868:	00004697          	auipc	a3,0x4
    286c:	84868693          	addi	a3,a3,-1976 # 60b0 <pass+0xdd8>
    2870:	ffffe717          	auipc	a4,0xffffe
    2874:	79070713          	addi	a4,a4,1936 # 1000 <tohost>
    2878:	03079793          	slli	a5,a5,0x30
    287c:	00168693          	addi	a3,a3,1
    2880:	00f665b3          	or	a1,a2,a5
    2884:	00c0006f          	j	2890 <handle_trap+0x300>
    2888:	ffffe617          	auipc	a2,0xffffe
    288c:	7a063c23          	sd	zero,1976(a2) # 1040 <fromhost>
    2890:	00073603          	ld	a2,0(a4)
    2894:	fe061ae3          	bnez	a2,2888 <handle_trap+0x2f8>
    2898:	0006c603          	lbu	a2,0(a3)
    289c:	00b73023          	sd	a1,0(a4)
    28a0:	fc061ee3          	bnez	a2,287c <handle_trap+0x2ec>
    28a4:	e01ff06f          	j	26a4 <handle_trap+0x114>
    28a8:	00090513          	mv	a0,s2
    28ac:	98dff0ef          	jal	ra,2238 <terminate>

00000000000028b0 <vm_boot>:
    28b0:	f14027f3          	csrr	a5,mhartid
    28b4:	18079863          	bnez	a5,2a44 <vm_boot+0x194>
    28b8:	00006797          	auipc	a5,0x6
    28bc:	74878793          	addi	a5,a5,1864 # 9000 <pt+0x2000>
    28c0:	ed010113          	addi	sp,sp,-304
    28c4:	00c7d793          	srli	a5,a5,0xc
    28c8:	12813023          	sd	s0,288(sp)
    28cc:	00007817          	auipc	a6,0x7
    28d0:	73480813          	addi	a6,a6,1844 # a000 <pt+0x3000>
    28d4:	00050413          	mv	s0,a0
    28d8:	00a79793          	slli	a5,a5,0xa
    28dc:	00005517          	auipc	a0,0x5
    28e0:	72450513          	addi	a0,a0,1828 # 8000 <pt+0x1000>
    28e4:	12113423          	sd	ra,296(sp)
    28e8:	00c55693          	srli	a3,a0,0xc
    28ec:	00c85713          	srli	a4,a6,0xc
    28f0:	0017e793          	ori	a5,a5,1
    28f4:	00004897          	auipc	a7,0x4
    28f8:	70c88893          	addi	a7,a7,1804 # 7000 <pt>
    28fc:	fff00613          	li	a2,-1
    2900:	fef53c23          	sd	a5,-8(a0)
    2904:	00a69693          	slli	a3,a3,0xa
    2908:	00a71713          	slli	a4,a4,0xa
    290c:	200007b7          	lui	a5,0x20000
    2910:	0016e693          	ori	a3,a3,1
    2914:	00176713          	ori	a4,a4,1
    2918:	00c8d593          	srli	a1,a7,0xc
    291c:	03f61313          	slli	t1,a2,0x3f
    2920:	0cf78793          	addi	a5,a5,207 # 200000cf <_end+0x1fff48df>
    2924:	fef83c23          	sd	a5,-8(a6)
    2928:	00d8b023          	sd	a3,0(a7)
    292c:	00e53023          	sd	a4,0(a0)
    2930:	0065e7b3          	or	a5,a1,t1
    2934:	18079073          	csrw	satp,a5
    2938:	18002773          	csrr	a4,satp
    293c:	14e79c63          	bne	a5,a4,2a94 <vm_boot+0x1e4>
    2940:	00b65613          	srli	a2,a2,0xb
    2944:	01f00793          	li	a5,31
    2948:	00000297          	auipc	t0,0x0
    294c:	01428293          	addi	t0,t0,20 # 295c <vm_boot+0xac>
    2950:	305292f3          	csrrw	t0,mtvec,t0
    2954:	3b061073          	csrw	pmpaddr0,a2
    2958:	3a079073          	csrw	pmpcfg0,a5
    295c:	30529073          	csrw	mtvec,t0
    2960:	bff00813          	li	a6,-1025
    2964:	01581813          	slli	a6,a6,0x15
    2968:	ffffd797          	auipc	a5,0xffffd
    296c:	7dc78793          	addi	a5,a5,2012 # 144 <trap_entry>
    2970:	010787b3          	add	a5,a5,a6
    2974:	10579073          	csrw	stvec,a5
    2978:	340027f3          	csrr	a5,mscratch
    297c:	010787b3          	add	a5,a5,a6
    2980:	14079073          	csrw	sscratch,a5
    2984:	0000b7b7          	lui	a5,0xb
    2988:	1007879b          	addiw	a5,a5,256
    298c:	30279073          	csrw	medeleg,a5
    2990:	0001e7b7          	lui	a5,0x1e
    2994:	6007879b          	addiw	a5,a5,1536
    2998:	30079073          	csrw	mstatus,a5
    299c:	30405073          	csrwi	mie,0
    29a0:	00008717          	auipc	a4,0x8
    29a4:	66070713          	addi	a4,a4,1632 # b000 <freelist_nodes>
    29a8:	010707b3          	add	a5,a4,a6
    29ac:	3e078693          	addi	a3,a5,992 # 1e3e0 <_end+0x12bf0>
    29b0:	00009617          	auipc	a2,0x9
    29b4:	e2f63c23          	sd	a5,-456(a2) # b7e8 <freelist_head>
    29b8:	000808b7          	lui	a7,0x80
    29bc:	00009797          	auipc	a5,0x9
    29c0:	e2d7b223          	sd	a3,-476(a5) # b7e0 <freelist_tail>
    29c4:	00009317          	auipc	t1,0x9
    29c8:	a2c30313          	addi	t1,t1,-1492 # b3f0 <user_mapping>
    29cc:	03000793          	li	a5,48
    29d0:	03f88893          	addi	a7,a7,63 # 8003f <_end+0x7484f>
    29d4:	01080813          	addi	a6,a6,16
    29d8:	0017d613          	srli	a2,a5,0x1
    29dc:	011786b3          	add	a3,a5,a7
    29e0:	00f647b3          	xor	a5,a2,a5
    29e4:	010705b3          	add	a1,a4,a6
    29e8:	00c69693          	slli	a3,a3,0xc
    29ec:	00579793          	slli	a5,a5,0x5
    29f0:	00d73023          	sd	a3,0(a4)
    29f4:	00b73423          	sd	a1,8(a4)
    29f8:	0207f793          	andi	a5,a5,32
    29fc:	01070713          	addi	a4,a4,16
    2a00:	00f667b3          	or	a5,a2,a5
    2a04:	fce31ae3          	bne	t1,a4,29d8 <vm_boot+0x128>
    2a08:	12000613          	li	a2,288
    2a0c:	00000593          	li	a1,0
    2a10:	00010513          	mv	a0,sp
    2a14:	00009797          	auipc	a5,0x9
    2a18:	9c07ba23          	sd	zero,-1580(a5) # b3e8 <freelist_nodes+0x3e8>
    2a1c:	e40ff0ef          	jal	ra,205c <memset>
    2a20:	800007b7          	lui	a5,0x80000
    2a24:	00f40433          	add	s0,s0,a5
    2a28:	00010513          	mv	a0,sp
    2a2c:	10813423          	sd	s0,264(sp)
    2a30:	e8cfd0ef          	jal	ra,bc <pop_tf>
    2a34:	12813083          	ld	ra,296(sp)
    2a38:	12013403          	ld	s0,288(sp)
    2a3c:	13010113          	addi	sp,sp,304
    2a40:	00008067          	ret
    2a44:	00100613          	li	a2,1
    2a48:	0db157b7          	lui	a5,0xdb15
    2a4c:	000805b7          	lui	a1,0x80
    2a50:	01f61513          	slli	a0,a2,0x1f
    2a54:	50c78793          	addi	a5,a5,1292 # db1550c <_end+0xdb09d1c>
    2a58:	ffc58593          	addi	a1,a1,-4 # 7fffc <_end+0x7480c>
    2a5c:	03e61613          	slli	a2,a2,0x3e
    2a60:	01c0006f          	j	2a7c <vm_boot+0x1cc>
    2a64:	0007202f          	amoadd.w	zero,zero,(a4)
    2a68:	0017d713          	srli	a4,a5,0x1
    2a6c:	00e7c7b3          	xor	a5,a5,a4
    2a70:	03e79793          	slli	a5,a5,0x3e
    2a74:	00c7f7b3          	and	a5,a5,a2
    2a78:	00e7e7b3          	or	a5,a5,a4
    2a7c:	00b7f733          	and	a4,a5,a1
    2a80:	0017f693          	andi	a3,a5,1
    2a84:	00a70733          	add	a4,a4,a0
    2a88:	fc069ee3          	bnez	a3,2a64 <vm_boot+0x1b4>
    2a8c:	00072003          	lw	zero,0(a4)
    2a90:	fd9ff06f          	j	2a68 <vm_boot+0x1b8>
    2a94:	10100793          	li	a5,257
    2a98:	04100613          	li	a2,65
    2a9c:	00003697          	auipc	a3,0x3
    2aa0:	70c68693          	addi	a3,a3,1804 # 61a8 <pass+0xed0>
    2aa4:	ffffe717          	auipc	a4,0xffffe
    2aa8:	55c70713          	addi	a4,a4,1372 # 1000 <tohost>
    2aac:	03079793          	slli	a5,a5,0x30
    2ab0:	00073503          	ld	a0,0(a4)
    2ab4:	00168693          	addi	a3,a3,1
    2ab8:	00f665b3          	or	a1,a2,a5
    2abc:	00050a63          	beqz	a0,2ad0 <vm_boot+0x220>
    2ac0:	ffffe617          	auipc	a2,0xffffe
    2ac4:	58063023          	sd	zero,1408(a2) # 1040 <fromhost>
    2ac8:	00073603          	ld	a2,0(a4)
    2acc:	fe061ae3          	bnez	a2,2ac0 <vm_boot+0x210>
    2ad0:	0006c603          	lbu	a2,0(a3)
    2ad4:	00b73023          	sd	a1,0(a4)
    2ad8:	fc061ce3          	bnez	a2,2ab0 <vm_boot+0x200>
    2adc:	00300513          	li	a0,3
    2ae0:	f58ff0ef          	jal	ra,2238 <terminate>
    2ae4:	0000                	unimp
    2ae6:	0000                	unimp
    2ae8:	0000                	unimp
    2aea:	0000                	unimp
    2aec:	0000                	unimp
    2aee:	0000                	unimp
    2af0:	0000                	unimp
    2af2:	0000                	unimp
    2af4:	0000                	unimp
    2af6:	0000                	unimp
    2af8:	0000                	unimp
    2afa:	0000                	unimp
    2afc:	0000                	unimp
    2afe:	0000                	unimp
    2b00:	0000                	unimp
    2b02:	0000                	unimp
    2b04:	0000                	unimp
    2b06:	0000                	unimp
    2b08:	0000                	unimp
    2b0a:	0000                	unimp
    2b0c:	0000                	unimp
    2b0e:	0000                	unimp
    2b10:	0000                	unimp
    2b12:	0000                	unimp
    2b14:	0000                	unimp
    2b16:	0000                	unimp
    2b18:	0000                	unimp
    2b1a:	0000                	unimp
    2b1c:	0000                	unimp
    2b1e:	0000                	unimp
    2b20:	0000                	unimp
    2b22:	0000                	unimp
    2b24:	0000                	unimp
    2b26:	0000                	unimp
    2b28:	0000                	unimp
    2b2a:	0000                	unimp
    2b2c:	0000                	unimp
    2b2e:	0000                	unimp
    2b30:	0000                	unimp
    2b32:	0000                	unimp
    2b34:	0000                	unimp
    2b36:	0000                	unimp
    2b38:	0000                	unimp
    2b3a:	0000                	unimp
    2b3c:	0000                	unimp
    2b3e:	0000                	unimp
    2b40:	0000                	unimp
    2b42:	0000                	unimp
    2b44:	0000                	unimp
    2b46:	0000                	unimp
    2b48:	0000                	unimp
    2b4a:	0000                	unimp
    2b4c:	0000                	unimp
    2b4e:	0000                	unimp
    2b50:	0000                	unimp
    2b52:	0000                	unimp
    2b54:	0000                	unimp
    2b56:	0000                	unimp
    2b58:	0000                	unimp
    2b5a:	0000                	unimp
    2b5c:	0000                	unimp
    2b5e:	0000                	unimp
    2b60:	0000                	unimp
    2b62:	0000                	unimp
    2b64:	0000                	unimp
    2b66:	0000                	unimp
    2b68:	0000                	unimp
    2b6a:	0000                	unimp
    2b6c:	0000                	unimp
    2b6e:	0000                	unimp
    2b70:	0000                	unimp
    2b72:	0000                	unimp
    2b74:	0000                	unimp
    2b76:	0000                	unimp
    2b78:	0000                	unimp
    2b7a:	0000                	unimp
    2b7c:	0000                	unimp
    2b7e:	0000                	unimp
    2b80:	0000                	unimp
    2b82:	0000                	unimp
    2b84:	0000                	unimp
    2b86:	0000                	unimp
    2b88:	0000                	unimp
    2b8a:	0000                	unimp
    2b8c:	0000                	unimp
    2b8e:	0000                	unimp
    2b90:	0000                	unimp
    2b92:	0000                	unimp
    2b94:	0000                	unimp
    2b96:	0000                	unimp
    2b98:	0000                	unimp
    2b9a:	0000                	unimp
    2b9c:	0000                	unimp
    2b9e:	0000                	unimp
    2ba0:	0000                	unimp
    2ba2:	0000                	unimp
    2ba4:	0000                	unimp
    2ba6:	0000                	unimp
    2ba8:	0000                	unimp
    2baa:	0000                	unimp
    2bac:	0000                	unimp
    2bae:	0000                	unimp
    2bb0:	0000                	unimp
    2bb2:	0000                	unimp
    2bb4:	0000                	unimp
    2bb6:	0000                	unimp
    2bb8:	0000                	unimp
    2bba:	0000                	unimp
    2bbc:	0000                	unimp
    2bbe:	0000                	unimp
    2bc0:	0000                	unimp
    2bc2:	0000                	unimp
    2bc4:	0000                	unimp
    2bc6:	0000                	unimp
    2bc8:	0000                	unimp
    2bca:	0000                	unimp
    2bcc:	0000                	unimp
    2bce:	0000                	unimp
    2bd0:	0000                	unimp
    2bd2:	0000                	unimp
    2bd4:	0000                	unimp
    2bd6:	0000                	unimp
    2bd8:	0000                	unimp
    2bda:	0000                	unimp
    2bdc:	0000                	unimp
    2bde:	0000                	unimp
    2be0:	0000                	unimp
    2be2:	0000                	unimp
    2be4:	0000                	unimp
    2be6:	0000                	unimp
    2be8:	0000                	unimp
    2bea:	0000                	unimp
    2bec:	0000                	unimp
    2bee:	0000                	unimp
    2bf0:	0000                	unimp
    2bf2:	0000                	unimp
    2bf4:	0000                	unimp
    2bf6:	0000                	unimp
    2bf8:	0000                	unimp
    2bfa:	0000                	unimp
    2bfc:	0000                	unimp
    2bfe:	0000                	unimp
    2c00:	0000                	unimp
    2c02:	0000                	unimp
    2c04:	0000                	unimp
    2c06:	0000                	unimp
    2c08:	0000                	unimp
    2c0a:	0000                	unimp
    2c0c:	0000                	unimp
    2c0e:	0000                	unimp
    2c10:	0000                	unimp
    2c12:	0000                	unimp
    2c14:	0000                	unimp
    2c16:	0000                	unimp
    2c18:	0000                	unimp
    2c1a:	0000                	unimp
    2c1c:	0000                	unimp
    2c1e:	0000                	unimp
    2c20:	0000                	unimp
    2c22:	0000                	unimp
    2c24:	0000                	unimp
    2c26:	0000                	unimp
    2c28:	0000                	unimp
    2c2a:	0000                	unimp
    2c2c:	0000                	unimp
    2c2e:	0000                	unimp
    2c30:	0000                	unimp
    2c32:	0000                	unimp
    2c34:	0000                	unimp
    2c36:	0000                	unimp
    2c38:	0000                	unimp
    2c3a:	0000                	unimp
    2c3c:	0000                	unimp
    2c3e:	0000                	unimp
    2c40:	0000                	unimp
    2c42:	0000                	unimp
    2c44:	0000                	unimp
    2c46:	0000                	unimp
    2c48:	0000                	unimp
    2c4a:	0000                	unimp
    2c4c:	0000                	unimp
    2c4e:	0000                	unimp
    2c50:	0000                	unimp
    2c52:	0000                	unimp
    2c54:	0000                	unimp
    2c56:	0000                	unimp
    2c58:	0000                	unimp
    2c5a:	0000                	unimp
    2c5c:	0000                	unimp
    2c5e:	0000                	unimp
    2c60:	0000                	unimp
    2c62:	0000                	unimp
    2c64:	0000                	unimp
    2c66:	0000                	unimp
    2c68:	0000                	unimp
    2c6a:	0000                	unimp
    2c6c:	0000                	unimp
    2c6e:	0000                	unimp
    2c70:	0000                	unimp
    2c72:	0000                	unimp
    2c74:	0000                	unimp
    2c76:	0000                	unimp
    2c78:	0000                	unimp
    2c7a:	0000                	unimp
    2c7c:	0000                	unimp
    2c7e:	0000                	unimp
    2c80:	0000                	unimp
    2c82:	0000                	unimp
    2c84:	0000                	unimp
    2c86:	0000                	unimp
    2c88:	0000                	unimp
    2c8a:	0000                	unimp
    2c8c:	0000                	unimp
    2c8e:	0000                	unimp
    2c90:	0000                	unimp
    2c92:	0000                	unimp
    2c94:	0000                	unimp
    2c96:	0000                	unimp
    2c98:	0000                	unimp
    2c9a:	0000                	unimp
    2c9c:	0000                	unimp
    2c9e:	0000                	unimp
    2ca0:	0000                	unimp
    2ca2:	0000                	unimp
    2ca4:	0000                	unimp
    2ca6:	0000                	unimp
    2ca8:	0000                	unimp
    2caa:	0000                	unimp
    2cac:	0000                	unimp
    2cae:	0000                	unimp
    2cb0:	0000                	unimp
    2cb2:	0000                	unimp
    2cb4:	0000                	unimp
    2cb6:	0000                	unimp
    2cb8:	0000                	unimp
    2cba:	0000                	unimp
    2cbc:	0000                	unimp
    2cbe:	0000                	unimp
    2cc0:	0000                	unimp
    2cc2:	0000                	unimp
    2cc4:	0000                	unimp
    2cc6:	0000                	unimp
    2cc8:	0000                	unimp
    2cca:	0000                	unimp
    2ccc:	0000                	unimp
    2cce:	0000                	unimp
    2cd0:	0000                	unimp
    2cd2:	0000                	unimp
    2cd4:	0000                	unimp
    2cd6:	0000                	unimp
    2cd8:	0000                	unimp
    2cda:	0000                	unimp
    2cdc:	0000                	unimp
    2cde:	0000                	unimp
    2ce0:	0000                	unimp
    2ce2:	0000                	unimp
    2ce4:	0000                	unimp
    2ce6:	0000                	unimp
    2ce8:	0000                	unimp
    2cea:	0000                	unimp
    2cec:	0000                	unimp
    2cee:	0000                	unimp
    2cf0:	0000                	unimp
    2cf2:	0000                	unimp
    2cf4:	0000                	unimp
    2cf6:	0000                	unimp
    2cf8:	0000                	unimp
    2cfa:	0000                	unimp
    2cfc:	0000                	unimp
    2cfe:	0000                	unimp
    2d00:	0000                	unimp
    2d02:	0000                	unimp
    2d04:	0000                	unimp
    2d06:	0000                	unimp
    2d08:	0000                	unimp
    2d0a:	0000                	unimp
    2d0c:	0000                	unimp
    2d0e:	0000                	unimp
    2d10:	0000                	unimp
    2d12:	0000                	unimp
    2d14:	0000                	unimp
    2d16:	0000                	unimp
    2d18:	0000                	unimp
    2d1a:	0000                	unimp
    2d1c:	0000                	unimp
    2d1e:	0000                	unimp
    2d20:	0000                	unimp
    2d22:	0000                	unimp
    2d24:	0000                	unimp
    2d26:	0000                	unimp
    2d28:	0000                	unimp
    2d2a:	0000                	unimp
    2d2c:	0000                	unimp
    2d2e:	0000                	unimp
    2d30:	0000                	unimp
    2d32:	0000                	unimp
    2d34:	0000                	unimp
    2d36:	0000                	unimp
    2d38:	0000                	unimp
    2d3a:	0000                	unimp
    2d3c:	0000                	unimp
    2d3e:	0000                	unimp
    2d40:	0000                	unimp
    2d42:	0000                	unimp
    2d44:	0000                	unimp
    2d46:	0000                	unimp
    2d48:	0000                	unimp
    2d4a:	0000                	unimp
    2d4c:	0000                	unimp
    2d4e:	0000                	unimp
    2d50:	0000                	unimp
    2d52:	0000                	unimp
    2d54:	0000                	unimp
    2d56:	0000                	unimp
    2d58:	0000                	unimp
    2d5a:	0000                	unimp
    2d5c:	0000                	unimp
    2d5e:	0000                	unimp
    2d60:	0000                	unimp
    2d62:	0000                	unimp
    2d64:	0000                	unimp
    2d66:	0000                	unimp
    2d68:	0000                	unimp
    2d6a:	0000                	unimp
    2d6c:	0000                	unimp
    2d6e:	0000                	unimp
    2d70:	0000                	unimp
    2d72:	0000                	unimp
    2d74:	0000                	unimp
    2d76:	0000                	unimp
    2d78:	0000                	unimp
    2d7a:	0000                	unimp
    2d7c:	0000                	unimp
    2d7e:	0000                	unimp
    2d80:	0000                	unimp
    2d82:	0000                	unimp
    2d84:	0000                	unimp
    2d86:	0000                	unimp
    2d88:	0000                	unimp
    2d8a:	0000                	unimp
    2d8c:	0000                	unimp
    2d8e:	0000                	unimp
    2d90:	0000                	unimp
    2d92:	0000                	unimp
    2d94:	0000                	unimp
    2d96:	0000                	unimp
    2d98:	0000                	unimp
    2d9a:	0000                	unimp
    2d9c:	0000                	unimp
    2d9e:	0000                	unimp
    2da0:	0000                	unimp
    2da2:	0000                	unimp
    2da4:	0000                	unimp
    2da6:	0000                	unimp
    2da8:	0000                	unimp
    2daa:	0000                	unimp
    2dac:	0000                	unimp
    2dae:	0000                	unimp
    2db0:	0000                	unimp
    2db2:	0000                	unimp
    2db4:	0000                	unimp
    2db6:	0000                	unimp
    2db8:	0000                	unimp
    2dba:	0000                	unimp
    2dbc:	0000                	unimp
    2dbe:	0000                	unimp
    2dc0:	0000                	unimp
    2dc2:	0000                	unimp
    2dc4:	0000                	unimp
    2dc6:	0000                	unimp
    2dc8:	0000                	unimp
    2dca:	0000                	unimp
    2dcc:	0000                	unimp
    2dce:	0000                	unimp
    2dd0:	0000                	unimp
    2dd2:	0000                	unimp
    2dd4:	0000                	unimp
    2dd6:	0000                	unimp
    2dd8:	0000                	unimp
    2dda:	0000                	unimp
    2ddc:	0000                	unimp
    2dde:	0000                	unimp
    2de0:	0000                	unimp
    2de2:	0000                	unimp
    2de4:	0000                	unimp
    2de6:	0000                	unimp
    2de8:	0000                	unimp
    2dea:	0000                	unimp
    2dec:	0000                	unimp
    2dee:	0000                	unimp
    2df0:	0000                	unimp
    2df2:	0000                	unimp
    2df4:	0000                	unimp
    2df6:	0000                	unimp
    2df8:	0000                	unimp
    2dfa:	0000                	unimp
    2dfc:	0000                	unimp
    2dfe:	0000                	unimp
    2e00:	0000                	unimp
    2e02:	0000                	unimp
    2e04:	0000                	unimp
    2e06:	0000                	unimp
    2e08:	0000                	unimp
    2e0a:	0000                	unimp
    2e0c:	0000                	unimp
    2e0e:	0000                	unimp
    2e10:	0000                	unimp
    2e12:	0000                	unimp
    2e14:	0000                	unimp
    2e16:	0000                	unimp
    2e18:	0000                	unimp
    2e1a:	0000                	unimp
    2e1c:	0000                	unimp
    2e1e:	0000                	unimp
    2e20:	0000                	unimp
    2e22:	0000                	unimp
    2e24:	0000                	unimp
    2e26:	0000                	unimp
    2e28:	0000                	unimp
    2e2a:	0000                	unimp
    2e2c:	0000                	unimp
    2e2e:	0000                	unimp
    2e30:	0000                	unimp
    2e32:	0000                	unimp
    2e34:	0000                	unimp
    2e36:	0000                	unimp
    2e38:	0000                	unimp
    2e3a:	0000                	unimp
    2e3c:	0000                	unimp
    2e3e:	0000                	unimp
    2e40:	0000                	unimp
    2e42:	0000                	unimp
    2e44:	0000                	unimp
    2e46:	0000                	unimp
    2e48:	0000                	unimp
    2e4a:	0000                	unimp
    2e4c:	0000                	unimp
    2e4e:	0000                	unimp
    2e50:	0000                	unimp
    2e52:	0000                	unimp
    2e54:	0000                	unimp
    2e56:	0000                	unimp
    2e58:	0000                	unimp
    2e5a:	0000                	unimp
    2e5c:	0000                	unimp
    2e5e:	0000                	unimp
    2e60:	0000                	unimp
    2e62:	0000                	unimp
    2e64:	0000                	unimp
    2e66:	0000                	unimp
    2e68:	0000                	unimp
    2e6a:	0000                	unimp
    2e6c:	0000                	unimp
    2e6e:	0000                	unimp
    2e70:	0000                	unimp
    2e72:	0000                	unimp
    2e74:	0000                	unimp
    2e76:	0000                	unimp
    2e78:	0000                	unimp
    2e7a:	0000                	unimp
    2e7c:	0000                	unimp
    2e7e:	0000                	unimp
    2e80:	0000                	unimp
    2e82:	0000                	unimp
    2e84:	0000                	unimp
    2e86:	0000                	unimp
    2e88:	0000                	unimp
    2e8a:	0000                	unimp
    2e8c:	0000                	unimp
    2e8e:	0000                	unimp
    2e90:	0000                	unimp
    2e92:	0000                	unimp
    2e94:	0000                	unimp
    2e96:	0000                	unimp
    2e98:	0000                	unimp
    2e9a:	0000                	unimp
    2e9c:	0000                	unimp
    2e9e:	0000                	unimp
    2ea0:	0000                	unimp
    2ea2:	0000                	unimp
    2ea4:	0000                	unimp
    2ea6:	0000                	unimp
    2ea8:	0000                	unimp
    2eaa:	0000                	unimp
    2eac:	0000                	unimp
    2eae:	0000                	unimp
    2eb0:	0000                	unimp
    2eb2:	0000                	unimp
    2eb4:	0000                	unimp
    2eb6:	0000                	unimp
    2eb8:	0000                	unimp
    2eba:	0000                	unimp
    2ebc:	0000                	unimp
    2ebe:	0000                	unimp
    2ec0:	0000                	unimp
    2ec2:	0000                	unimp
    2ec4:	0000                	unimp
    2ec6:	0000                	unimp
    2ec8:	0000                	unimp
    2eca:	0000                	unimp
    2ecc:	0000                	unimp
    2ece:	0000                	unimp
    2ed0:	0000                	unimp
    2ed2:	0000                	unimp
    2ed4:	0000                	unimp
    2ed6:	0000                	unimp
    2ed8:	0000                	unimp
    2eda:	0000                	unimp
    2edc:	0000                	unimp
    2ede:	0000                	unimp
    2ee0:	0000                	unimp
    2ee2:	0000                	unimp
    2ee4:	0000                	unimp
    2ee6:	0000                	unimp
    2ee8:	0000                	unimp
    2eea:	0000                	unimp
    2eec:	0000                	unimp
    2eee:	0000                	unimp
    2ef0:	0000                	unimp
    2ef2:	0000                	unimp
    2ef4:	0000                	unimp
    2ef6:	0000                	unimp
    2ef8:	0000                	unimp
    2efa:	0000                	unimp
    2efc:	0000                	unimp
    2efe:	0000                	unimp
    2f00:	0000                	unimp
    2f02:	0000                	unimp
    2f04:	0000                	unimp
    2f06:	0000                	unimp
    2f08:	0000                	unimp
    2f0a:	0000                	unimp
    2f0c:	0000                	unimp
    2f0e:	0000                	unimp
    2f10:	0000                	unimp
    2f12:	0000                	unimp
    2f14:	0000                	unimp
    2f16:	0000                	unimp
    2f18:	0000                	unimp
    2f1a:	0000                	unimp
    2f1c:	0000                	unimp
    2f1e:	0000                	unimp
    2f20:	0000                	unimp
    2f22:	0000                	unimp
    2f24:	0000                	unimp
    2f26:	0000                	unimp
    2f28:	0000                	unimp
    2f2a:	0000                	unimp
    2f2c:	0000                	unimp
    2f2e:	0000                	unimp
    2f30:	0000                	unimp
    2f32:	0000                	unimp
    2f34:	0000                	unimp
    2f36:	0000                	unimp
    2f38:	0000                	unimp
    2f3a:	0000                	unimp
    2f3c:	0000                	unimp
    2f3e:	0000                	unimp
    2f40:	0000                	unimp
    2f42:	0000                	unimp
    2f44:	0000                	unimp
    2f46:	0000                	unimp
    2f48:	0000                	unimp
    2f4a:	0000                	unimp
    2f4c:	0000                	unimp
    2f4e:	0000                	unimp
    2f50:	0000                	unimp
    2f52:	0000                	unimp
    2f54:	0000                	unimp
    2f56:	0000                	unimp
    2f58:	0000                	unimp
    2f5a:	0000                	unimp
    2f5c:	0000                	unimp
    2f5e:	0000                	unimp
    2f60:	0000                	unimp
    2f62:	0000                	unimp
    2f64:	0000                	unimp
    2f66:	0000                	unimp
    2f68:	0000                	unimp
    2f6a:	0000                	unimp
    2f6c:	0000                	unimp
    2f6e:	0000                	unimp
    2f70:	0000                	unimp
    2f72:	0000                	unimp
    2f74:	0000                	unimp
    2f76:	0000                	unimp
    2f78:	0000                	unimp
    2f7a:	0000                	unimp
    2f7c:	0000                	unimp
    2f7e:	0000                	unimp
    2f80:	0000                	unimp
    2f82:	0000                	unimp
    2f84:	0000                	unimp
    2f86:	0000                	unimp
    2f88:	0000                	unimp
    2f8a:	0000                	unimp
    2f8c:	0000                	unimp
    2f8e:	0000                	unimp
    2f90:	0000                	unimp
    2f92:	0000                	unimp
    2f94:	0000                	unimp
    2f96:	0000                	unimp
    2f98:	0000                	unimp
    2f9a:	0000                	unimp
    2f9c:	0000                	unimp
    2f9e:	0000                	unimp
    2fa0:	0000                	unimp
    2fa2:	0000                	unimp
    2fa4:	0000                	unimp
    2fa6:	0000                	unimp
    2fa8:	0000                	unimp
    2faa:	0000                	unimp
    2fac:	0000                	unimp
    2fae:	0000                	unimp
    2fb0:	0000                	unimp
    2fb2:	0000                	unimp
    2fb4:	0000                	unimp
    2fb6:	0000                	unimp
    2fb8:	0000                	unimp
    2fba:	0000                	unimp
    2fbc:	0000                	unimp
    2fbe:	0000                	unimp
    2fc0:	0000                	unimp
    2fc2:	0000                	unimp
    2fc4:	0000                	unimp
    2fc6:	0000                	unimp
    2fc8:	0000                	unimp
    2fca:	0000                	unimp
    2fcc:	0000                	unimp
    2fce:	0000                	unimp
    2fd0:	0000                	unimp
    2fd2:	0000                	unimp
    2fd4:	0000                	unimp
    2fd6:	0000                	unimp
    2fd8:	0000                	unimp
    2fda:	0000                	unimp
    2fdc:	0000                	unimp
    2fde:	0000                	unimp
    2fe0:	0000                	unimp
    2fe2:	0000                	unimp
    2fe4:	0000                	unimp
    2fe6:	0000                	unimp
    2fe8:	0000                	unimp
    2fea:	0000                	unimp
    2fec:	0000                	unimp
    2fee:	0000                	unimp
    2ff0:	0000                	unimp
    2ff2:	0000                	unimp
    2ff4:	0000                	unimp
    2ff6:	0000                	unimp
    2ff8:	0000                	unimp
    2ffa:	0000                	unimp
    2ffc:	0000                	unimp
    2ffe:	0000                	unimp

0000000000003000 <extra_boot>:
    3000:	00008067          	ret

0000000000003004 <userstart>:
    3004:	00200193          	li	gp,2
    3008:	29a00593          	li	a1,666

000000000000300c <test_2>:
    300c:	7f30106f          	j	4ffe <data+0x1fee>

0000000000003010 <data>:
    3010:	3210                	fld	fa2,32(a2)
    3012:	7654                	ld	a3,168(a2)
    3014:	ba98                	fsd	fa4,48(a3)
    3016:	fedc                	sd	a5,184(a3)
    3018:	3210                	fld	fa2,32(a2)
    301a:	7654                	ld	a3,168(a2)
    301c:	ba98                	fsd	fa4,48(a3)
    301e:	fedc                	sd	a5,184(a3)
    3020:	00000013          	nop
    3024:	00000013          	nop
    3028:	00000013          	nop
    302c:	00000013          	nop
    3030:	00000013          	nop
    3034:	00000013          	nop
    3038:	00000013          	nop
    303c:	00000013          	nop
    3040:	00000013          	nop
    3044:	00000013          	nop
    3048:	00000013          	nop
    304c:	00000013          	nop
    3050:	00000013          	nop
    3054:	00000013          	nop
    3058:	00000013          	nop
    305c:	00000013          	nop
    3060:	00000013          	nop
    3064:	00000013          	nop
    3068:	00000013          	nop
    306c:	00000013          	nop
    3070:	00000013          	nop
    3074:	00000013          	nop
    3078:	00000013          	nop
    307c:	00000013          	nop
    3080:	00000013          	nop
    3084:	00000013          	nop
    3088:	00000013          	nop
    308c:	00000013          	nop
    3090:	00000013          	nop
    3094:	00000013          	nop
    3098:	00000013          	nop
    309c:	00000013          	nop
    30a0:	00000013          	nop
    30a4:	00000013          	nop
    30a8:	00000013          	nop
    30ac:	00000013          	nop
    30b0:	00000013          	nop
    30b4:	00000013          	nop
    30b8:	00000013          	nop
    30bc:	00000013          	nop
    30c0:	00000013          	nop
    30c4:	00000013          	nop
    30c8:	00000013          	nop
    30cc:	00000013          	nop
    30d0:	00000013          	nop
    30d4:	00000013          	nop
    30d8:	00000013          	nop
    30dc:	00000013          	nop
    30e0:	00000013          	nop
    30e4:	00000013          	nop
    30e8:	00000013          	nop
    30ec:	00000013          	nop
    30f0:	00000013          	nop
    30f4:	00000013          	nop
    30f8:	00000013          	nop
    30fc:	00000013          	nop
    3100:	00000013          	nop
    3104:	00000013          	nop
    3108:	00000013          	nop
    310c:	00000013          	nop
    3110:	00000013          	nop
    3114:	00000013          	nop
    3118:	00000013          	nop
    311c:	00000013          	nop
    3120:	00000013          	nop
    3124:	00000013          	nop
    3128:	00000013          	nop
    312c:	00000013          	nop
    3130:	00000013          	nop
    3134:	00000013          	nop
    3138:	00000013          	nop
    313c:	00000013          	nop
    3140:	00000013          	nop
    3144:	00000013          	nop
    3148:	00000013          	nop
    314c:	00000013          	nop
    3150:	00000013          	nop
    3154:	00000013          	nop
    3158:	00000013          	nop
    315c:	00000013          	nop
    3160:	00000013          	nop
    3164:	00000013          	nop
    3168:	00000013          	nop
    316c:	00000013          	nop
    3170:	00000013          	nop
    3174:	00000013          	nop
    3178:	00000013          	nop
    317c:	00000013          	nop
    3180:	00000013          	nop
    3184:	00000013          	nop
    3188:	00000013          	nop
    318c:	00000013          	nop
    3190:	00000013          	nop
    3194:	00000013          	nop
    3198:	00000013          	nop
    319c:	00000013          	nop
    31a0:	00000013          	nop
    31a4:	00000013          	nop
    31a8:	00000013          	nop
    31ac:	00000013          	nop
    31b0:	00000013          	nop
    31b4:	00000013          	nop
    31b8:	00000013          	nop
    31bc:	00000013          	nop
    31c0:	00000013          	nop
    31c4:	00000013          	nop
    31c8:	00000013          	nop
    31cc:	00000013          	nop
    31d0:	00000013          	nop
    31d4:	00000013          	nop
    31d8:	00000013          	nop
    31dc:	00000013          	nop
    31e0:	00000013          	nop
    31e4:	00000013          	nop
    31e8:	00000013          	nop
    31ec:	00000013          	nop
    31f0:	00000013          	nop
    31f4:	00000013          	nop
    31f8:	00000013          	nop
    31fc:	00000013          	nop
    3200:	00000013          	nop
    3204:	00000013          	nop
    3208:	00000013          	nop
    320c:	00000013          	nop
    3210:	00000013          	nop
    3214:	00000013          	nop
    3218:	00000013          	nop
    321c:	00000013          	nop
    3220:	00000013          	nop
    3224:	00000013          	nop
    3228:	00000013          	nop
    322c:	00000013          	nop
    3230:	00000013          	nop
    3234:	00000013          	nop
    3238:	00000013          	nop
    323c:	00000013          	nop
    3240:	00000013          	nop
    3244:	00000013          	nop
    3248:	00000013          	nop
    324c:	00000013          	nop
    3250:	00000013          	nop
    3254:	00000013          	nop
    3258:	00000013          	nop
    325c:	00000013          	nop
    3260:	00000013          	nop
    3264:	00000013          	nop
    3268:	00000013          	nop
    326c:	00000013          	nop
    3270:	00000013          	nop
    3274:	00000013          	nop
    3278:	00000013          	nop
    327c:	00000013          	nop
    3280:	00000013          	nop
    3284:	00000013          	nop
    3288:	00000013          	nop
    328c:	00000013          	nop
    3290:	00000013          	nop
    3294:	00000013          	nop
    3298:	00000013          	nop
    329c:	00000013          	nop
    32a0:	00000013          	nop
    32a4:	00000013          	nop
    32a8:	00000013          	nop
    32ac:	00000013          	nop
    32b0:	00000013          	nop
    32b4:	00000013          	nop
    32b8:	00000013          	nop
    32bc:	00000013          	nop
    32c0:	00000013          	nop
    32c4:	00000013          	nop
    32c8:	00000013          	nop
    32cc:	00000013          	nop
    32d0:	00000013          	nop
    32d4:	00000013          	nop
    32d8:	00000013          	nop
    32dc:	00000013          	nop
    32e0:	00000013          	nop
    32e4:	00000013          	nop
    32e8:	00000013          	nop
    32ec:	00000013          	nop
    32f0:	00000013          	nop
    32f4:	00000013          	nop
    32f8:	00000013          	nop
    32fc:	00000013          	nop
    3300:	00000013          	nop
    3304:	00000013          	nop
    3308:	00000013          	nop
    330c:	00000013          	nop
    3310:	00000013          	nop
    3314:	00000013          	nop
    3318:	00000013          	nop
    331c:	00000013          	nop
    3320:	00000013          	nop
    3324:	00000013          	nop
    3328:	00000013          	nop
    332c:	00000013          	nop
    3330:	00000013          	nop
    3334:	00000013          	nop
    3338:	00000013          	nop
    333c:	00000013          	nop
    3340:	00000013          	nop
    3344:	00000013          	nop
    3348:	00000013          	nop
    334c:	00000013          	nop
    3350:	00000013          	nop
    3354:	00000013          	nop
    3358:	00000013          	nop
    335c:	00000013          	nop
    3360:	00000013          	nop
    3364:	00000013          	nop
    3368:	00000013          	nop
    336c:	00000013          	nop
    3370:	00000013          	nop
    3374:	00000013          	nop
    3378:	00000013          	nop
    337c:	00000013          	nop
    3380:	00000013          	nop
    3384:	00000013          	nop
    3388:	00000013          	nop
    338c:	00000013          	nop
    3390:	00000013          	nop
    3394:	00000013          	nop
    3398:	00000013          	nop
    339c:	00000013          	nop
    33a0:	00000013          	nop
    33a4:	00000013          	nop
    33a8:	00000013          	nop
    33ac:	00000013          	nop
    33b0:	00000013          	nop
    33b4:	00000013          	nop
    33b8:	00000013          	nop
    33bc:	00000013          	nop
    33c0:	00000013          	nop
    33c4:	00000013          	nop
    33c8:	00000013          	nop
    33cc:	00000013          	nop
    33d0:	00000013          	nop
    33d4:	00000013          	nop
    33d8:	00000013          	nop
    33dc:	00000013          	nop
    33e0:	00000013          	nop
    33e4:	00000013          	nop
    33e8:	00000013          	nop
    33ec:	00000013          	nop
    33f0:	00000013          	nop
    33f4:	00000013          	nop
    33f8:	00000013          	nop
    33fc:	00000013          	nop
    3400:	00000013          	nop
    3404:	00000013          	nop
    3408:	00000013          	nop
    340c:	00000013          	nop
    3410:	00000013          	nop
    3414:	00000013          	nop
    3418:	00000013          	nop
    341c:	00000013          	nop
    3420:	00000013          	nop
    3424:	00000013          	nop
    3428:	00000013          	nop
    342c:	00000013          	nop
    3430:	00000013          	nop
    3434:	00000013          	nop
    3438:	00000013          	nop
    343c:	00000013          	nop
    3440:	00000013          	nop
    3444:	00000013          	nop
    3448:	00000013          	nop
    344c:	00000013          	nop
    3450:	00000013          	nop
    3454:	00000013          	nop
    3458:	00000013          	nop
    345c:	00000013          	nop
    3460:	00000013          	nop
    3464:	00000013          	nop
    3468:	00000013          	nop
    346c:	00000013          	nop
    3470:	00000013          	nop
    3474:	00000013          	nop
    3478:	00000013          	nop
    347c:	00000013          	nop
    3480:	00000013          	nop
    3484:	00000013          	nop
    3488:	00000013          	nop
    348c:	00000013          	nop
    3490:	00000013          	nop
    3494:	00000013          	nop
    3498:	00000013          	nop
    349c:	00000013          	nop
    34a0:	00000013          	nop
    34a4:	00000013          	nop
    34a8:	00000013          	nop
    34ac:	00000013          	nop
    34b0:	00000013          	nop
    34b4:	00000013          	nop
    34b8:	00000013          	nop
    34bc:	00000013          	nop
    34c0:	00000013          	nop
    34c4:	00000013          	nop
    34c8:	00000013          	nop
    34cc:	00000013          	nop
    34d0:	00000013          	nop
    34d4:	00000013          	nop
    34d8:	00000013          	nop
    34dc:	00000013          	nop
    34e0:	00000013          	nop
    34e4:	00000013          	nop
    34e8:	00000013          	nop
    34ec:	00000013          	nop
    34f0:	00000013          	nop
    34f4:	00000013          	nop
    34f8:	00000013          	nop
    34fc:	00000013          	nop
    3500:	00000013          	nop
    3504:	00000013          	nop
    3508:	00000013          	nop
    350c:	00000013          	nop
    3510:	00000013          	nop
    3514:	00000013          	nop
    3518:	00000013          	nop
    351c:	00000013          	nop
    3520:	00000013          	nop
    3524:	00000013          	nop
    3528:	00000013          	nop
    352c:	00000013          	nop
    3530:	00000013          	nop
    3534:	00000013          	nop
    3538:	00000013          	nop
    353c:	00000013          	nop
    3540:	00000013          	nop
    3544:	00000013          	nop
    3548:	00000013          	nop
    354c:	00000013          	nop
    3550:	00000013          	nop
    3554:	00000013          	nop
    3558:	00000013          	nop
    355c:	00000013          	nop
    3560:	00000013          	nop
    3564:	00000013          	nop
    3568:	00000013          	nop
    356c:	00000013          	nop
    3570:	00000013          	nop
    3574:	00000013          	nop
    3578:	00000013          	nop
    357c:	00000013          	nop
    3580:	00000013          	nop
    3584:	00000013          	nop
    3588:	00000013          	nop
    358c:	00000013          	nop
    3590:	00000013          	nop
    3594:	00000013          	nop
    3598:	00000013          	nop
    359c:	00000013          	nop
    35a0:	00000013          	nop
    35a4:	00000013          	nop
    35a8:	00000013          	nop
    35ac:	00000013          	nop
    35b0:	00000013          	nop
    35b4:	00000013          	nop
    35b8:	00000013          	nop
    35bc:	00000013          	nop
    35c0:	00000013          	nop
    35c4:	00000013          	nop
    35c8:	00000013          	nop
    35cc:	00000013          	nop
    35d0:	00000013          	nop
    35d4:	00000013          	nop
    35d8:	00000013          	nop
    35dc:	00000013          	nop
    35e0:	00000013          	nop
    35e4:	00000013          	nop
    35e8:	00000013          	nop
    35ec:	00000013          	nop
    35f0:	00000013          	nop
    35f4:	00000013          	nop
    35f8:	00000013          	nop
    35fc:	00000013          	nop
    3600:	00000013          	nop
    3604:	00000013          	nop
    3608:	00000013          	nop
    360c:	00000013          	nop
    3610:	00000013          	nop
    3614:	00000013          	nop
    3618:	00000013          	nop
    361c:	00000013          	nop
    3620:	00000013          	nop
    3624:	00000013          	nop
    3628:	00000013          	nop
    362c:	00000013          	nop
    3630:	00000013          	nop
    3634:	00000013          	nop
    3638:	00000013          	nop
    363c:	00000013          	nop
    3640:	00000013          	nop
    3644:	00000013          	nop
    3648:	00000013          	nop
    364c:	00000013          	nop
    3650:	00000013          	nop
    3654:	00000013          	nop
    3658:	00000013          	nop
    365c:	00000013          	nop
    3660:	00000013          	nop
    3664:	00000013          	nop
    3668:	00000013          	nop
    366c:	00000013          	nop
    3670:	00000013          	nop
    3674:	00000013          	nop
    3678:	00000013          	nop
    367c:	00000013          	nop
    3680:	00000013          	nop
    3684:	00000013          	nop
    3688:	00000013          	nop
    368c:	00000013          	nop
    3690:	00000013          	nop
    3694:	00000013          	nop
    3698:	00000013          	nop
    369c:	00000013          	nop
    36a0:	00000013          	nop
    36a4:	00000013          	nop
    36a8:	00000013          	nop
    36ac:	00000013          	nop
    36b0:	00000013          	nop
    36b4:	00000013          	nop
    36b8:	00000013          	nop
    36bc:	00000013          	nop
    36c0:	00000013          	nop
    36c4:	00000013          	nop
    36c8:	00000013          	nop
    36cc:	00000013          	nop
    36d0:	00000013          	nop
    36d4:	00000013          	nop
    36d8:	00000013          	nop
    36dc:	00000013          	nop
    36e0:	00000013          	nop
    36e4:	00000013          	nop
    36e8:	00000013          	nop
    36ec:	00000013          	nop
    36f0:	00000013          	nop
    36f4:	00000013          	nop
    36f8:	00000013          	nop
    36fc:	00000013          	nop
    3700:	00000013          	nop
    3704:	00000013          	nop
    3708:	00000013          	nop
    370c:	00000013          	nop
    3710:	00000013          	nop
    3714:	00000013          	nop
    3718:	00000013          	nop
    371c:	00000013          	nop
    3720:	00000013          	nop
    3724:	00000013          	nop
    3728:	00000013          	nop
    372c:	00000013          	nop
    3730:	00000013          	nop
    3734:	00000013          	nop
    3738:	00000013          	nop
    373c:	00000013          	nop
    3740:	00000013          	nop
    3744:	00000013          	nop
    3748:	00000013          	nop
    374c:	00000013          	nop
    3750:	00000013          	nop
    3754:	00000013          	nop
    3758:	00000013          	nop
    375c:	00000013          	nop
    3760:	00000013          	nop
    3764:	00000013          	nop
    3768:	00000013          	nop
    376c:	00000013          	nop
    3770:	00000013          	nop
    3774:	00000013          	nop
    3778:	00000013          	nop
    377c:	00000013          	nop
    3780:	00000013          	nop
    3784:	00000013          	nop
    3788:	00000013          	nop
    378c:	00000013          	nop
    3790:	00000013          	nop
    3794:	00000013          	nop
    3798:	00000013          	nop
    379c:	00000013          	nop
    37a0:	00000013          	nop
    37a4:	00000013          	nop
    37a8:	00000013          	nop
    37ac:	00000013          	nop
    37b0:	00000013          	nop
    37b4:	00000013          	nop
    37b8:	00000013          	nop
    37bc:	00000013          	nop
    37c0:	00000013          	nop
    37c4:	00000013          	nop
    37c8:	00000013          	nop
    37cc:	00000013          	nop
    37d0:	00000013          	nop
    37d4:	00000013          	nop
    37d8:	00000013          	nop
    37dc:	00000013          	nop
    37e0:	00000013          	nop
    37e4:	00000013          	nop
    37e8:	00000013          	nop
    37ec:	00000013          	nop
    37f0:	00000013          	nop
    37f4:	00000013          	nop
    37f8:	00000013          	nop
    37fc:	00000013          	nop
    3800:	00000013          	nop
    3804:	00000013          	nop
    3808:	00000013          	nop
    380c:	00000013          	nop
    3810:	00000013          	nop
    3814:	00000013          	nop
    3818:	00000013          	nop
    381c:	00000013          	nop
    3820:	00000013          	nop
    3824:	00000013          	nop
    3828:	00000013          	nop
    382c:	00000013          	nop
    3830:	00000013          	nop
    3834:	00000013          	nop
    3838:	00000013          	nop
    383c:	00000013          	nop
    3840:	00000013          	nop
    3844:	00000013          	nop
    3848:	00000013          	nop
    384c:	00000013          	nop
    3850:	00000013          	nop
    3854:	00000013          	nop
    3858:	00000013          	nop
    385c:	00000013          	nop
    3860:	00000013          	nop
    3864:	00000013          	nop
    3868:	00000013          	nop
    386c:	00000013          	nop
    3870:	00000013          	nop
    3874:	00000013          	nop
    3878:	00000013          	nop
    387c:	00000013          	nop
    3880:	00000013          	nop
    3884:	00000013          	nop
    3888:	00000013          	nop
    388c:	00000013          	nop
    3890:	00000013          	nop
    3894:	00000013          	nop
    3898:	00000013          	nop
    389c:	00000013          	nop
    38a0:	00000013          	nop
    38a4:	00000013          	nop
    38a8:	00000013          	nop
    38ac:	00000013          	nop
    38b0:	00000013          	nop
    38b4:	00000013          	nop
    38b8:	00000013          	nop
    38bc:	00000013          	nop
    38c0:	00000013          	nop
    38c4:	00000013          	nop
    38c8:	00000013          	nop
    38cc:	00000013          	nop
    38d0:	00000013          	nop
    38d4:	00000013          	nop
    38d8:	00000013          	nop
    38dc:	00000013          	nop
    38e0:	00000013          	nop
    38e4:	00000013          	nop
    38e8:	00000013          	nop
    38ec:	00000013          	nop
    38f0:	00000013          	nop
    38f4:	00000013          	nop
    38f8:	00000013          	nop
    38fc:	00000013          	nop
    3900:	00000013          	nop
    3904:	00000013          	nop
    3908:	00000013          	nop
    390c:	00000013          	nop
    3910:	00000013          	nop
    3914:	00000013          	nop
    3918:	00000013          	nop
    391c:	00000013          	nop
    3920:	00000013          	nop
    3924:	00000013          	nop
    3928:	00000013          	nop
    392c:	00000013          	nop
    3930:	00000013          	nop
    3934:	00000013          	nop
    3938:	00000013          	nop
    393c:	00000013          	nop
    3940:	00000013          	nop
    3944:	00000013          	nop
    3948:	00000013          	nop
    394c:	00000013          	nop
    3950:	00000013          	nop
    3954:	00000013          	nop
    3958:	00000013          	nop
    395c:	00000013          	nop
    3960:	00000013          	nop
    3964:	00000013          	nop
    3968:	00000013          	nop
    396c:	00000013          	nop
    3970:	00000013          	nop
    3974:	00000013          	nop
    3978:	00000013          	nop
    397c:	00000013          	nop
    3980:	00000013          	nop
    3984:	00000013          	nop
    3988:	00000013          	nop
    398c:	00000013          	nop
    3990:	00000013          	nop
    3994:	00000013          	nop
    3998:	00000013          	nop
    399c:	00000013          	nop
    39a0:	00000013          	nop
    39a4:	00000013          	nop
    39a8:	00000013          	nop
    39ac:	00000013          	nop
    39b0:	00000013          	nop
    39b4:	00000013          	nop
    39b8:	00000013          	nop
    39bc:	00000013          	nop
    39c0:	00000013          	nop
    39c4:	00000013          	nop
    39c8:	00000013          	nop
    39cc:	00000013          	nop
    39d0:	00000013          	nop
    39d4:	00000013          	nop
    39d8:	00000013          	nop
    39dc:	00000013          	nop
    39e0:	00000013          	nop
    39e4:	00000013          	nop
    39e8:	00000013          	nop
    39ec:	00000013          	nop
    39f0:	00000013          	nop
    39f4:	00000013          	nop
    39f8:	00000013          	nop
    39fc:	00000013          	nop
    3a00:	00000013          	nop
    3a04:	00000013          	nop
    3a08:	00000013          	nop
    3a0c:	00000013          	nop
    3a10:	00000013          	nop
    3a14:	00000013          	nop
    3a18:	00000013          	nop
    3a1c:	00000013          	nop
    3a20:	00000013          	nop
    3a24:	00000013          	nop
    3a28:	00000013          	nop
    3a2c:	00000013          	nop
    3a30:	00000013          	nop
    3a34:	00000013          	nop
    3a38:	00000013          	nop
    3a3c:	00000013          	nop
    3a40:	00000013          	nop
    3a44:	00000013          	nop
    3a48:	00000013          	nop
    3a4c:	00000013          	nop
    3a50:	00000013          	nop
    3a54:	00000013          	nop
    3a58:	00000013          	nop
    3a5c:	00000013          	nop
    3a60:	00000013          	nop
    3a64:	00000013          	nop
    3a68:	00000013          	nop
    3a6c:	00000013          	nop
    3a70:	00000013          	nop
    3a74:	00000013          	nop
    3a78:	00000013          	nop
    3a7c:	00000013          	nop
    3a80:	00000013          	nop
    3a84:	00000013          	nop
    3a88:	00000013          	nop
    3a8c:	00000013          	nop
    3a90:	00000013          	nop
    3a94:	00000013          	nop
    3a98:	00000013          	nop
    3a9c:	00000013          	nop
    3aa0:	00000013          	nop
    3aa4:	00000013          	nop
    3aa8:	00000013          	nop
    3aac:	00000013          	nop
    3ab0:	00000013          	nop
    3ab4:	00000013          	nop
    3ab8:	00000013          	nop
    3abc:	00000013          	nop
    3ac0:	00000013          	nop
    3ac4:	00000013          	nop
    3ac8:	00000013          	nop
    3acc:	00000013          	nop
    3ad0:	00000013          	nop
    3ad4:	00000013          	nop
    3ad8:	00000013          	nop
    3adc:	00000013          	nop
    3ae0:	00000013          	nop
    3ae4:	00000013          	nop
    3ae8:	00000013          	nop
    3aec:	00000013          	nop
    3af0:	00000013          	nop
    3af4:	00000013          	nop
    3af8:	00000013          	nop
    3afc:	00000013          	nop
    3b00:	00000013          	nop
    3b04:	00000013          	nop
    3b08:	00000013          	nop
    3b0c:	00000013          	nop
    3b10:	00000013          	nop
    3b14:	00000013          	nop
    3b18:	00000013          	nop
    3b1c:	00000013          	nop
    3b20:	00000013          	nop
    3b24:	00000013          	nop
    3b28:	00000013          	nop
    3b2c:	00000013          	nop
    3b30:	00000013          	nop
    3b34:	00000013          	nop
    3b38:	00000013          	nop
    3b3c:	00000013          	nop
    3b40:	00000013          	nop
    3b44:	00000013          	nop
    3b48:	00000013          	nop
    3b4c:	00000013          	nop
    3b50:	00000013          	nop
    3b54:	00000013          	nop
    3b58:	00000013          	nop
    3b5c:	00000013          	nop
    3b60:	00000013          	nop
    3b64:	00000013          	nop
    3b68:	00000013          	nop
    3b6c:	00000013          	nop
    3b70:	00000013          	nop
    3b74:	00000013          	nop
    3b78:	00000013          	nop
    3b7c:	00000013          	nop
    3b80:	00000013          	nop
    3b84:	00000013          	nop
    3b88:	00000013          	nop
    3b8c:	00000013          	nop
    3b90:	00000013          	nop
    3b94:	00000013          	nop
    3b98:	00000013          	nop
    3b9c:	00000013          	nop
    3ba0:	00000013          	nop
    3ba4:	00000013          	nop
    3ba8:	00000013          	nop
    3bac:	00000013          	nop
    3bb0:	00000013          	nop
    3bb4:	00000013          	nop
    3bb8:	00000013          	nop
    3bbc:	00000013          	nop
    3bc0:	00000013          	nop
    3bc4:	00000013          	nop
    3bc8:	00000013          	nop
    3bcc:	00000013          	nop
    3bd0:	00000013          	nop
    3bd4:	00000013          	nop
    3bd8:	00000013          	nop
    3bdc:	00000013          	nop
    3be0:	00000013          	nop
    3be4:	00000013          	nop
    3be8:	00000013          	nop
    3bec:	00000013          	nop
    3bf0:	00000013          	nop
    3bf4:	00000013          	nop
    3bf8:	00000013          	nop
    3bfc:	00000013          	nop
    3c00:	00000013          	nop
    3c04:	00000013          	nop
    3c08:	00000013          	nop
    3c0c:	00000013          	nop
    3c10:	00000013          	nop
    3c14:	00000013          	nop
    3c18:	00000013          	nop
    3c1c:	00000013          	nop
    3c20:	00000013          	nop
    3c24:	00000013          	nop
    3c28:	00000013          	nop
    3c2c:	00000013          	nop
    3c30:	00000013          	nop
    3c34:	00000013          	nop
    3c38:	00000013          	nop
    3c3c:	00000013          	nop
    3c40:	00000013          	nop
    3c44:	00000013          	nop
    3c48:	00000013          	nop
    3c4c:	00000013          	nop
    3c50:	00000013          	nop
    3c54:	00000013          	nop
    3c58:	00000013          	nop
    3c5c:	00000013          	nop
    3c60:	00000013          	nop
    3c64:	00000013          	nop
    3c68:	00000013          	nop
    3c6c:	00000013          	nop
    3c70:	00000013          	nop
    3c74:	00000013          	nop
    3c78:	00000013          	nop
    3c7c:	00000013          	nop
    3c80:	00000013          	nop
    3c84:	00000013          	nop
    3c88:	00000013          	nop
    3c8c:	00000013          	nop
    3c90:	00000013          	nop
    3c94:	00000013          	nop
    3c98:	00000013          	nop
    3c9c:	00000013          	nop
    3ca0:	00000013          	nop
    3ca4:	00000013          	nop
    3ca8:	00000013          	nop
    3cac:	00000013          	nop
    3cb0:	00000013          	nop
    3cb4:	00000013          	nop
    3cb8:	00000013          	nop
    3cbc:	00000013          	nop
    3cc0:	00000013          	nop
    3cc4:	00000013          	nop
    3cc8:	00000013          	nop
    3ccc:	00000013          	nop
    3cd0:	00000013          	nop
    3cd4:	00000013          	nop
    3cd8:	00000013          	nop
    3cdc:	00000013          	nop
    3ce0:	00000013          	nop
    3ce4:	00000013          	nop
    3ce8:	00000013          	nop
    3cec:	00000013          	nop
    3cf0:	00000013          	nop
    3cf4:	00000013          	nop
    3cf8:	00000013          	nop
    3cfc:	00000013          	nop
    3d00:	00000013          	nop
    3d04:	00000013          	nop
    3d08:	00000013          	nop
    3d0c:	00000013          	nop
    3d10:	00000013          	nop
    3d14:	00000013          	nop
    3d18:	00000013          	nop
    3d1c:	00000013          	nop
    3d20:	00000013          	nop
    3d24:	00000013          	nop
    3d28:	00000013          	nop
    3d2c:	00000013          	nop
    3d30:	00000013          	nop
    3d34:	00000013          	nop
    3d38:	00000013          	nop
    3d3c:	00000013          	nop
    3d40:	00000013          	nop
    3d44:	00000013          	nop
    3d48:	00000013          	nop
    3d4c:	00000013          	nop
    3d50:	00000013          	nop
    3d54:	00000013          	nop
    3d58:	00000013          	nop
    3d5c:	00000013          	nop
    3d60:	00000013          	nop
    3d64:	00000013          	nop
    3d68:	00000013          	nop
    3d6c:	00000013          	nop
    3d70:	00000013          	nop
    3d74:	00000013          	nop
    3d78:	00000013          	nop
    3d7c:	00000013          	nop
    3d80:	00000013          	nop
    3d84:	00000013          	nop
    3d88:	00000013          	nop
    3d8c:	00000013          	nop
    3d90:	00000013          	nop
    3d94:	00000013          	nop
    3d98:	00000013          	nop
    3d9c:	00000013          	nop
    3da0:	00000013          	nop
    3da4:	00000013          	nop
    3da8:	00000013          	nop
    3dac:	00000013          	nop
    3db0:	00000013          	nop
    3db4:	00000013          	nop
    3db8:	00000013          	nop
    3dbc:	00000013          	nop
    3dc0:	00000013          	nop
    3dc4:	00000013          	nop
    3dc8:	00000013          	nop
    3dcc:	00000013          	nop
    3dd0:	00000013          	nop
    3dd4:	00000013          	nop
    3dd8:	00000013          	nop
    3ddc:	00000013          	nop
    3de0:	00000013          	nop
    3de4:	00000013          	nop
    3de8:	00000013          	nop
    3dec:	00000013          	nop
    3df0:	00000013          	nop
    3df4:	00000013          	nop
    3df8:	00000013          	nop
    3dfc:	00000013          	nop
    3e00:	00000013          	nop
    3e04:	00000013          	nop
    3e08:	00000013          	nop
    3e0c:	00000013          	nop
    3e10:	00000013          	nop
    3e14:	00000013          	nop
    3e18:	00000013          	nop
    3e1c:	00000013          	nop
    3e20:	00000013          	nop
    3e24:	00000013          	nop
    3e28:	00000013          	nop
    3e2c:	00000013          	nop
    3e30:	00000013          	nop
    3e34:	00000013          	nop
    3e38:	00000013          	nop
    3e3c:	00000013          	nop
    3e40:	00000013          	nop
    3e44:	00000013          	nop
    3e48:	00000013          	nop
    3e4c:	00000013          	nop
    3e50:	00000013          	nop
    3e54:	00000013          	nop
    3e58:	00000013          	nop
    3e5c:	00000013          	nop
    3e60:	00000013          	nop
    3e64:	00000013          	nop
    3e68:	00000013          	nop
    3e6c:	00000013          	nop
    3e70:	00000013          	nop
    3e74:	00000013          	nop
    3e78:	00000013          	nop
    3e7c:	00000013          	nop
    3e80:	00000013          	nop
    3e84:	00000013          	nop
    3e88:	00000013          	nop
    3e8c:	00000013          	nop
    3e90:	00000013          	nop
    3e94:	00000013          	nop
    3e98:	00000013          	nop
    3e9c:	00000013          	nop
    3ea0:	00000013          	nop
    3ea4:	00000013          	nop
    3ea8:	00000013          	nop
    3eac:	00000013          	nop
    3eb0:	00000013          	nop
    3eb4:	00000013          	nop
    3eb8:	00000013          	nop
    3ebc:	00000013          	nop
    3ec0:	00000013          	nop
    3ec4:	00000013          	nop
    3ec8:	00000013          	nop
    3ecc:	00000013          	nop
    3ed0:	00000013          	nop
    3ed4:	00000013          	nop
    3ed8:	00000013          	nop
    3edc:	00000013          	nop
    3ee0:	00000013          	nop
    3ee4:	00000013          	nop
    3ee8:	00000013          	nop
    3eec:	00000013          	nop
    3ef0:	00000013          	nop
    3ef4:	00000013          	nop
    3ef8:	00000013          	nop
    3efc:	00000013          	nop
    3f00:	00000013          	nop
    3f04:	00000013          	nop
    3f08:	00000013          	nop
    3f0c:	00000013          	nop
    3f10:	00000013          	nop
    3f14:	00000013          	nop
    3f18:	00000013          	nop
    3f1c:	00000013          	nop
    3f20:	00000013          	nop
    3f24:	00000013          	nop
    3f28:	00000013          	nop
    3f2c:	00000013          	nop
    3f30:	00000013          	nop
    3f34:	00000013          	nop
    3f38:	00000013          	nop
    3f3c:	00000013          	nop
    3f40:	00000013          	nop
    3f44:	00000013          	nop
    3f48:	00000013          	nop
    3f4c:	00000013          	nop
    3f50:	00000013          	nop
    3f54:	00000013          	nop
    3f58:	00000013          	nop
    3f5c:	00000013          	nop
    3f60:	00000013          	nop
    3f64:	00000013          	nop
    3f68:	00000013          	nop
    3f6c:	00000013          	nop
    3f70:	00000013          	nop
    3f74:	00000013          	nop
    3f78:	00000013          	nop
    3f7c:	00000013          	nop
    3f80:	00000013          	nop
    3f84:	00000013          	nop
    3f88:	00000013          	nop
    3f8c:	00000013          	nop
    3f90:	00000013          	nop
    3f94:	00000013          	nop
    3f98:	00000013          	nop
    3f9c:	00000013          	nop
    3fa0:	00000013          	nop
    3fa4:	00000013          	nop
    3fa8:	00000013          	nop
    3fac:	00000013          	nop
    3fb0:	00000013          	nop
    3fb4:	00000013          	nop
    3fb8:	00000013          	nop
    3fbc:	00000013          	nop
    3fc0:	00000013          	nop
    3fc4:	00000013          	nop
    3fc8:	00000013          	nop
    3fcc:	00000013          	nop
    3fd0:	00000013          	nop
    3fd4:	00000013          	nop
    3fd8:	00000013          	nop
    3fdc:	00000013          	nop
    3fe0:	00000013          	nop
    3fe4:	00000013          	nop
    3fe8:	00000013          	nop
    3fec:	00000013          	nop
    3ff0:	00000013          	nop
    3ff4:	00000013          	nop
    3ff8:	00000013          	nop
    3ffc:	00000013          	nop
    4000:	0000                	unimp
    4002:	0000                	unimp
    4004:	0000                	unimp
    4006:	0000                	unimp
    4008:	0000                	unimp
    400a:	0000                	unimp
    400c:	0000                	unimp
    400e:	0000                	unimp
    4010:	0000                	unimp
    4012:	0000                	unimp
    4014:	0000                	unimp
    4016:	0000                	unimp
    4018:	0000                	unimp
    401a:	0000                	unimp
    401c:	0000                	unimp
    401e:	0000                	unimp
    4020:	0000                	unimp
    4022:	0000                	unimp
    4024:	0000                	unimp
    4026:	0000                	unimp
    4028:	0000                	unimp
    402a:	0000                	unimp
    402c:	0000                	unimp
    402e:	0000                	unimp
    4030:	0000                	unimp
    4032:	0000                	unimp
    4034:	0000                	unimp
    4036:	0000                	unimp
    4038:	0000                	unimp
    403a:	0000                	unimp
    403c:	0000                	unimp
    403e:	0000                	unimp
    4040:	0000                	unimp
    4042:	0000                	unimp
    4044:	0000                	unimp
    4046:	0000                	unimp
    4048:	0000                	unimp
    404a:	0000                	unimp
    404c:	0000                	unimp
    404e:	0000                	unimp
    4050:	0000                	unimp
    4052:	0000                	unimp
    4054:	0000                	unimp
    4056:	0000                	unimp
    4058:	0000                	unimp
    405a:	0000                	unimp
    405c:	0000                	unimp
    405e:	0000                	unimp
    4060:	0000                	unimp
    4062:	0000                	unimp
    4064:	0000                	unimp
    4066:	0000                	unimp
    4068:	0000                	unimp
    406a:	0000                	unimp
    406c:	0000                	unimp
    406e:	0000                	unimp
    4070:	0000                	unimp
    4072:	0000                	unimp
    4074:	0000                	unimp
    4076:	0000                	unimp
    4078:	0000                	unimp
    407a:	0000                	unimp
    407c:	0000                	unimp
    407e:	0000                	unimp
    4080:	0000                	unimp
    4082:	0000                	unimp
    4084:	0000                	unimp
    4086:	0000                	unimp
    4088:	0000                	unimp
    408a:	0000                	unimp
    408c:	0000                	unimp
    408e:	0000                	unimp
    4090:	0000                	unimp
    4092:	0000                	unimp
    4094:	0000                	unimp
    4096:	0000                	unimp
    4098:	0000                	unimp
    409a:	0000                	unimp
    409c:	0000                	unimp
    409e:	0000                	unimp
    40a0:	0000                	unimp
    40a2:	0000                	unimp
    40a4:	0000                	unimp
    40a6:	0000                	unimp
    40a8:	0000                	unimp
    40aa:	0000                	unimp
    40ac:	0000                	unimp
    40ae:	0000                	unimp
    40b0:	0000                	unimp
    40b2:	0000                	unimp
    40b4:	0000                	unimp
    40b6:	0000                	unimp
    40b8:	0000                	unimp
    40ba:	0000                	unimp
    40bc:	0000                	unimp
    40be:	0000                	unimp
    40c0:	0000                	unimp
    40c2:	0000                	unimp
    40c4:	0000                	unimp
    40c6:	0000                	unimp
    40c8:	0000                	unimp
    40ca:	0000                	unimp
    40cc:	0000                	unimp
    40ce:	0000                	unimp
    40d0:	0000                	unimp
    40d2:	0000                	unimp
    40d4:	0000                	unimp
    40d6:	0000                	unimp
    40d8:	0000                	unimp
    40da:	0000                	unimp
    40dc:	0000                	unimp
    40de:	0000                	unimp
    40e0:	0000                	unimp
    40e2:	0000                	unimp
    40e4:	0000                	unimp
    40e6:	0000                	unimp
    40e8:	0000                	unimp
    40ea:	0000                	unimp
    40ec:	0000                	unimp
    40ee:	0000                	unimp
    40f0:	0000                	unimp
    40f2:	0000                	unimp
    40f4:	0000                	unimp
    40f6:	0000                	unimp
    40f8:	0000                	unimp
    40fa:	0000                	unimp
    40fc:	0000                	unimp
    40fe:	0000                	unimp
    4100:	0000                	unimp
    4102:	0000                	unimp
    4104:	0000                	unimp
    4106:	0000                	unimp
    4108:	0000                	unimp
    410a:	0000                	unimp
    410c:	0000                	unimp
    410e:	0000                	unimp
    4110:	0000                	unimp
    4112:	0000                	unimp
    4114:	0000                	unimp
    4116:	0000                	unimp
    4118:	0000                	unimp
    411a:	0000                	unimp
    411c:	0000                	unimp
    411e:	0000                	unimp
    4120:	0000                	unimp
    4122:	0000                	unimp
    4124:	0000                	unimp
    4126:	0000                	unimp
    4128:	0000                	unimp
    412a:	0000                	unimp
    412c:	0000                	unimp
    412e:	0000                	unimp
    4130:	0000                	unimp
    4132:	0000                	unimp
    4134:	0000                	unimp
    4136:	0000                	unimp
    4138:	0000                	unimp
    413a:	0000                	unimp
    413c:	0000                	unimp
    413e:	0000                	unimp
    4140:	0000                	unimp
    4142:	0000                	unimp
    4144:	0000                	unimp
    4146:	0000                	unimp
    4148:	0000                	unimp
    414a:	0000                	unimp
    414c:	0000                	unimp
    414e:	0000                	unimp
    4150:	0000                	unimp
    4152:	0000                	unimp
    4154:	0000                	unimp
    4156:	0000                	unimp
    4158:	0000                	unimp
    415a:	0000                	unimp
    415c:	0000                	unimp
    415e:	0000                	unimp
    4160:	0000                	unimp
    4162:	0000                	unimp
    4164:	0000                	unimp
    4166:	0000                	unimp
    4168:	0000                	unimp
    416a:	0000                	unimp
    416c:	0000                	unimp
    416e:	0000                	unimp
    4170:	0000                	unimp
    4172:	0000                	unimp
    4174:	0000                	unimp
    4176:	0000                	unimp
    4178:	0000                	unimp
    417a:	0000                	unimp
    417c:	0000                	unimp
    417e:	0000                	unimp
    4180:	0000                	unimp
    4182:	0000                	unimp
    4184:	0000                	unimp
    4186:	0000                	unimp
    4188:	0000                	unimp
    418a:	0000                	unimp
    418c:	0000                	unimp
    418e:	0000                	unimp
    4190:	0000                	unimp
    4192:	0000                	unimp
    4194:	0000                	unimp
    4196:	0000                	unimp
    4198:	0000                	unimp
    419a:	0000                	unimp
    419c:	0000                	unimp
    419e:	0000                	unimp
    41a0:	0000                	unimp
    41a2:	0000                	unimp
    41a4:	0000                	unimp
    41a6:	0000                	unimp
    41a8:	0000                	unimp
    41aa:	0000                	unimp
    41ac:	0000                	unimp
    41ae:	0000                	unimp
    41b0:	0000                	unimp
    41b2:	0000                	unimp
    41b4:	0000                	unimp
    41b6:	0000                	unimp
    41b8:	0000                	unimp
    41ba:	0000                	unimp
    41bc:	0000                	unimp
    41be:	0000                	unimp
    41c0:	0000                	unimp
    41c2:	0000                	unimp
    41c4:	0000                	unimp
    41c6:	0000                	unimp
    41c8:	0000                	unimp
    41ca:	0000                	unimp
    41cc:	0000                	unimp
    41ce:	0000                	unimp
    41d0:	0000                	unimp
    41d2:	0000                	unimp
    41d4:	0000                	unimp
    41d6:	0000                	unimp
    41d8:	0000                	unimp
    41da:	0000                	unimp
    41dc:	0000                	unimp
    41de:	0000                	unimp
    41e0:	0000                	unimp
    41e2:	0000                	unimp
    41e4:	0000                	unimp
    41e6:	0000                	unimp
    41e8:	0000                	unimp
    41ea:	0000                	unimp
    41ec:	0000                	unimp
    41ee:	0000                	unimp
    41f0:	0000                	unimp
    41f2:	0000                	unimp
    41f4:	0000                	unimp
    41f6:	0000                	unimp
    41f8:	0000                	unimp
    41fa:	0000                	unimp
    41fc:	0000                	unimp
    41fe:	0000                	unimp
    4200:	0000                	unimp
    4202:	0000                	unimp
    4204:	0000                	unimp
    4206:	0000                	unimp
    4208:	0000                	unimp
    420a:	0000                	unimp
    420c:	0000                	unimp
    420e:	0000                	unimp
    4210:	0000                	unimp
    4212:	0000                	unimp
    4214:	0000                	unimp
    4216:	0000                	unimp
    4218:	0000                	unimp
    421a:	0000                	unimp
    421c:	0000                	unimp
    421e:	0000                	unimp
    4220:	0000                	unimp
    4222:	0000                	unimp
    4224:	0000                	unimp
    4226:	0000                	unimp
    4228:	0000                	unimp
    422a:	0000                	unimp
    422c:	0000                	unimp
    422e:	0000                	unimp
    4230:	0000                	unimp
    4232:	0000                	unimp
    4234:	0000                	unimp
    4236:	0000                	unimp
    4238:	0000                	unimp
    423a:	0000                	unimp
    423c:	0000                	unimp
    423e:	0000                	unimp
    4240:	0000                	unimp
    4242:	0000                	unimp
    4244:	0000                	unimp
    4246:	0000                	unimp
    4248:	0000                	unimp
    424a:	0000                	unimp
    424c:	0000                	unimp
    424e:	0000                	unimp
    4250:	0000                	unimp
    4252:	0000                	unimp
    4254:	0000                	unimp
    4256:	0000                	unimp
    4258:	0000                	unimp
    425a:	0000                	unimp
    425c:	0000                	unimp
    425e:	0000                	unimp
    4260:	0000                	unimp
    4262:	0000                	unimp
    4264:	0000                	unimp
    4266:	0000                	unimp
    4268:	0000                	unimp
    426a:	0000                	unimp
    426c:	0000                	unimp
    426e:	0000                	unimp
    4270:	0000                	unimp
    4272:	0000                	unimp
    4274:	0000                	unimp
    4276:	0000                	unimp
    4278:	0000                	unimp
    427a:	0000                	unimp
    427c:	0000                	unimp
    427e:	0000                	unimp
    4280:	0000                	unimp
    4282:	0000                	unimp
    4284:	0000                	unimp
    4286:	0000                	unimp
    4288:	0000                	unimp
    428a:	0000                	unimp
    428c:	0000                	unimp
    428e:	0000                	unimp
    4290:	0000                	unimp
    4292:	0000                	unimp
    4294:	0000                	unimp
    4296:	0000                	unimp
    4298:	0000                	unimp
    429a:	0000                	unimp
    429c:	0000                	unimp
    429e:	0000                	unimp
    42a0:	0000                	unimp
    42a2:	0000                	unimp
    42a4:	0000                	unimp
    42a6:	0000                	unimp
    42a8:	0000                	unimp
    42aa:	0000                	unimp
    42ac:	0000                	unimp
    42ae:	0000                	unimp
    42b0:	0000                	unimp
    42b2:	0000                	unimp
    42b4:	0000                	unimp
    42b6:	0000                	unimp
    42b8:	0000                	unimp
    42ba:	0000                	unimp
    42bc:	0000                	unimp
    42be:	0000                	unimp
    42c0:	0000                	unimp
    42c2:	0000                	unimp
    42c4:	0000                	unimp
    42c6:	0000                	unimp
    42c8:	0000                	unimp
    42ca:	0000                	unimp
    42cc:	0000                	unimp
    42ce:	0000                	unimp
    42d0:	0000                	unimp
    42d2:	0000                	unimp
    42d4:	0000                	unimp
    42d6:	0000                	unimp
    42d8:	0000                	unimp
    42da:	0000                	unimp
    42dc:	0000                	unimp
    42de:	0000                	unimp
    42e0:	0000                	unimp
    42e2:	0000                	unimp
    42e4:	0000                	unimp
    42e6:	0000                	unimp
    42e8:	0000                	unimp
    42ea:	0000                	unimp
    42ec:	0000                	unimp
    42ee:	0000                	unimp
    42f0:	0000                	unimp
    42f2:	0000                	unimp
    42f4:	0000                	unimp
    42f6:	0000                	unimp
    42f8:	0000                	unimp
    42fa:	0000                	unimp
    42fc:	0000                	unimp
    42fe:	0000                	unimp
    4300:	0000                	unimp
    4302:	0000                	unimp
    4304:	0000                	unimp
    4306:	0000                	unimp
    4308:	0000                	unimp
    430a:	0000                	unimp
    430c:	0000                	unimp
    430e:	0000                	unimp
    4310:	0000                	unimp
    4312:	0000                	unimp
    4314:	0000                	unimp
    4316:	0000                	unimp
    4318:	0000                	unimp
    431a:	0000                	unimp
    431c:	0000                	unimp
    431e:	0000                	unimp
    4320:	0000                	unimp
    4322:	0000                	unimp
    4324:	0000                	unimp
    4326:	0000                	unimp
    4328:	0000                	unimp
    432a:	0000                	unimp
    432c:	0000                	unimp
    432e:	0000                	unimp
    4330:	0000                	unimp
    4332:	0000                	unimp
    4334:	0000                	unimp
    4336:	0000                	unimp
    4338:	0000                	unimp
    433a:	0000                	unimp
    433c:	0000                	unimp
    433e:	0000                	unimp
    4340:	0000                	unimp
    4342:	0000                	unimp
    4344:	0000                	unimp
    4346:	0000                	unimp
    4348:	0000                	unimp
    434a:	0000                	unimp
    434c:	0000                	unimp
    434e:	0000                	unimp
    4350:	0000                	unimp
    4352:	0000                	unimp
    4354:	0000                	unimp
    4356:	0000                	unimp
    4358:	0000                	unimp
    435a:	0000                	unimp
    435c:	0000                	unimp
    435e:	0000                	unimp
    4360:	0000                	unimp
    4362:	0000                	unimp
    4364:	0000                	unimp
    4366:	0000                	unimp
    4368:	0000                	unimp
    436a:	0000                	unimp
    436c:	0000                	unimp
    436e:	0000                	unimp
    4370:	0000                	unimp
    4372:	0000                	unimp
    4374:	0000                	unimp
    4376:	0000                	unimp
    4378:	0000                	unimp
    437a:	0000                	unimp
    437c:	0000                	unimp
    437e:	0000                	unimp
    4380:	0000                	unimp
    4382:	0000                	unimp
    4384:	0000                	unimp
    4386:	0000                	unimp
    4388:	0000                	unimp
    438a:	0000                	unimp
    438c:	0000                	unimp
    438e:	0000                	unimp
    4390:	0000                	unimp
    4392:	0000                	unimp
    4394:	0000                	unimp
    4396:	0000                	unimp
    4398:	0000                	unimp
    439a:	0000                	unimp
    439c:	0000                	unimp
    439e:	0000                	unimp
    43a0:	0000                	unimp
    43a2:	0000                	unimp
    43a4:	0000                	unimp
    43a6:	0000                	unimp
    43a8:	0000                	unimp
    43aa:	0000                	unimp
    43ac:	0000                	unimp
    43ae:	0000                	unimp
    43b0:	0000                	unimp
    43b2:	0000                	unimp
    43b4:	0000                	unimp
    43b6:	0000                	unimp
    43b8:	0000                	unimp
    43ba:	0000                	unimp
    43bc:	0000                	unimp
    43be:	0000                	unimp
    43c0:	0000                	unimp
    43c2:	0000                	unimp
    43c4:	0000                	unimp
    43c6:	0000                	unimp
    43c8:	0000                	unimp
    43ca:	0000                	unimp
    43cc:	0000                	unimp
    43ce:	0000                	unimp
    43d0:	0000                	unimp
    43d2:	0000                	unimp
    43d4:	0000                	unimp
    43d6:	0000                	unimp
    43d8:	0000                	unimp
    43da:	0000                	unimp
    43dc:	0000                	unimp
    43de:	0000                	unimp
    43e0:	0000                	unimp
    43e2:	0000                	unimp
    43e4:	0000                	unimp
    43e6:	0000                	unimp
    43e8:	0000                	unimp
    43ea:	0000                	unimp
    43ec:	0000                	unimp
    43ee:	0000                	unimp
    43f0:	0000                	unimp
    43f2:	0000                	unimp
    43f4:	0000                	unimp
    43f6:	0000                	unimp
    43f8:	0000                	unimp
    43fa:	0000                	unimp
    43fc:	0000                	unimp
    43fe:	0000                	unimp
    4400:	0000                	unimp
    4402:	0000                	unimp
    4404:	0000                	unimp
    4406:	0000                	unimp
    4408:	0000                	unimp
    440a:	0000                	unimp
    440c:	0000                	unimp
    440e:	0000                	unimp
    4410:	0000                	unimp
    4412:	0000                	unimp
    4414:	0000                	unimp
    4416:	0000                	unimp
    4418:	0000                	unimp
    441a:	0000                	unimp
    441c:	0000                	unimp
    441e:	0000                	unimp
    4420:	0000                	unimp
    4422:	0000                	unimp
    4424:	0000                	unimp
    4426:	0000                	unimp
    4428:	0000                	unimp
    442a:	0000                	unimp
    442c:	0000                	unimp
    442e:	0000                	unimp
    4430:	0000                	unimp
    4432:	0000                	unimp
    4434:	0000                	unimp
    4436:	0000                	unimp
    4438:	0000                	unimp
    443a:	0000                	unimp
    443c:	0000                	unimp
    443e:	0000                	unimp
    4440:	0000                	unimp
    4442:	0000                	unimp
    4444:	0000                	unimp
    4446:	0000                	unimp
    4448:	0000                	unimp
    444a:	0000                	unimp
    444c:	0000                	unimp
    444e:	0000                	unimp
    4450:	0000                	unimp
    4452:	0000                	unimp
    4454:	0000                	unimp
    4456:	0000                	unimp
    4458:	0000                	unimp
    445a:	0000                	unimp
    445c:	0000                	unimp
    445e:	0000                	unimp
    4460:	0000                	unimp
    4462:	0000                	unimp
    4464:	0000                	unimp
    4466:	0000                	unimp
    4468:	0000                	unimp
    446a:	0000                	unimp
    446c:	0000                	unimp
    446e:	0000                	unimp
    4470:	0000                	unimp
    4472:	0000                	unimp
    4474:	0000                	unimp
    4476:	0000                	unimp
    4478:	0000                	unimp
    447a:	0000                	unimp
    447c:	0000                	unimp
    447e:	0000                	unimp
    4480:	0000                	unimp
    4482:	0000                	unimp
    4484:	0000                	unimp
    4486:	0000                	unimp
    4488:	0000                	unimp
    448a:	0000                	unimp
    448c:	0000                	unimp
    448e:	0000                	unimp
    4490:	0000                	unimp
    4492:	0000                	unimp
    4494:	0000                	unimp
    4496:	0000                	unimp
    4498:	0000                	unimp
    449a:	0000                	unimp
    449c:	0000                	unimp
    449e:	0000                	unimp
    44a0:	0000                	unimp
    44a2:	0000                	unimp
    44a4:	0000                	unimp
    44a6:	0000                	unimp
    44a8:	0000                	unimp
    44aa:	0000                	unimp
    44ac:	0000                	unimp
    44ae:	0000                	unimp
    44b0:	0000                	unimp
    44b2:	0000                	unimp
    44b4:	0000                	unimp
    44b6:	0000                	unimp
    44b8:	0000                	unimp
    44ba:	0000                	unimp
    44bc:	0000                	unimp
    44be:	0000                	unimp
    44c0:	0000                	unimp
    44c2:	0000                	unimp
    44c4:	0000                	unimp
    44c6:	0000                	unimp
    44c8:	0000                	unimp
    44ca:	0000                	unimp
    44cc:	0000                	unimp
    44ce:	0000                	unimp
    44d0:	0000                	unimp
    44d2:	0000                	unimp
    44d4:	0000                	unimp
    44d6:	0000                	unimp
    44d8:	0000                	unimp
    44da:	0000                	unimp
    44dc:	0000                	unimp
    44de:	0000                	unimp
    44e0:	0000                	unimp
    44e2:	0000                	unimp
    44e4:	0000                	unimp
    44e6:	0000                	unimp
    44e8:	0000                	unimp
    44ea:	0000                	unimp
    44ec:	0000                	unimp
    44ee:	0000                	unimp
    44f0:	0000                	unimp
    44f2:	0000                	unimp
    44f4:	0000                	unimp
    44f6:	0000                	unimp
    44f8:	0000                	unimp
    44fa:	0000                	unimp
    44fc:	0000                	unimp
    44fe:	0000                	unimp
    4500:	0000                	unimp
    4502:	0000                	unimp
    4504:	0000                	unimp
    4506:	0000                	unimp
    4508:	0000                	unimp
    450a:	0000                	unimp
    450c:	0000                	unimp
    450e:	0000                	unimp
    4510:	0000                	unimp
    4512:	0000                	unimp
    4514:	0000                	unimp
    4516:	0000                	unimp
    4518:	0000                	unimp
    451a:	0000                	unimp
    451c:	0000                	unimp
    451e:	0000                	unimp
    4520:	0000                	unimp
    4522:	0000                	unimp
    4524:	0000                	unimp
    4526:	0000                	unimp
    4528:	0000                	unimp
    452a:	0000                	unimp
    452c:	0000                	unimp
    452e:	0000                	unimp
    4530:	0000                	unimp
    4532:	0000                	unimp
    4534:	0000                	unimp
    4536:	0000                	unimp
    4538:	0000                	unimp
    453a:	0000                	unimp
    453c:	0000                	unimp
    453e:	0000                	unimp
    4540:	0000                	unimp
    4542:	0000                	unimp
    4544:	0000                	unimp
    4546:	0000                	unimp
    4548:	0000                	unimp
    454a:	0000                	unimp
    454c:	0000                	unimp
    454e:	0000                	unimp
    4550:	0000                	unimp
    4552:	0000                	unimp
    4554:	0000                	unimp
    4556:	0000                	unimp
    4558:	0000                	unimp
    455a:	0000                	unimp
    455c:	0000                	unimp
    455e:	0000                	unimp
    4560:	0000                	unimp
    4562:	0000                	unimp
    4564:	0000                	unimp
    4566:	0000                	unimp
    4568:	0000                	unimp
    456a:	0000                	unimp
    456c:	0000                	unimp
    456e:	0000                	unimp
    4570:	0000                	unimp
    4572:	0000                	unimp
    4574:	0000                	unimp
    4576:	0000                	unimp
    4578:	0000                	unimp
    457a:	0000                	unimp
    457c:	0000                	unimp
    457e:	0000                	unimp
    4580:	0000                	unimp
    4582:	0000                	unimp
    4584:	0000                	unimp
    4586:	0000                	unimp
    4588:	0000                	unimp
    458a:	0000                	unimp
    458c:	0000                	unimp
    458e:	0000                	unimp
    4590:	0000                	unimp
    4592:	0000                	unimp
    4594:	0000                	unimp
    4596:	0000                	unimp
    4598:	0000                	unimp
    459a:	0000                	unimp
    459c:	0000                	unimp
    459e:	0000                	unimp
    45a0:	0000                	unimp
    45a2:	0000                	unimp
    45a4:	0000                	unimp
    45a6:	0000                	unimp
    45a8:	0000                	unimp
    45aa:	0000                	unimp
    45ac:	0000                	unimp
    45ae:	0000                	unimp
    45b0:	0000                	unimp
    45b2:	0000                	unimp
    45b4:	0000                	unimp
    45b6:	0000                	unimp
    45b8:	0000                	unimp
    45ba:	0000                	unimp
    45bc:	0000                	unimp
    45be:	0000                	unimp
    45c0:	0000                	unimp
    45c2:	0000                	unimp
    45c4:	0000                	unimp
    45c6:	0000                	unimp
    45c8:	0000                	unimp
    45ca:	0000                	unimp
    45cc:	0000                	unimp
    45ce:	0000                	unimp
    45d0:	0000                	unimp
    45d2:	0000                	unimp
    45d4:	0000                	unimp
    45d6:	0000                	unimp
    45d8:	0000                	unimp
    45da:	0000                	unimp
    45dc:	0000                	unimp
    45de:	0000                	unimp
    45e0:	0000                	unimp
    45e2:	0000                	unimp
    45e4:	0000                	unimp
    45e6:	0000                	unimp
    45e8:	0000                	unimp
    45ea:	0000                	unimp
    45ec:	0000                	unimp
    45ee:	0000                	unimp
    45f0:	0000                	unimp
    45f2:	0000                	unimp
    45f4:	0000                	unimp
    45f6:	0000                	unimp
    45f8:	0000                	unimp
    45fa:	0000                	unimp
    45fc:	0000                	unimp
    45fe:	0000                	unimp
    4600:	0000                	unimp
    4602:	0000                	unimp
    4604:	0000                	unimp
    4606:	0000                	unimp
    4608:	0000                	unimp
    460a:	0000                	unimp
    460c:	0000                	unimp
    460e:	0000                	unimp
    4610:	0000                	unimp
    4612:	0000                	unimp
    4614:	0000                	unimp
    4616:	0000                	unimp
    4618:	0000                	unimp
    461a:	0000                	unimp
    461c:	0000                	unimp
    461e:	0000                	unimp
    4620:	0000                	unimp
    4622:	0000                	unimp
    4624:	0000                	unimp
    4626:	0000                	unimp
    4628:	0000                	unimp
    462a:	0000                	unimp
    462c:	0000                	unimp
    462e:	0000                	unimp
    4630:	0000                	unimp
    4632:	0000                	unimp
    4634:	0000                	unimp
    4636:	0000                	unimp
    4638:	0000                	unimp
    463a:	0000                	unimp
    463c:	0000                	unimp
    463e:	0000                	unimp
    4640:	0000                	unimp
    4642:	0000                	unimp
    4644:	0000                	unimp
    4646:	0000                	unimp
    4648:	0000                	unimp
    464a:	0000                	unimp
    464c:	0000                	unimp
    464e:	0000                	unimp
    4650:	0000                	unimp
    4652:	0000                	unimp
    4654:	0000                	unimp
    4656:	0000                	unimp
    4658:	0000                	unimp
    465a:	0000                	unimp
    465c:	0000                	unimp
    465e:	0000                	unimp
    4660:	0000                	unimp
    4662:	0000                	unimp
    4664:	0000                	unimp
    4666:	0000                	unimp
    4668:	0000                	unimp
    466a:	0000                	unimp
    466c:	0000                	unimp
    466e:	0000                	unimp
    4670:	0000                	unimp
    4672:	0000                	unimp
    4674:	0000                	unimp
    4676:	0000                	unimp
    4678:	0000                	unimp
    467a:	0000                	unimp
    467c:	0000                	unimp
    467e:	0000                	unimp
    4680:	0000                	unimp
    4682:	0000                	unimp
    4684:	0000                	unimp
    4686:	0000                	unimp
    4688:	0000                	unimp
    468a:	0000                	unimp
    468c:	0000                	unimp
    468e:	0000                	unimp
    4690:	0000                	unimp
    4692:	0000                	unimp
    4694:	0000                	unimp
    4696:	0000                	unimp
    4698:	0000                	unimp
    469a:	0000                	unimp
    469c:	0000                	unimp
    469e:	0000                	unimp
    46a0:	0000                	unimp
    46a2:	0000                	unimp
    46a4:	0000                	unimp
    46a6:	0000                	unimp
    46a8:	0000                	unimp
    46aa:	0000                	unimp
    46ac:	0000                	unimp
    46ae:	0000                	unimp
    46b0:	0000                	unimp
    46b2:	0000                	unimp
    46b4:	0000                	unimp
    46b6:	0000                	unimp
    46b8:	0000                	unimp
    46ba:	0000                	unimp
    46bc:	0000                	unimp
    46be:	0000                	unimp
    46c0:	0000                	unimp
    46c2:	0000                	unimp
    46c4:	0000                	unimp
    46c6:	0000                	unimp
    46c8:	0000                	unimp
    46ca:	0000                	unimp
    46cc:	0000                	unimp
    46ce:	0000                	unimp
    46d0:	0000                	unimp
    46d2:	0000                	unimp
    46d4:	0000                	unimp
    46d6:	0000                	unimp
    46d8:	0000                	unimp
    46da:	0000                	unimp
    46dc:	0000                	unimp
    46de:	0000                	unimp
    46e0:	0000                	unimp
    46e2:	0000                	unimp
    46e4:	0000                	unimp
    46e6:	0000                	unimp
    46e8:	0000                	unimp
    46ea:	0000                	unimp
    46ec:	0000                	unimp
    46ee:	0000                	unimp
    46f0:	0000                	unimp
    46f2:	0000                	unimp
    46f4:	0000                	unimp
    46f6:	0000                	unimp
    46f8:	0000                	unimp
    46fa:	0000                	unimp
    46fc:	0000                	unimp
    46fe:	0000                	unimp
    4700:	0000                	unimp
    4702:	0000                	unimp
    4704:	0000                	unimp
    4706:	0000                	unimp
    4708:	0000                	unimp
    470a:	0000                	unimp
    470c:	0000                	unimp
    470e:	0000                	unimp
    4710:	0000                	unimp
    4712:	0000                	unimp
    4714:	0000                	unimp
    4716:	0000                	unimp
    4718:	0000                	unimp
    471a:	0000                	unimp
    471c:	0000                	unimp
    471e:	0000                	unimp
    4720:	0000                	unimp
    4722:	0000                	unimp
    4724:	0000                	unimp
    4726:	0000                	unimp
    4728:	0000                	unimp
    472a:	0000                	unimp
    472c:	0000                	unimp
    472e:	0000                	unimp
    4730:	0000                	unimp
    4732:	0000                	unimp
    4734:	0000                	unimp
    4736:	0000                	unimp
    4738:	0000                	unimp
    473a:	0000                	unimp
    473c:	0000                	unimp
    473e:	0000                	unimp
    4740:	0000                	unimp
    4742:	0000                	unimp
    4744:	0000                	unimp
    4746:	0000                	unimp
    4748:	0000                	unimp
    474a:	0000                	unimp
    474c:	0000                	unimp
    474e:	0000                	unimp
    4750:	0000                	unimp
    4752:	0000                	unimp
    4754:	0000                	unimp
    4756:	0000                	unimp
    4758:	0000                	unimp
    475a:	0000                	unimp
    475c:	0000                	unimp
    475e:	0000                	unimp
    4760:	0000                	unimp
    4762:	0000                	unimp
    4764:	0000                	unimp
    4766:	0000                	unimp
    4768:	0000                	unimp
    476a:	0000                	unimp
    476c:	0000                	unimp
    476e:	0000                	unimp
    4770:	0000                	unimp
    4772:	0000                	unimp
    4774:	0000                	unimp
    4776:	0000                	unimp
    4778:	0000                	unimp
    477a:	0000                	unimp
    477c:	0000                	unimp
    477e:	0000                	unimp
    4780:	0000                	unimp
    4782:	0000                	unimp
    4784:	0000                	unimp
    4786:	0000                	unimp
    4788:	0000                	unimp
    478a:	0000                	unimp
    478c:	0000                	unimp
    478e:	0000                	unimp
    4790:	0000                	unimp
    4792:	0000                	unimp
    4794:	0000                	unimp
    4796:	0000                	unimp
    4798:	0000                	unimp
    479a:	0000                	unimp
    479c:	0000                	unimp
    479e:	0000                	unimp
    47a0:	0000                	unimp
    47a2:	0000                	unimp
    47a4:	0000                	unimp
    47a6:	0000                	unimp
    47a8:	0000                	unimp
    47aa:	0000                	unimp
    47ac:	0000                	unimp
    47ae:	0000                	unimp
    47b0:	0000                	unimp
    47b2:	0000                	unimp
    47b4:	0000                	unimp
    47b6:	0000                	unimp
    47b8:	0000                	unimp
    47ba:	0000                	unimp
    47bc:	0000                	unimp
    47be:	0000                	unimp
    47c0:	0000                	unimp
    47c2:	0000                	unimp
    47c4:	0000                	unimp
    47c6:	0000                	unimp
    47c8:	0000                	unimp
    47ca:	0000                	unimp
    47cc:	0000                	unimp
    47ce:	0000                	unimp
    47d0:	0000                	unimp
    47d2:	0000                	unimp
    47d4:	0000                	unimp
    47d6:	0000                	unimp
    47d8:	0000                	unimp
    47da:	0000                	unimp
    47dc:	0000                	unimp
    47de:	0000                	unimp
    47e0:	0000                	unimp
    47e2:	0000                	unimp
    47e4:	0000                	unimp
    47e6:	0000                	unimp
    47e8:	0000                	unimp
    47ea:	0000                	unimp
    47ec:	0000                	unimp
    47ee:	0000                	unimp
    47f0:	0000                	unimp
    47f2:	0000                	unimp
    47f4:	0000                	unimp
    47f6:	0000                	unimp
    47f8:	0000                	unimp
    47fa:	0000                	unimp
    47fc:	0000                	unimp
    47fe:	0000                	unimp
    4800:	0000                	unimp
    4802:	0000                	unimp
    4804:	0000                	unimp
    4806:	0000                	unimp
    4808:	0000                	unimp
    480a:	0000                	unimp
    480c:	0000                	unimp
    480e:	0000                	unimp
    4810:	0000                	unimp
    4812:	0000                	unimp
    4814:	0000                	unimp
    4816:	0000                	unimp
    4818:	0000                	unimp
    481a:	0000                	unimp
    481c:	0000                	unimp
    481e:	0000                	unimp
    4820:	0000                	unimp
    4822:	0000                	unimp
    4824:	0000                	unimp
    4826:	0000                	unimp
    4828:	0000                	unimp
    482a:	0000                	unimp
    482c:	0000                	unimp
    482e:	0000                	unimp
    4830:	0000                	unimp
    4832:	0000                	unimp
    4834:	0000                	unimp
    4836:	0000                	unimp
    4838:	0000                	unimp
    483a:	0000                	unimp
    483c:	0000                	unimp
    483e:	0000                	unimp
    4840:	0000                	unimp
    4842:	0000                	unimp
    4844:	0000                	unimp
    4846:	0000                	unimp
    4848:	0000                	unimp
    484a:	0000                	unimp
    484c:	0000                	unimp
    484e:	0000                	unimp
    4850:	0000                	unimp
    4852:	0000                	unimp
    4854:	0000                	unimp
    4856:	0000                	unimp
    4858:	0000                	unimp
    485a:	0000                	unimp
    485c:	0000                	unimp
    485e:	0000                	unimp
    4860:	0000                	unimp
    4862:	0000                	unimp
    4864:	0000                	unimp
    4866:	0000                	unimp
    4868:	0000                	unimp
    486a:	0000                	unimp
    486c:	0000                	unimp
    486e:	0000                	unimp
    4870:	0000                	unimp
    4872:	0000                	unimp
    4874:	0000                	unimp
    4876:	0000                	unimp
    4878:	0000                	unimp
    487a:	0000                	unimp
    487c:	0000                	unimp
    487e:	0000                	unimp
    4880:	0000                	unimp
    4882:	0000                	unimp
    4884:	0000                	unimp
    4886:	0000                	unimp
    4888:	0000                	unimp
    488a:	0000                	unimp
    488c:	0000                	unimp
    488e:	0000                	unimp
    4890:	0000                	unimp
    4892:	0000                	unimp
    4894:	0000                	unimp
    4896:	0000                	unimp
    4898:	0000                	unimp
    489a:	0000                	unimp
    489c:	0000                	unimp
    489e:	0000                	unimp
    48a0:	0000                	unimp
    48a2:	0000                	unimp
    48a4:	0000                	unimp
    48a6:	0000                	unimp
    48a8:	0000                	unimp
    48aa:	0000                	unimp
    48ac:	0000                	unimp
    48ae:	0000                	unimp
    48b0:	0000                	unimp
    48b2:	0000                	unimp
    48b4:	0000                	unimp
    48b6:	0000                	unimp
    48b8:	0000                	unimp
    48ba:	0000                	unimp
    48bc:	0000                	unimp
    48be:	0000                	unimp
    48c0:	0000                	unimp
    48c2:	0000                	unimp
    48c4:	0000                	unimp
    48c6:	0000                	unimp
    48c8:	0000                	unimp
    48ca:	0000                	unimp
    48cc:	0000                	unimp
    48ce:	0000                	unimp
    48d0:	0000                	unimp
    48d2:	0000                	unimp
    48d4:	0000                	unimp
    48d6:	0000                	unimp
    48d8:	0000                	unimp
    48da:	0000                	unimp
    48dc:	0000                	unimp
    48de:	0000                	unimp
    48e0:	0000                	unimp
    48e2:	0000                	unimp
    48e4:	0000                	unimp
    48e6:	0000                	unimp
    48e8:	0000                	unimp
    48ea:	0000                	unimp
    48ec:	0000                	unimp
    48ee:	0000                	unimp
    48f0:	0000                	unimp
    48f2:	0000                	unimp
    48f4:	0000                	unimp
    48f6:	0000                	unimp
    48f8:	0000                	unimp
    48fa:	0000                	unimp
    48fc:	0000                	unimp
    48fe:	0000                	unimp
    4900:	0000                	unimp
    4902:	0000                	unimp
    4904:	0000                	unimp
    4906:	0000                	unimp
    4908:	0000                	unimp
    490a:	0000                	unimp
    490c:	0000                	unimp
    490e:	0000                	unimp
    4910:	0000                	unimp
    4912:	0000                	unimp
    4914:	0000                	unimp
    4916:	0000                	unimp
    4918:	0000                	unimp
    491a:	0000                	unimp
    491c:	0000                	unimp
    491e:	0000                	unimp
    4920:	0000                	unimp
    4922:	0000                	unimp
    4924:	0000                	unimp
    4926:	0000                	unimp
    4928:	0000                	unimp
    492a:	0000                	unimp
    492c:	0000                	unimp
    492e:	0000                	unimp
    4930:	0000                	unimp
    4932:	0000                	unimp
    4934:	0000                	unimp
    4936:	0000                	unimp
    4938:	0000                	unimp
    493a:	0000                	unimp
    493c:	0000                	unimp
    493e:	0000                	unimp
    4940:	0000                	unimp
    4942:	0000                	unimp
    4944:	0000                	unimp
    4946:	0000                	unimp
    4948:	0000                	unimp
    494a:	0000                	unimp
    494c:	0000                	unimp
    494e:	0000                	unimp
    4950:	0000                	unimp
    4952:	0000                	unimp
    4954:	0000                	unimp
    4956:	0000                	unimp
    4958:	0000                	unimp
    495a:	0000                	unimp
    495c:	0000                	unimp
    495e:	0000                	unimp
    4960:	0000                	unimp
    4962:	0000                	unimp
    4964:	0000                	unimp
    4966:	0000                	unimp
    4968:	0000                	unimp
    496a:	0000                	unimp
    496c:	0000                	unimp
    496e:	0000                	unimp
    4970:	0000                	unimp
    4972:	0000                	unimp
    4974:	0000                	unimp
    4976:	0000                	unimp
    4978:	0000                	unimp
    497a:	0000                	unimp
    497c:	0000                	unimp
    497e:	0000                	unimp
    4980:	0000                	unimp
    4982:	0000                	unimp
    4984:	0000                	unimp
    4986:	0000                	unimp
    4988:	0000                	unimp
    498a:	0000                	unimp
    498c:	0000                	unimp
    498e:	0000                	unimp
    4990:	0000                	unimp
    4992:	0000                	unimp
    4994:	0000                	unimp
    4996:	0000                	unimp
    4998:	0000                	unimp
    499a:	0000                	unimp
    499c:	0000                	unimp
    499e:	0000                	unimp
    49a0:	0000                	unimp
    49a2:	0000                	unimp
    49a4:	0000                	unimp
    49a6:	0000                	unimp
    49a8:	0000                	unimp
    49aa:	0000                	unimp
    49ac:	0000                	unimp
    49ae:	0000                	unimp
    49b0:	0000                	unimp
    49b2:	0000                	unimp
    49b4:	0000                	unimp
    49b6:	0000                	unimp
    49b8:	0000                	unimp
    49ba:	0000                	unimp
    49bc:	0000                	unimp
    49be:	0000                	unimp
    49c0:	0000                	unimp
    49c2:	0000                	unimp
    49c4:	0000                	unimp
    49c6:	0000                	unimp
    49c8:	0000                	unimp
    49ca:	0000                	unimp
    49cc:	0000                	unimp
    49ce:	0000                	unimp
    49d0:	0000                	unimp
    49d2:	0000                	unimp
    49d4:	0000                	unimp
    49d6:	0000                	unimp
    49d8:	0000                	unimp
    49da:	0000                	unimp
    49dc:	0000                	unimp
    49de:	0000                	unimp
    49e0:	0000                	unimp
    49e2:	0000                	unimp
    49e4:	0000                	unimp
    49e6:	0000                	unimp
    49e8:	0000                	unimp
    49ea:	0000                	unimp
    49ec:	0000                	unimp
    49ee:	0000                	unimp
    49f0:	0000                	unimp
    49f2:	0000                	unimp
    49f4:	0000                	unimp
    49f6:	0000                	unimp
    49f8:	0000                	unimp
    49fa:	0000                	unimp
    49fc:	0000                	unimp
    49fe:	0000                	unimp
    4a00:	0000                	unimp
    4a02:	0000                	unimp
    4a04:	0000                	unimp
    4a06:	0000                	unimp
    4a08:	0000                	unimp
    4a0a:	0000                	unimp
    4a0c:	0000                	unimp
    4a0e:	0000                	unimp
    4a10:	0000                	unimp
    4a12:	0000                	unimp
    4a14:	0000                	unimp
    4a16:	0000                	unimp
    4a18:	0000                	unimp
    4a1a:	0000                	unimp
    4a1c:	0000                	unimp
    4a1e:	0000                	unimp
    4a20:	0000                	unimp
    4a22:	0000                	unimp
    4a24:	0000                	unimp
    4a26:	0000                	unimp
    4a28:	0000                	unimp
    4a2a:	0000                	unimp
    4a2c:	0000                	unimp
    4a2e:	0000                	unimp
    4a30:	0000                	unimp
    4a32:	0000                	unimp
    4a34:	0000                	unimp
    4a36:	0000                	unimp
    4a38:	0000                	unimp
    4a3a:	0000                	unimp
    4a3c:	0000                	unimp
    4a3e:	0000                	unimp
    4a40:	0000                	unimp
    4a42:	0000                	unimp
    4a44:	0000                	unimp
    4a46:	0000                	unimp
    4a48:	0000                	unimp
    4a4a:	0000                	unimp
    4a4c:	0000                	unimp
    4a4e:	0000                	unimp
    4a50:	0000                	unimp
    4a52:	0000                	unimp
    4a54:	0000                	unimp
    4a56:	0000                	unimp
    4a58:	0000                	unimp
    4a5a:	0000                	unimp
    4a5c:	0000                	unimp
    4a5e:	0000                	unimp
    4a60:	0000                	unimp
    4a62:	0000                	unimp
    4a64:	0000                	unimp
    4a66:	0000                	unimp
    4a68:	0000                	unimp
    4a6a:	0000                	unimp
    4a6c:	0000                	unimp
    4a6e:	0000                	unimp
    4a70:	0000                	unimp
    4a72:	0000                	unimp
    4a74:	0000                	unimp
    4a76:	0000                	unimp
    4a78:	0000                	unimp
    4a7a:	0000                	unimp
    4a7c:	0000                	unimp
    4a7e:	0000                	unimp
    4a80:	0000                	unimp
    4a82:	0000                	unimp
    4a84:	0000                	unimp
    4a86:	0000                	unimp
    4a88:	0000                	unimp
    4a8a:	0000                	unimp
    4a8c:	0000                	unimp
    4a8e:	0000                	unimp
    4a90:	0000                	unimp
    4a92:	0000                	unimp
    4a94:	0000                	unimp
    4a96:	0000                	unimp
    4a98:	0000                	unimp
    4a9a:	0000                	unimp
    4a9c:	0000                	unimp
    4a9e:	0000                	unimp
    4aa0:	0000                	unimp
    4aa2:	0000                	unimp
    4aa4:	0000                	unimp
    4aa6:	0000                	unimp
    4aa8:	0000                	unimp
    4aaa:	0000                	unimp
    4aac:	0000                	unimp
    4aae:	0000                	unimp
    4ab0:	0000                	unimp
    4ab2:	0000                	unimp
    4ab4:	0000                	unimp
    4ab6:	0000                	unimp
    4ab8:	0000                	unimp
    4aba:	0000                	unimp
    4abc:	0000                	unimp
    4abe:	0000                	unimp
    4ac0:	0000                	unimp
    4ac2:	0000                	unimp
    4ac4:	0000                	unimp
    4ac6:	0000                	unimp
    4ac8:	0000                	unimp
    4aca:	0000                	unimp
    4acc:	0000                	unimp
    4ace:	0000                	unimp
    4ad0:	0000                	unimp
    4ad2:	0000                	unimp
    4ad4:	0000                	unimp
    4ad6:	0000                	unimp
    4ad8:	0000                	unimp
    4ada:	0000                	unimp
    4adc:	0000                	unimp
    4ade:	0000                	unimp
    4ae0:	0000                	unimp
    4ae2:	0000                	unimp
    4ae4:	0000                	unimp
    4ae6:	0000                	unimp
    4ae8:	0000                	unimp
    4aea:	0000                	unimp
    4aec:	0000                	unimp
    4aee:	0000                	unimp
    4af0:	0000                	unimp
    4af2:	0000                	unimp
    4af4:	0000                	unimp
    4af6:	0000                	unimp
    4af8:	0000                	unimp
    4afa:	0000                	unimp
    4afc:	0000                	unimp
    4afe:	0000                	unimp
    4b00:	0000                	unimp
    4b02:	0000                	unimp
    4b04:	0000                	unimp
    4b06:	0000                	unimp
    4b08:	0000                	unimp
    4b0a:	0000                	unimp
    4b0c:	0000                	unimp
    4b0e:	0000                	unimp
    4b10:	0000                	unimp
    4b12:	0000                	unimp
    4b14:	0000                	unimp
    4b16:	0000                	unimp
    4b18:	0000                	unimp
    4b1a:	0000                	unimp
    4b1c:	0000                	unimp
    4b1e:	0000                	unimp
    4b20:	0000                	unimp
    4b22:	0000                	unimp
    4b24:	0000                	unimp
    4b26:	0000                	unimp
    4b28:	0000                	unimp
    4b2a:	0000                	unimp
    4b2c:	0000                	unimp
    4b2e:	0000                	unimp
    4b30:	0000                	unimp
    4b32:	0000                	unimp
    4b34:	0000                	unimp
    4b36:	0000                	unimp
    4b38:	0000                	unimp
    4b3a:	0000                	unimp
    4b3c:	0000                	unimp
    4b3e:	0000                	unimp
    4b40:	0000                	unimp
    4b42:	0000                	unimp
    4b44:	0000                	unimp
    4b46:	0000                	unimp
    4b48:	0000                	unimp
    4b4a:	0000                	unimp
    4b4c:	0000                	unimp
    4b4e:	0000                	unimp
    4b50:	0000                	unimp
    4b52:	0000                	unimp
    4b54:	0000                	unimp
    4b56:	0000                	unimp
    4b58:	0000                	unimp
    4b5a:	0000                	unimp
    4b5c:	0000                	unimp
    4b5e:	0000                	unimp
    4b60:	0000                	unimp
    4b62:	0000                	unimp
    4b64:	0000                	unimp
    4b66:	0000                	unimp
    4b68:	0000                	unimp
    4b6a:	0000                	unimp
    4b6c:	0000                	unimp
    4b6e:	0000                	unimp
    4b70:	0000                	unimp
    4b72:	0000                	unimp
    4b74:	0000                	unimp
    4b76:	0000                	unimp
    4b78:	0000                	unimp
    4b7a:	0000                	unimp
    4b7c:	0000                	unimp
    4b7e:	0000                	unimp
    4b80:	0000                	unimp
    4b82:	0000                	unimp
    4b84:	0000                	unimp
    4b86:	0000                	unimp
    4b88:	0000                	unimp
    4b8a:	0000                	unimp
    4b8c:	0000                	unimp
    4b8e:	0000                	unimp
    4b90:	0000                	unimp
    4b92:	0000                	unimp
    4b94:	0000                	unimp
    4b96:	0000                	unimp
    4b98:	0000                	unimp
    4b9a:	0000                	unimp
    4b9c:	0000                	unimp
    4b9e:	0000                	unimp
    4ba0:	0000                	unimp
    4ba2:	0000                	unimp
    4ba4:	0000                	unimp
    4ba6:	0000                	unimp
    4ba8:	0000                	unimp
    4baa:	0000                	unimp
    4bac:	0000                	unimp
    4bae:	0000                	unimp
    4bb0:	0000                	unimp
    4bb2:	0000                	unimp
    4bb4:	0000                	unimp
    4bb6:	0000                	unimp
    4bb8:	0000                	unimp
    4bba:	0000                	unimp
    4bbc:	0000                	unimp
    4bbe:	0000                	unimp
    4bc0:	0000                	unimp
    4bc2:	0000                	unimp
    4bc4:	0000                	unimp
    4bc6:	0000                	unimp
    4bc8:	0000                	unimp
    4bca:	0000                	unimp
    4bcc:	0000                	unimp
    4bce:	0000                	unimp
    4bd0:	0000                	unimp
    4bd2:	0000                	unimp
    4bd4:	0000                	unimp
    4bd6:	0000                	unimp
    4bd8:	0000                	unimp
    4bda:	0000                	unimp
    4bdc:	0000                	unimp
    4bde:	0000                	unimp
    4be0:	0000                	unimp
    4be2:	0000                	unimp
    4be4:	0000                	unimp
    4be6:	0000                	unimp
    4be8:	0000                	unimp
    4bea:	0000                	unimp
    4bec:	0000                	unimp
    4bee:	0000                	unimp
    4bf0:	0000                	unimp
    4bf2:	0000                	unimp
    4bf4:	0000                	unimp
    4bf6:	0000                	unimp
    4bf8:	0000                	unimp
    4bfa:	0000                	unimp
    4bfc:	0000                	unimp
    4bfe:	0000                	unimp
    4c00:	0000                	unimp
    4c02:	0000                	unimp
    4c04:	0000                	unimp
    4c06:	0000                	unimp
    4c08:	0000                	unimp
    4c0a:	0000                	unimp
    4c0c:	0000                	unimp
    4c0e:	0000                	unimp
    4c10:	0000                	unimp
    4c12:	0000                	unimp
    4c14:	0000                	unimp
    4c16:	0000                	unimp
    4c18:	0000                	unimp
    4c1a:	0000                	unimp
    4c1c:	0000                	unimp
    4c1e:	0000                	unimp
    4c20:	0000                	unimp
    4c22:	0000                	unimp
    4c24:	0000                	unimp
    4c26:	0000                	unimp
    4c28:	0000                	unimp
    4c2a:	0000                	unimp
    4c2c:	0000                	unimp
    4c2e:	0000                	unimp
    4c30:	0000                	unimp
    4c32:	0000                	unimp
    4c34:	0000                	unimp
    4c36:	0000                	unimp
    4c38:	0000                	unimp
    4c3a:	0000                	unimp
    4c3c:	0000                	unimp
    4c3e:	0000                	unimp
    4c40:	0000                	unimp
    4c42:	0000                	unimp
    4c44:	0000                	unimp
    4c46:	0000                	unimp
    4c48:	0000                	unimp
    4c4a:	0000                	unimp
    4c4c:	0000                	unimp
    4c4e:	0000                	unimp
    4c50:	0000                	unimp
    4c52:	0000                	unimp
    4c54:	0000                	unimp
    4c56:	0000                	unimp
    4c58:	0000                	unimp
    4c5a:	0000                	unimp
    4c5c:	0000                	unimp
    4c5e:	0000                	unimp
    4c60:	0000                	unimp
    4c62:	0000                	unimp
    4c64:	0000                	unimp
    4c66:	0000                	unimp
    4c68:	0000                	unimp
    4c6a:	0000                	unimp
    4c6c:	0000                	unimp
    4c6e:	0000                	unimp
    4c70:	0000                	unimp
    4c72:	0000                	unimp
    4c74:	0000                	unimp
    4c76:	0000                	unimp
    4c78:	0000                	unimp
    4c7a:	0000                	unimp
    4c7c:	0000                	unimp
    4c7e:	0000                	unimp
    4c80:	0000                	unimp
    4c82:	0000                	unimp
    4c84:	0000                	unimp
    4c86:	0000                	unimp
    4c88:	0000                	unimp
    4c8a:	0000                	unimp
    4c8c:	0000                	unimp
    4c8e:	0000                	unimp
    4c90:	0000                	unimp
    4c92:	0000                	unimp
    4c94:	0000                	unimp
    4c96:	0000                	unimp
    4c98:	0000                	unimp
    4c9a:	0000                	unimp
    4c9c:	0000                	unimp
    4c9e:	0000                	unimp
    4ca0:	0000                	unimp
    4ca2:	0000                	unimp
    4ca4:	0000                	unimp
    4ca6:	0000                	unimp
    4ca8:	0000                	unimp
    4caa:	0000                	unimp
    4cac:	0000                	unimp
    4cae:	0000                	unimp
    4cb0:	0000                	unimp
    4cb2:	0000                	unimp
    4cb4:	0000                	unimp
    4cb6:	0000                	unimp
    4cb8:	0000                	unimp
    4cba:	0000                	unimp
    4cbc:	0000                	unimp
    4cbe:	0000                	unimp
    4cc0:	0000                	unimp
    4cc2:	0000                	unimp
    4cc4:	0000                	unimp
    4cc6:	0000                	unimp
    4cc8:	0000                	unimp
    4cca:	0000                	unimp
    4ccc:	0000                	unimp
    4cce:	0000                	unimp
    4cd0:	0000                	unimp
    4cd2:	0000                	unimp
    4cd4:	0000                	unimp
    4cd6:	0000                	unimp
    4cd8:	0000                	unimp
    4cda:	0000                	unimp
    4cdc:	0000                	unimp
    4cde:	0000                	unimp
    4ce0:	0000                	unimp
    4ce2:	0000                	unimp
    4ce4:	0000                	unimp
    4ce6:	0000                	unimp
    4ce8:	0000                	unimp
    4cea:	0000                	unimp
    4cec:	0000                	unimp
    4cee:	0000                	unimp
    4cf0:	0000                	unimp
    4cf2:	0000                	unimp
    4cf4:	0000                	unimp
    4cf6:	0000                	unimp
    4cf8:	0000                	unimp
    4cfa:	0000                	unimp
    4cfc:	0000                	unimp
    4cfe:	0000                	unimp
    4d00:	0000                	unimp
    4d02:	0000                	unimp
    4d04:	0000                	unimp
    4d06:	0000                	unimp
    4d08:	0000                	unimp
    4d0a:	0000                	unimp
    4d0c:	0000                	unimp
    4d0e:	0000                	unimp
    4d10:	0000                	unimp
    4d12:	0000                	unimp
    4d14:	0000                	unimp
    4d16:	0000                	unimp
    4d18:	0000                	unimp
    4d1a:	0000                	unimp
    4d1c:	0000                	unimp
    4d1e:	0000                	unimp
    4d20:	0000                	unimp
    4d22:	0000                	unimp
    4d24:	0000                	unimp
    4d26:	0000                	unimp
    4d28:	0000                	unimp
    4d2a:	0000                	unimp
    4d2c:	0000                	unimp
    4d2e:	0000                	unimp
    4d30:	0000                	unimp
    4d32:	0000                	unimp
    4d34:	0000                	unimp
    4d36:	0000                	unimp
    4d38:	0000                	unimp
    4d3a:	0000                	unimp
    4d3c:	0000                	unimp
    4d3e:	0000                	unimp
    4d40:	0000                	unimp
    4d42:	0000                	unimp
    4d44:	0000                	unimp
    4d46:	0000                	unimp
    4d48:	0000                	unimp
    4d4a:	0000                	unimp
    4d4c:	0000                	unimp
    4d4e:	0000                	unimp
    4d50:	0000                	unimp
    4d52:	0000                	unimp
    4d54:	0000                	unimp
    4d56:	0000                	unimp
    4d58:	0000                	unimp
    4d5a:	0000                	unimp
    4d5c:	0000                	unimp
    4d5e:	0000                	unimp
    4d60:	0000                	unimp
    4d62:	0000                	unimp
    4d64:	0000                	unimp
    4d66:	0000                	unimp
    4d68:	0000                	unimp
    4d6a:	0000                	unimp
    4d6c:	0000                	unimp
    4d6e:	0000                	unimp
    4d70:	0000                	unimp
    4d72:	0000                	unimp
    4d74:	0000                	unimp
    4d76:	0000                	unimp
    4d78:	0000                	unimp
    4d7a:	0000                	unimp
    4d7c:	0000                	unimp
    4d7e:	0000                	unimp
    4d80:	0000                	unimp
    4d82:	0000                	unimp
    4d84:	0000                	unimp
    4d86:	0000                	unimp
    4d88:	0000                	unimp
    4d8a:	0000                	unimp
    4d8c:	0000                	unimp
    4d8e:	0000                	unimp
    4d90:	0000                	unimp
    4d92:	0000                	unimp
    4d94:	0000                	unimp
    4d96:	0000                	unimp
    4d98:	0000                	unimp
    4d9a:	0000                	unimp
    4d9c:	0000                	unimp
    4d9e:	0000                	unimp
    4da0:	0000                	unimp
    4da2:	0000                	unimp
    4da4:	0000                	unimp
    4da6:	0000                	unimp
    4da8:	0000                	unimp
    4daa:	0000                	unimp
    4dac:	0000                	unimp
    4dae:	0000                	unimp
    4db0:	0000                	unimp
    4db2:	0000                	unimp
    4db4:	0000                	unimp
    4db6:	0000                	unimp
    4db8:	0000                	unimp
    4dba:	0000                	unimp
    4dbc:	0000                	unimp
    4dbe:	0000                	unimp
    4dc0:	0000                	unimp
    4dc2:	0000                	unimp
    4dc4:	0000                	unimp
    4dc6:	0000                	unimp
    4dc8:	0000                	unimp
    4dca:	0000                	unimp
    4dcc:	0000                	unimp
    4dce:	0000                	unimp
    4dd0:	0000                	unimp
    4dd2:	0000                	unimp
    4dd4:	0000                	unimp
    4dd6:	0000                	unimp
    4dd8:	0000                	unimp
    4dda:	0000                	unimp
    4ddc:	0000                	unimp
    4dde:	0000                	unimp
    4de0:	0000                	unimp
    4de2:	0000                	unimp
    4de4:	0000                	unimp
    4de6:	0000                	unimp
    4de8:	0000                	unimp
    4dea:	0000                	unimp
    4dec:	0000                	unimp
    4dee:	0000                	unimp
    4df0:	0000                	unimp
    4df2:	0000                	unimp
    4df4:	0000                	unimp
    4df6:	0000                	unimp
    4df8:	0000                	unimp
    4dfa:	0000                	unimp
    4dfc:	0000                	unimp
    4dfe:	0000                	unimp
    4e00:	0000                	unimp
    4e02:	0000                	unimp
    4e04:	0000                	unimp
    4e06:	0000                	unimp
    4e08:	0000                	unimp
    4e0a:	0000                	unimp
    4e0c:	0000                	unimp
    4e0e:	0000                	unimp
    4e10:	0000                	unimp
    4e12:	0000                	unimp
    4e14:	0000                	unimp
    4e16:	0000                	unimp
    4e18:	0000                	unimp
    4e1a:	0000                	unimp
    4e1c:	0000                	unimp
    4e1e:	0000                	unimp
    4e20:	0000                	unimp
    4e22:	0000                	unimp
    4e24:	0000                	unimp
    4e26:	0000                	unimp
    4e28:	0000                	unimp
    4e2a:	0000                	unimp
    4e2c:	0000                	unimp
    4e2e:	0000                	unimp
    4e30:	0000                	unimp
    4e32:	0000                	unimp
    4e34:	0000                	unimp
    4e36:	0000                	unimp
    4e38:	0000                	unimp
    4e3a:	0000                	unimp
    4e3c:	0000                	unimp
    4e3e:	0000                	unimp
    4e40:	0000                	unimp
    4e42:	0000                	unimp
    4e44:	0000                	unimp
    4e46:	0000                	unimp
    4e48:	0000                	unimp
    4e4a:	0000                	unimp
    4e4c:	0000                	unimp
    4e4e:	0000                	unimp
    4e50:	0000                	unimp
    4e52:	0000                	unimp
    4e54:	0000                	unimp
    4e56:	0000                	unimp
    4e58:	0000                	unimp
    4e5a:	0000                	unimp
    4e5c:	0000                	unimp
    4e5e:	0000                	unimp
    4e60:	0000                	unimp
    4e62:	0000                	unimp
    4e64:	0000                	unimp
    4e66:	0000                	unimp
    4e68:	0000                	unimp
    4e6a:	0000                	unimp
    4e6c:	0000                	unimp
    4e6e:	0000                	unimp
    4e70:	0000                	unimp
    4e72:	0000                	unimp
    4e74:	0000                	unimp
    4e76:	0000                	unimp
    4e78:	0000                	unimp
    4e7a:	0000                	unimp
    4e7c:	0000                	unimp
    4e7e:	0000                	unimp
    4e80:	0000                	unimp
    4e82:	0000                	unimp
    4e84:	0000                	unimp
    4e86:	0000                	unimp
    4e88:	0000                	unimp
    4e8a:	0000                	unimp
    4e8c:	0000                	unimp
    4e8e:	0000                	unimp
    4e90:	0000                	unimp
    4e92:	0000                	unimp
    4e94:	0000                	unimp
    4e96:	0000                	unimp
    4e98:	0000                	unimp
    4e9a:	0000                	unimp
    4e9c:	0000                	unimp
    4e9e:	0000                	unimp
    4ea0:	0000                	unimp
    4ea2:	0000                	unimp
    4ea4:	0000                	unimp
    4ea6:	0000                	unimp
    4ea8:	0000                	unimp
    4eaa:	0000                	unimp
    4eac:	0000                	unimp
    4eae:	0000                	unimp
    4eb0:	0000                	unimp
    4eb2:	0000                	unimp
    4eb4:	0000                	unimp
    4eb6:	0000                	unimp
    4eb8:	0000                	unimp
    4eba:	0000                	unimp
    4ebc:	0000                	unimp
    4ebe:	0000                	unimp
    4ec0:	0000                	unimp
    4ec2:	0000                	unimp
    4ec4:	0000                	unimp
    4ec6:	0000                	unimp
    4ec8:	0000                	unimp
    4eca:	0000                	unimp
    4ecc:	0000                	unimp
    4ece:	0000                	unimp
    4ed0:	0000                	unimp
    4ed2:	0000                	unimp
    4ed4:	0000                	unimp
    4ed6:	0000                	unimp
    4ed8:	0000                	unimp
    4eda:	0000                	unimp
    4edc:	0000                	unimp
    4ede:	0000                	unimp
    4ee0:	0000                	unimp
    4ee2:	0000                	unimp
    4ee4:	0000                	unimp
    4ee6:	0000                	unimp
    4ee8:	0000                	unimp
    4eea:	0000                	unimp
    4eec:	0000                	unimp
    4eee:	0000                	unimp
    4ef0:	0000                	unimp
    4ef2:	0000                	unimp
    4ef4:	0000                	unimp
    4ef6:	0000                	unimp
    4ef8:	0000                	unimp
    4efa:	0000                	unimp
    4efc:	0000                	unimp
    4efe:	0000                	unimp
    4f00:	0000                	unimp
    4f02:	0000                	unimp
    4f04:	0000                	unimp
    4f06:	0000                	unimp
    4f08:	0000                	unimp
    4f0a:	0000                	unimp
    4f0c:	0000                	unimp
    4f0e:	0000                	unimp
    4f10:	0000                	unimp
    4f12:	0000                	unimp
    4f14:	0000                	unimp
    4f16:	0000                	unimp
    4f18:	0000                	unimp
    4f1a:	0000                	unimp
    4f1c:	0000                	unimp
    4f1e:	0000                	unimp
    4f20:	0000                	unimp
    4f22:	0000                	unimp
    4f24:	0000                	unimp
    4f26:	0000                	unimp
    4f28:	0000                	unimp
    4f2a:	0000                	unimp
    4f2c:	0000                	unimp
    4f2e:	0000                	unimp
    4f30:	0000                	unimp
    4f32:	0000                	unimp
    4f34:	0000                	unimp
    4f36:	0000                	unimp
    4f38:	0000                	unimp
    4f3a:	0000                	unimp
    4f3c:	0000                	unimp
    4f3e:	0000                	unimp
    4f40:	0000                	unimp
    4f42:	0000                	unimp
    4f44:	0000                	unimp
    4f46:	0000                	unimp
    4f48:	0000                	unimp
    4f4a:	0000                	unimp
    4f4c:	0000                	unimp
    4f4e:	0000                	unimp
    4f50:	0000                	unimp
    4f52:	0000                	unimp
    4f54:	0000                	unimp
    4f56:	0000                	unimp
    4f58:	0000                	unimp
    4f5a:	0000                	unimp
    4f5c:	0000                	unimp
    4f5e:	0000                	unimp
    4f60:	0000                	unimp
    4f62:	0000                	unimp
    4f64:	0000                	unimp
    4f66:	0000                	unimp
    4f68:	0000                	unimp
    4f6a:	0000                	unimp
    4f6c:	0000                	unimp
    4f6e:	0000                	unimp
    4f70:	0000                	unimp
    4f72:	0000                	unimp
    4f74:	0000                	unimp
    4f76:	0000                	unimp
    4f78:	0000                	unimp
    4f7a:	0000                	unimp
    4f7c:	0000                	unimp
    4f7e:	0000                	unimp
    4f80:	0000                	unimp
    4f82:	0000                	unimp
    4f84:	0000                	unimp
    4f86:	0000                	unimp
    4f88:	0000                	unimp
    4f8a:	0000                	unimp
    4f8c:	0000                	unimp
    4f8e:	0000                	unimp
    4f90:	0000                	unimp
    4f92:	0000                	unimp
    4f94:	0000                	unimp
    4f96:	0000                	unimp
    4f98:	0000                	unimp
    4f9a:	0000                	unimp
    4f9c:	0000                	unimp
    4f9e:	0000                	unimp
    4fa0:	0000                	unimp
    4fa2:	0000                	unimp
    4fa4:	0000                	unimp
    4fa6:	0000                	unimp
    4fa8:	0000                	unimp
    4faa:	0000                	unimp
    4fac:	0000                	unimp
    4fae:	0000                	unimp
    4fb0:	0000                	unimp
    4fb2:	0000                	unimp
    4fb4:	0000                	unimp
    4fb6:	0000                	unimp
    4fb8:	0000                	unimp
    4fba:	0000                	unimp
    4fbc:	0000                	unimp
    4fbe:	0000                	unimp
    4fc0:	0000                	unimp
    4fc2:	0000                	unimp
    4fc4:	0000                	unimp
    4fc6:	0000                	unimp
    4fc8:	0000                	unimp
    4fca:	0000                	unimp
    4fcc:	0000                	unimp
    4fce:	0000                	unimp
    4fd0:	0000                	unimp
    4fd2:	0000                	unimp
    4fd4:	0000                	unimp
    4fd6:	0000                	unimp
    4fd8:	0000                	unimp
    4fda:	0000                	unimp
    4fdc:	0000                	unimp
    4fde:	0000                	unimp
    4fe0:	0000                	unimp
    4fe2:	0000                	unimp
    4fe4:	0000                	unimp
    4fe6:	0000                	unimp
    4fe8:	0000                	unimp
    4fea:	0000                	unimp
    4fec:	0000                	unimp
    4fee:	0000                	unimp
    4ff0:	0000                	unimp
    4ff2:	0000                	unimp
    4ff4:	0000                	unimp
    4ff6:	0000                	unimp
    4ff8:	0000                	unimp
    4ffa:	0000                	unimp
    4ffc:	0000                	unimp
    4ffe:	00158593          	addi	a1,a1,1
    5002:	29b00393          	li	t2,667
    5006:	00200193          	li	gp,2
    500a:	2a759f63          	bne	a1,t2,52c8 <fail>
    500e:	00001137          	lui	sp,0x1
    5012:	2341011b          	addiw	sp,sp,564

0000000000005016 <test_3>:
    5016:	1fe8                	addi	a0,sp,1020
    5018:	000013b7          	lui	t2,0x1
    501c:	6303839b          	addiw	t2,t2,1584
    5020:	00300193          	li	gp,3
    5024:	2a751263          	bne	a0,t2,52c8 <fail>

0000000000005028 <test_4>:
    5028:	617d                	addi	sp,sp,496
    502a:	0001                	nop
    502c:	000013b7          	lui	t2,0x1
    5030:	4243839b          	addiw	t2,t2,1060
    5034:	00400193          	li	gp,4
    5038:	28711863          	bne	sp,t2,52c8 <fail>

000000000000503c <test_5>:
    503c:	7101                	addi	sp,sp,-512
    503e:	0001                	nop
    5040:	000013b7          	lui	t2,0x1
    5044:	2243839b          	addiw	t2,t2,548
    5048:	00500193          	li	gp,5
    504c:	26711e63          	bne	sp,t2,52c8 <fail>
    5050:	ffffe597          	auipc	a1,0xffffe
    5054:	fc058593          	addi	a1,a1,-64 # 3010 <data>

0000000000005058 <test_6>:
    5058:	41c8                	lw	a0,4(a1)
    505a:	0505                	addi	a0,a0,1
    505c:	c1c8                	sw	a0,4(a1)
    505e:	41d0                	lw	a2,4(a1)
    5060:	fedcc3b7          	lui	t2,0xfedcc
    5064:	a993839b          	addiw	t2,t2,-1383
    5068:	00600193          	li	gp,6
    506c:	24761e63          	bne	a2,t2,52c8 <fail>

0000000000005070 <test_7>:
    5070:	6188                	ld	a0,0(a1)
    5072:	0505                	addi	a0,a0,1
    5074:	e188                	sd	a0,0(a1)
    5076:	6190                	ld	a2,0(a1)
    5078:	fff6e3b7          	lui	t2,0xfff6e
    507c:	5d53839b          	addiw	t2,t2,1493
    5080:	00c39393          	slli	t2,t2,0xc
    5084:	cbb38393          	addi	t2,t2,-837 # fffffffffff6dcbb <_end+0xfffffffffff624cb>
    5088:	00d39393          	slli	t2,t2,0xd
    508c:	54338393          	addi	t2,t2,1347
    5090:	00c39393          	slli	t2,t2,0xc
    5094:	21138393          	addi	t2,t2,529
    5098:	00700193          	li	gp,7
    509c:	22761663          	bne	a2,t2,52c8 <fail>

00000000000050a0 <test_8>:
    50a0:	00106513          	ori	a0,zero,1
    50a4:	1541                	addi	a0,a0,-16
    50a6:	0001                	nop
    50a8:	ff100393          	li	t2,-15
    50ac:	00800193          	li	gp,8
    50b0:	20751c63          	bne	a0,t2,52c8 <fail>

00000000000050b4 <test_9>:
    50b4:	00106793          	ori	a5,zero,1
    50b8:	57c1                	li	a5,-16
    50ba:	0001                	nop
    50bc:	ff000393          	li	t2,-16
    50c0:	00900193          	li	gp,9
    50c4:	20779263          	bne	a5,t2,52c8 <fail>

00000000000050c8 <test_10>:
    50c8:	6188                	ld	a0,0(a1)
    50ca:	357d                	addiw	a0,a0,-1
    50cc:	765433b7          	lui	t2,0x76543
    50d0:	2103839b          	addiw	t2,t2,528
    50d4:	00a00193          	li	gp,10
    50d8:	1e751863          	bne	a0,t2,52c8 <fail>

00000000000050dc <test_11>:
    50dc:	7405                	lui	s0,0xfffe1
    50de:	8431                	srai	s0,s0,0xc
    50e0:	fe100393          	li	t2,-31
    50e4:	00b00193          	li	gp,11
    50e8:	1e741063          	bne	s0,t2,52c8 <fail>

00000000000050ec <test_12>:
    50ec:	7405                	lui	s0,0xfffe1
    50ee:	8031                	srli	s0,s0,0xc
    50f0:	0010039b          	addiw	t2,zero,1
    50f4:	03439393          	slli	t2,t2,0x34
    50f8:	fe138393          	addi	t2,t2,-31 # 76542fe1 <_end+0x765377f1>
    50fc:	00c00193          	li	gp,12
    5100:	1c741463          	bne	s0,t2,52c8 <fail>

0000000000005104 <test_14>:
    5104:	5479                	li	s0,-2
    5106:	983d                	andi	s0,s0,-17
    5108:	fee00393          	li	t2,-18
    510c:	00e00193          	li	gp,14
    5110:	1a741c63          	bne	s0,t2,52c8 <fail>

0000000000005114 <test_15>:
    5114:	44d1                	li	s1,20
    5116:	4519                	li	a0,6
    5118:	8c89                	sub	s1,s1,a0
    511a:	0001                	nop
    511c:	00e00393          	li	t2,14
    5120:	00f00193          	li	gp,15
    5124:	1a749263          	bne	s1,t2,52c8 <fail>

0000000000005128 <test_16>:
    5128:	44d1                	li	s1,20
    512a:	4519                	li	a0,6
    512c:	8ca9                	xor	s1,s1,a0
    512e:	0001                	nop
    5130:	01200393          	li	t2,18
    5134:	01000193          	li	gp,16
    5138:	18749863          	bne	s1,t2,52c8 <fail>

000000000000513c <test_17>:
    513c:	44d1                	li	s1,20
    513e:	4519                	li	a0,6
    5140:	8cc9                	or	s1,s1,a0
    5142:	0001                	nop
    5144:	01600393          	li	t2,22
    5148:	01100193          	li	gp,17
    514c:	16749e63          	bne	s1,t2,52c8 <fail>

0000000000005150 <test_18>:
    5150:	44d1                	li	s1,20
    5152:	4519                	li	a0,6
    5154:	8ce9                	and	s1,s1,a0
    5156:	0001                	nop
    5158:	00400393          	li	t2,4
    515c:	01200193          	li	gp,18
    5160:	16749463          	bne	s1,t2,52c8 <fail>

0000000000005164 <test_19>:
    5164:	800004b7          	lui	s1,0x80000
    5168:	34fd                	addiw	s1,s1,-1
    516a:	557d                	li	a0,-1
    516c:	9c89                	subw	s1,s1,a0
    516e:	0001                	nop
    5170:	800003b7          	lui	t2,0x80000
    5174:	01300193          	li	gp,19
    5178:	14749863          	bne	s1,t2,52c8 <fail>

000000000000517c <test_20>:
    517c:	800004b7          	lui	s1,0x80000
    5180:	34fd                	addiw	s1,s1,-1
    5182:	4505                	li	a0,1
    5184:	9ca9                	addw	s1,s1,a0
    5186:	0001                	nop
    5188:	800003b7          	lui	t2,0x80000
    518c:	01400193          	li	gp,20
    5190:	12749c63          	bne	s1,t2,52c8 <fail>

0000000000005194 <test_21>:
    5194:	6405                	lui	s0,0x1
    5196:	2344041b          	addiw	s0,s0,564
    519a:	0412                	slli	s0,s0,0x4
    519c:	000123b7          	lui	t2,0x12
    51a0:	3403839b          	addiw	t2,t2,832
    51a4:	01500193          	li	gp,21
    51a8:	12741063          	bne	s0,t2,52c8 <fail>

00000000000051ac <test_30>:
    51ac:	4081                	li	ra,0
    51ae:	a011                	j	51b2 <test_30+0x6>
    51b0:	a011                	j	51b4 <test_30+0x8>
    51b2:	a011                	j	51b6 <test_30+0xa>
    51b4:	aa11                	j	52c8 <fail>
    51b6:	0001                	nop
    51b8:	00000393          	li	t2,0
    51bc:	01e00193          	li	gp,30
    51c0:	10709463          	bne	ra,t2,52c8 <fail>

00000000000051c4 <test_31>:
    51c4:	4501                	li	a0,0
    51c6:	c111                	beqz	a0,51ca <test_31+0x6>
    51c8:	a011                	j	51cc <test_31+0x8>
    51ca:	a011                	j	51ce <test_31+0xa>
    51cc:	a8f5                	j	52c8 <fail>
    51ce:	0001                	nop
    51d0:	00000393          	li	t2,0
    51d4:	01f00193          	li	gp,31
    51d8:	0e701863          	bne	zero,t2,52c8 <fail>

00000000000051dc <test_32>:
    51dc:	4505                	li	a0,1
    51de:	e111                	bnez	a0,51e2 <test_32+0x6>
    51e0:	a011                	j	51e4 <test_32+0x8>
    51e2:	a011                	j	51e6 <test_32+0xa>
    51e4:	a0d5                	j	52c8 <fail>
    51e6:	0001                	nop
    51e8:	00000393          	li	t2,0
    51ec:	02000193          	li	gp,32
    51f0:	0c701c63          	bne	zero,t2,52c8 <fail>

00000000000051f4 <test_33>:
    51f4:	4505                	li	a0,1
    51f6:	c111                	beqz	a0,51fa <test_33+0x6>
    51f8:	a011                	j	51fc <test_33+0x8>
    51fa:	a0f9                	j	52c8 <fail>
    51fc:	00000393          	li	t2,0
    5200:	02100193          	li	gp,33
    5204:	0c701263          	bne	zero,t2,52c8 <fail>

0000000000005208 <test_34>:
    5208:	4501                	li	a0,0
    520a:	e111                	bnez	a0,520e <test_34+0x6>
    520c:	a011                	j	5210 <test_34+0x8>
    520e:	a86d                	j	52c8 <fail>
    5210:	00000393          	li	t2,0
    5214:	02200193          	li	gp,34
    5218:	0a701863          	bne	zero,t2,52c8 <fail>

000000000000521c <test_35>:
    521c:	00000297          	auipc	t0,0x0
    5220:	00e28293          	addi	t0,t0,14 # 522a <test_35+0xe>
    5224:	4081                	li	ra,0
    5226:	8282                	jr	t0
    5228:	a011                	j	522c <test_35+0x10>
    522a:	a011                	j	522e <test_35+0x12>
    522c:	a871                	j	52c8 <fail>
    522e:	0001                	nop
    5230:	00000393          	li	t2,0
    5234:	02300193          	li	gp,35
    5238:	08709863          	bne	ra,t2,52c8 <fail>

000000000000523c <test_36>:
    523c:	00000297          	auipc	t0,0x0
    5240:	00e28293          	addi	t0,t0,14 # 524a <test_36+0xe>
    5244:	4081                	li	ra,0
    5246:	9282                	jalr	t0
    5248:	a011                	j	524c <test_36+0x10>
    524a:	a011                	j	524e <test_36+0x12>
    524c:	a8b5                	j	52c8 <fail>
    524e:	405080b3          	sub	ra,ra,t0
    5252:	0001                	nop
    5254:	ffe00393          	li	t2,-2
    5258:	02400193          	li	gp,36
    525c:	06709663          	bne	ra,t2,52c8 <fail>
    5260:	ffffe117          	auipc	sp,0xffffe
    5264:	db010113          	addi	sp,sp,-592 # 3010 <data>

0000000000005268 <test_40>:
    5268:	4532                	lw	a0,12(sp)
    526a:	0505                	addi	a0,a0,1
    526c:	c62a                	sw	a0,12(sp)
    526e:	4632                	lw	a2,12(sp)
    5270:	fedcc3b7          	lui	t2,0xfedcc
    5274:	a993839b          	addiw	t2,t2,-1383
    5278:	02800193          	li	gp,40
    527c:	04761663          	bne	a2,t2,52c8 <fail>

0000000000005280 <test_41>:
    5280:	6522                	ld	a0,8(sp)
    5282:	0505                	addi	a0,a0,1
    5284:	e42a                	sd	a0,8(sp)
    5286:	6622                	ld	a2,8(sp)
    5288:	fff6e3b7          	lui	t2,0xfff6e
    528c:	5d53839b          	addiw	t2,t2,1493
    5290:	00c39393          	slli	t2,t2,0xc
    5294:	cbb38393          	addi	t2,t2,-837 # fffffffffff6dcbb <_end+0xfffffffffff624cb>
    5298:	00d39393          	slli	t2,t2,0xd
    529c:	54338393          	addi	t2,t2,1347
    52a0:	00c39393          	slli	t2,t2,0xc
    52a4:	21138393          	addi	t2,t2,529
    52a8:	02900193          	li	gp,41
    52ac:	00761e63          	bne	a2,t2,52c8 <fail>

00000000000052b0 <test_42>:
    52b0:	12300513          	li	a0,291
    52b4:	82aa                	mv	t0,a0
    52b6:	92aa                	add	t0,t0,a0
    52b8:	24600393          	li	t2,582
    52bc:	02a00193          	li	gp,42
    52c0:	00729463          	bne	t0,t2,52c8 <fail>
    52c4:	00301a63          	bne	zero,gp,52d8 <pass>

00000000000052c8 <fail>:
    52c8:	00119513          	slli	a0,gp,0x1
    52cc:	00050063          	beqz	a0,52cc <fail+0x4>
    52d0:	00156513          	ori	a0,a0,1
    52d4:	00000073          	ecall

00000000000052d8 <pass>:
    52d8:	00100513          	li	a0,1
    52dc:	00000073          	ecall
    52e0:	c0001073          	unimp
    52e4:	0000                	unimp
    52e6:	0000                	unimp
    52e8:	0000                	unimp
    52ea:	0000                	unimp
    52ec:	0000                	unimp
    52ee:	0000                	unimp
    52f0:	0000                	unimp
    52f2:	0000                	unimp
    52f4:	0000                	unimp
    52f6:	0000                	unimp
    52f8:	0000                	unimp
    52fa:	0000                	unimp
    52fc:	0000                	unimp
    52fe:	0000                	unimp
    5300:	0000                	unimp
    5302:	0000                	unimp
    5304:	0000                	unimp
    5306:	0000                	unimp
    5308:	0000                	unimp
    530a:	0000                	unimp
    530c:	0000                	unimp
    530e:	0000                	unimp
    5310:	0000                	unimp
    5312:	0000                	unimp
    5314:	0000                	unimp
    5316:	0000                	unimp
    5318:	0000                	unimp
    531a:	0000                	unimp
    531c:	0000                	unimp
    531e:	0000                	unimp
    5320:	0000                	unimp
    5322:	0000                	unimp
    5324:	0000                	unimp
    5326:	0000                	unimp
    5328:	0000                	unimp
    532a:	0000                	unimp
    532c:	0000                	unimp
    532e:	0000                	unimp
    5330:	0000                	unimp
    5332:	0000                	unimp
    5334:	0000                	unimp
    5336:	0000                	unimp
    5338:	0000                	unimp
    533a:	0000                	unimp
    533c:	0000                	unimp
    533e:	0000                	unimp
    5340:	0000                	unimp
    5342:	0000                	unimp
    5344:	0000                	unimp
    5346:	0000                	unimp
    5348:	0000                	unimp
    534a:	0000                	unimp
    534c:	0000                	unimp
    534e:	0000                	unimp
    5350:	0000                	unimp
    5352:	0000                	unimp
    5354:	0000                	unimp
    5356:	0000                	unimp
    5358:	0000                	unimp
    535a:	0000                	unimp
    535c:	0000                	unimp
    535e:	0000                	unimp
    5360:	0000                	unimp
    5362:	0000                	unimp
    5364:	0000                	unimp
    5366:	0000                	unimp
    5368:	0000                	unimp
    536a:	0000                	unimp
    536c:	0000                	unimp
    536e:	0000                	unimp
    5370:	0000                	unimp
    5372:	0000                	unimp
    5374:	0000                	unimp
    5376:	0000                	unimp
    5378:	0000                	unimp
    537a:	0000                	unimp
    537c:	0000                	unimp
    537e:	0000                	unimp
    5380:	0000                	unimp
    5382:	0000                	unimp
    5384:	0000                	unimp
    5386:	0000                	unimp
    5388:	0000                	unimp
    538a:	0000                	unimp
    538c:	0000                	unimp
    538e:	0000                	unimp
    5390:	0000                	unimp
    5392:	0000                	unimp
    5394:	0000                	unimp
    5396:	0000                	unimp
    5398:	0000                	unimp
    539a:	0000                	unimp
    539c:	0000                	unimp
    539e:	0000                	unimp
    53a0:	0000                	unimp
    53a2:	0000                	unimp
    53a4:	0000                	unimp
    53a6:	0000                	unimp
    53a8:	0000                	unimp
    53aa:	0000                	unimp
    53ac:	0000                	unimp
    53ae:	0000                	unimp
    53b0:	0000                	unimp
    53b2:	0000                	unimp
    53b4:	0000                	unimp
    53b6:	0000                	unimp
    53b8:	0000                	unimp
    53ba:	0000                	unimp
    53bc:	0000                	unimp
    53be:	0000                	unimp
    53c0:	0000                	unimp
    53c2:	0000                	unimp
    53c4:	0000                	unimp
    53c6:	0000                	unimp
    53c8:	0000                	unimp
    53ca:	0000                	unimp
    53cc:	0000                	unimp
    53ce:	0000                	unimp
    53d0:	0000                	unimp
    53d2:	0000                	unimp
    53d4:	0000                	unimp
    53d6:	0000                	unimp
    53d8:	0000                	unimp
    53da:	0000                	unimp
    53dc:	0000                	unimp
    53de:	0000                	unimp
    53e0:	0000                	unimp
    53e2:	0000                	unimp
    53e4:	0000                	unimp
    53e6:	0000                	unimp
    53e8:	0000                	unimp
    53ea:	0000                	unimp
    53ec:	0000                	unimp
    53ee:	0000                	unimp
    53f0:	0000                	unimp
    53f2:	0000                	unimp
    53f4:	0000                	unimp
    53f6:	0000                	unimp
    53f8:	0000                	unimp
    53fa:	0000                	unimp
    53fc:	0000                	unimp
    53fe:	0000                	unimp
    5400:	0000                	unimp
    5402:	0000                	unimp
    5404:	0000                	unimp
    5406:	0000                	unimp
    5408:	0000                	unimp
    540a:	0000                	unimp
    540c:	0000                	unimp
    540e:	0000                	unimp
    5410:	0000                	unimp
    5412:	0000                	unimp
    5414:	0000                	unimp
    5416:	0000                	unimp
    5418:	0000                	unimp
    541a:	0000                	unimp
    541c:	0000                	unimp
    541e:	0000                	unimp
    5420:	0000                	unimp
    5422:	0000                	unimp
    5424:	0000                	unimp
    5426:	0000                	unimp
    5428:	0000                	unimp
    542a:	0000                	unimp
    542c:	0000                	unimp
    542e:	0000                	unimp
    5430:	0000                	unimp
    5432:	0000                	unimp
    5434:	0000                	unimp
    5436:	0000                	unimp
    5438:	0000                	unimp
    543a:	0000                	unimp
    543c:	0000                	unimp
    543e:	0000                	unimp
    5440:	0000                	unimp
    5442:	0000                	unimp
    5444:	0000                	unimp
    5446:	0000                	unimp
    5448:	0000                	unimp
    544a:	0000                	unimp
    544c:	0000                	unimp
    544e:	0000                	unimp
    5450:	0000                	unimp
    5452:	0000                	unimp
    5454:	0000                	unimp
    5456:	0000                	unimp
    5458:	0000                	unimp
    545a:	0000                	unimp
    545c:	0000                	unimp
    545e:	0000                	unimp
    5460:	0000                	unimp
    5462:	0000                	unimp
    5464:	0000                	unimp
    5466:	0000                	unimp
    5468:	0000                	unimp
    546a:	0000                	unimp
    546c:	0000                	unimp
    546e:	0000                	unimp
    5470:	0000                	unimp
    5472:	0000                	unimp
    5474:	0000                	unimp
    5476:	0000                	unimp
    5478:	0000                	unimp
    547a:	0000                	unimp
    547c:	0000                	unimp
    547e:	0000                	unimp
    5480:	0000                	unimp
    5482:	0000                	unimp
    5484:	0000                	unimp
    5486:	0000                	unimp
    5488:	0000                	unimp
    548a:	0000                	unimp
    548c:	0000                	unimp
    548e:	0000                	unimp
    5490:	0000                	unimp
    5492:	0000                	unimp
    5494:	0000                	unimp
    5496:	0000                	unimp
    5498:	0000                	unimp
    549a:	0000                	unimp
    549c:	0000                	unimp
    549e:	0000                	unimp
    54a0:	0000                	unimp
    54a2:	0000                	unimp
    54a4:	0000                	unimp
    54a6:	0000                	unimp
    54a8:	0000                	unimp
    54aa:	0000                	unimp
    54ac:	0000                	unimp
    54ae:	0000                	unimp
    54b0:	0000                	unimp
    54b2:	0000                	unimp
    54b4:	0000                	unimp
    54b6:	0000                	unimp
    54b8:	0000                	unimp
    54ba:	0000                	unimp
    54bc:	0000                	unimp
    54be:	0000                	unimp
    54c0:	0000                	unimp
    54c2:	0000                	unimp
    54c4:	0000                	unimp
    54c6:	0000                	unimp
    54c8:	0000                	unimp
    54ca:	0000                	unimp
    54cc:	0000                	unimp
    54ce:	0000                	unimp
    54d0:	0000                	unimp
    54d2:	0000                	unimp
    54d4:	0000                	unimp
    54d6:	0000                	unimp
    54d8:	0000                	unimp
    54da:	0000                	unimp
    54dc:	0000                	unimp
    54de:	0000                	unimp
    54e0:	0000                	unimp
    54e2:	0000                	unimp
    54e4:	0000                	unimp
    54e6:	0000                	unimp
    54e8:	0000                	unimp
    54ea:	0000                	unimp
    54ec:	0000                	unimp
    54ee:	0000                	unimp
    54f0:	0000                	unimp
    54f2:	0000                	unimp
    54f4:	0000                	unimp
    54f6:	0000                	unimp
    54f8:	0000                	unimp
    54fa:	0000                	unimp
    54fc:	0000                	unimp
    54fe:	0000                	unimp
    5500:	0000                	unimp
    5502:	0000                	unimp
    5504:	0000                	unimp
    5506:	0000                	unimp
    5508:	0000                	unimp
    550a:	0000                	unimp
    550c:	0000                	unimp
    550e:	0000                	unimp
    5510:	0000                	unimp
    5512:	0000                	unimp
    5514:	0000                	unimp
    5516:	0000                	unimp
    5518:	0000                	unimp
    551a:	0000                	unimp
    551c:	0000                	unimp
    551e:	0000                	unimp
    5520:	0000                	unimp
    5522:	0000                	unimp
    5524:	0000                	unimp
    5526:	0000                	unimp
    5528:	0000                	unimp
    552a:	0000                	unimp
    552c:	0000                	unimp
    552e:	0000                	unimp
    5530:	0000                	unimp
    5532:	0000                	unimp
    5534:	0000                	unimp
    5536:	0000                	unimp
    5538:	0000                	unimp
    553a:	0000                	unimp
    553c:	0000                	unimp
    553e:	0000                	unimp
    5540:	0000                	unimp
    5542:	0000                	unimp
    5544:	0000                	unimp
    5546:	0000                	unimp
    5548:	0000                	unimp
    554a:	0000                	unimp
    554c:	0000                	unimp
    554e:	0000                	unimp
    5550:	0000                	unimp
    5552:	0000                	unimp
    5554:	0000                	unimp
    5556:	0000                	unimp
    5558:	0000                	unimp
    555a:	0000                	unimp
    555c:	0000                	unimp
    555e:	0000                	unimp
    5560:	0000                	unimp
    5562:	0000                	unimp
    5564:	0000                	unimp
    5566:	0000                	unimp
    5568:	0000                	unimp
    556a:	0000                	unimp
    556c:	0000                	unimp
    556e:	0000                	unimp
    5570:	0000                	unimp
    5572:	0000                	unimp
    5574:	0000                	unimp
    5576:	0000                	unimp
    5578:	0000                	unimp
    557a:	0000                	unimp
    557c:	0000                	unimp
    557e:	0000                	unimp
    5580:	0000                	unimp
    5582:	0000                	unimp
    5584:	0000                	unimp
    5586:	0000                	unimp
    5588:	0000                	unimp
    558a:	0000                	unimp
    558c:	0000                	unimp
    558e:	0000                	unimp
    5590:	0000                	unimp
    5592:	0000                	unimp
    5594:	0000                	unimp
    5596:	0000                	unimp
    5598:	0000                	unimp
    559a:	0000                	unimp
    559c:	0000                	unimp
    559e:	0000                	unimp
    55a0:	0000                	unimp
    55a2:	0000                	unimp
    55a4:	0000                	unimp
    55a6:	0000                	unimp
    55a8:	0000                	unimp
    55aa:	0000                	unimp
    55ac:	0000                	unimp
    55ae:	0000                	unimp
    55b0:	0000                	unimp
    55b2:	0000                	unimp
    55b4:	0000                	unimp
    55b6:	0000                	unimp
    55b8:	0000                	unimp
    55ba:	0000                	unimp
    55bc:	0000                	unimp
    55be:	0000                	unimp
    55c0:	0000                	unimp
    55c2:	0000                	unimp
    55c4:	0000                	unimp
    55c6:	0000                	unimp
    55c8:	0000                	unimp
    55ca:	0000                	unimp
    55cc:	0000                	unimp
    55ce:	0000                	unimp
    55d0:	0000                	unimp
    55d2:	0000                	unimp
    55d4:	0000                	unimp
    55d6:	0000                	unimp
    55d8:	0000                	unimp
    55da:	0000                	unimp
    55dc:	0000                	unimp
    55de:	0000                	unimp
    55e0:	0000                	unimp
    55e2:	0000                	unimp
    55e4:	0000                	unimp
    55e6:	0000                	unimp
    55e8:	0000                	unimp
    55ea:	0000                	unimp
    55ec:	0000                	unimp
    55ee:	0000                	unimp
    55f0:	0000                	unimp
    55f2:	0000                	unimp
    55f4:	0000                	unimp
    55f6:	0000                	unimp
    55f8:	0000                	unimp
    55fa:	0000                	unimp
    55fc:	0000                	unimp
    55fe:	0000                	unimp
    5600:	0000                	unimp
    5602:	0000                	unimp
    5604:	0000                	unimp
    5606:	0000                	unimp
    5608:	0000                	unimp
    560a:	0000                	unimp
    560c:	0000                	unimp
    560e:	0000                	unimp
    5610:	0000                	unimp
    5612:	0000                	unimp
    5614:	0000                	unimp
    5616:	0000                	unimp
    5618:	0000                	unimp
    561a:	0000                	unimp
    561c:	0000                	unimp
    561e:	0000                	unimp
    5620:	0000                	unimp
    5622:	0000                	unimp
    5624:	0000                	unimp
    5626:	0000                	unimp
    5628:	0000                	unimp
    562a:	0000                	unimp
    562c:	0000                	unimp
    562e:	0000                	unimp
    5630:	0000                	unimp
    5632:	0000                	unimp
    5634:	0000                	unimp
    5636:	0000                	unimp
    5638:	0000                	unimp
    563a:	0000                	unimp
    563c:	0000                	unimp
    563e:	0000                	unimp
    5640:	0000                	unimp
    5642:	0000                	unimp
    5644:	0000                	unimp
    5646:	0000                	unimp
    5648:	0000                	unimp
    564a:	0000                	unimp
    564c:	0000                	unimp
    564e:	0000                	unimp
    5650:	0000                	unimp
    5652:	0000                	unimp
    5654:	0000                	unimp
    5656:	0000                	unimp
    5658:	0000                	unimp
    565a:	0000                	unimp
    565c:	0000                	unimp
    565e:	0000                	unimp
    5660:	0000                	unimp
    5662:	0000                	unimp
    5664:	0000                	unimp
    5666:	0000                	unimp
    5668:	0000                	unimp
    566a:	0000                	unimp
    566c:	0000                	unimp
    566e:	0000                	unimp
    5670:	0000                	unimp
    5672:	0000                	unimp
    5674:	0000                	unimp
    5676:	0000                	unimp
    5678:	0000                	unimp
    567a:	0000                	unimp
    567c:	0000                	unimp
    567e:	0000                	unimp
    5680:	0000                	unimp
    5682:	0000                	unimp
    5684:	0000                	unimp
    5686:	0000                	unimp
    5688:	0000                	unimp
    568a:	0000                	unimp
    568c:	0000                	unimp
    568e:	0000                	unimp
    5690:	0000                	unimp
    5692:	0000                	unimp
    5694:	0000                	unimp
    5696:	0000                	unimp
    5698:	0000                	unimp
    569a:	0000                	unimp
    569c:	0000                	unimp
    569e:	0000                	unimp
    56a0:	0000                	unimp
    56a2:	0000                	unimp
    56a4:	0000                	unimp
    56a6:	0000                	unimp
    56a8:	0000                	unimp
    56aa:	0000                	unimp
    56ac:	0000                	unimp
    56ae:	0000                	unimp
    56b0:	0000                	unimp
    56b2:	0000                	unimp
    56b4:	0000                	unimp
    56b6:	0000                	unimp
    56b8:	0000                	unimp
    56ba:	0000                	unimp
    56bc:	0000                	unimp
    56be:	0000                	unimp
    56c0:	0000                	unimp
    56c2:	0000                	unimp
    56c4:	0000                	unimp
    56c6:	0000                	unimp
    56c8:	0000                	unimp
    56ca:	0000                	unimp
    56cc:	0000                	unimp
    56ce:	0000                	unimp
    56d0:	0000                	unimp
    56d2:	0000                	unimp
    56d4:	0000                	unimp
    56d6:	0000                	unimp
    56d8:	0000                	unimp
    56da:	0000                	unimp
    56dc:	0000                	unimp
    56de:	0000                	unimp
    56e0:	0000                	unimp
    56e2:	0000                	unimp
    56e4:	0000                	unimp
    56e6:	0000                	unimp
    56e8:	0000                	unimp
    56ea:	0000                	unimp
    56ec:	0000                	unimp
    56ee:	0000                	unimp
    56f0:	0000                	unimp
    56f2:	0000                	unimp
    56f4:	0000                	unimp
    56f6:	0000                	unimp
    56f8:	0000                	unimp
    56fa:	0000                	unimp
    56fc:	0000                	unimp
    56fe:	0000                	unimp
    5700:	0000                	unimp
    5702:	0000                	unimp
    5704:	0000                	unimp
    5706:	0000                	unimp
    5708:	0000                	unimp
    570a:	0000                	unimp
    570c:	0000                	unimp
    570e:	0000                	unimp
    5710:	0000                	unimp
    5712:	0000                	unimp
    5714:	0000                	unimp
    5716:	0000                	unimp
    5718:	0000                	unimp
    571a:	0000                	unimp
    571c:	0000                	unimp
    571e:	0000                	unimp
    5720:	0000                	unimp
    5722:	0000                	unimp
    5724:	0000                	unimp
    5726:	0000                	unimp
    5728:	0000                	unimp
    572a:	0000                	unimp
    572c:	0000                	unimp
    572e:	0000                	unimp
    5730:	0000                	unimp
    5732:	0000                	unimp
    5734:	0000                	unimp
    5736:	0000                	unimp
    5738:	0000                	unimp
    573a:	0000                	unimp
    573c:	0000                	unimp
    573e:	0000                	unimp
    5740:	0000                	unimp
    5742:	0000                	unimp
    5744:	0000                	unimp
    5746:	0000                	unimp
    5748:	0000                	unimp
    574a:	0000                	unimp
    574c:	0000                	unimp
    574e:	0000                	unimp
    5750:	0000                	unimp
    5752:	0000                	unimp
    5754:	0000                	unimp
    5756:	0000                	unimp
    5758:	0000                	unimp
    575a:	0000                	unimp
    575c:	0000                	unimp
    575e:	0000                	unimp
    5760:	0000                	unimp
    5762:	0000                	unimp
    5764:	0000                	unimp
    5766:	0000                	unimp
    5768:	0000                	unimp
    576a:	0000                	unimp
    576c:	0000                	unimp
    576e:	0000                	unimp
    5770:	0000                	unimp
    5772:	0000                	unimp
    5774:	0000                	unimp
    5776:	0000                	unimp
    5778:	0000                	unimp
    577a:	0000                	unimp
    577c:	0000                	unimp
    577e:	0000                	unimp
    5780:	0000                	unimp
    5782:	0000                	unimp
    5784:	0000                	unimp
    5786:	0000                	unimp
    5788:	0000                	unimp
    578a:	0000                	unimp
    578c:	0000                	unimp
    578e:	0000                	unimp
    5790:	0000                	unimp
    5792:	0000                	unimp
    5794:	0000                	unimp
    5796:	0000                	unimp
    5798:	0000                	unimp
    579a:	0000                	unimp
    579c:	0000                	unimp
    579e:	0000                	unimp
    57a0:	0000                	unimp
    57a2:	0000                	unimp
    57a4:	0000                	unimp
    57a6:	0000                	unimp
    57a8:	0000                	unimp
    57aa:	0000                	unimp
    57ac:	0000                	unimp
    57ae:	0000                	unimp
    57b0:	0000                	unimp
    57b2:	0000                	unimp
    57b4:	0000                	unimp
    57b6:	0000                	unimp
    57b8:	0000                	unimp
    57ba:	0000                	unimp
    57bc:	0000                	unimp
    57be:	0000                	unimp
    57c0:	0000                	unimp
    57c2:	0000                	unimp
    57c4:	0000                	unimp
    57c6:	0000                	unimp
    57c8:	0000                	unimp
    57ca:	0000                	unimp
    57cc:	0000                	unimp
    57ce:	0000                	unimp
    57d0:	0000                	unimp
    57d2:	0000                	unimp
    57d4:	0000                	unimp
    57d6:	0000                	unimp
    57d8:	0000                	unimp
    57da:	0000                	unimp
    57dc:	0000                	unimp
    57de:	0000                	unimp
    57e0:	0000                	unimp
    57e2:	0000                	unimp
    57e4:	0000                	unimp
    57e6:	0000                	unimp
    57e8:	0000                	unimp
    57ea:	0000                	unimp
    57ec:	0000                	unimp
    57ee:	0000                	unimp
    57f0:	0000                	unimp
    57f2:	0000                	unimp
    57f4:	0000                	unimp
    57f6:	0000                	unimp
    57f8:	0000                	unimp
    57fa:	0000                	unimp
    57fc:	0000                	unimp
    57fe:	0000                	unimp
    5800:	0000                	unimp
    5802:	0000                	unimp
    5804:	0000                	unimp
    5806:	0000                	unimp
    5808:	0000                	unimp
    580a:	0000                	unimp
    580c:	0000                	unimp
    580e:	0000                	unimp
    5810:	0000                	unimp
    5812:	0000                	unimp
    5814:	0000                	unimp
    5816:	0000                	unimp
    5818:	0000                	unimp
    581a:	0000                	unimp
    581c:	0000                	unimp
    581e:	0000                	unimp
    5820:	0000                	unimp
    5822:	0000                	unimp
    5824:	0000                	unimp
    5826:	0000                	unimp
    5828:	0000                	unimp
    582a:	0000                	unimp
    582c:	0000                	unimp
    582e:	0000                	unimp
    5830:	0000                	unimp
    5832:	0000                	unimp
    5834:	0000                	unimp
    5836:	0000                	unimp
    5838:	0000                	unimp
    583a:	0000                	unimp
    583c:	0000                	unimp
    583e:	0000                	unimp
    5840:	0000                	unimp
    5842:	0000                	unimp
    5844:	0000                	unimp
    5846:	0000                	unimp
    5848:	0000                	unimp
    584a:	0000                	unimp
    584c:	0000                	unimp
    584e:	0000                	unimp
    5850:	0000                	unimp
    5852:	0000                	unimp
    5854:	0000                	unimp
    5856:	0000                	unimp
    5858:	0000                	unimp
    585a:	0000                	unimp
    585c:	0000                	unimp
    585e:	0000                	unimp
    5860:	0000                	unimp
    5862:	0000                	unimp
    5864:	0000                	unimp
    5866:	0000                	unimp
    5868:	0000                	unimp
    586a:	0000                	unimp
    586c:	0000                	unimp
    586e:	0000                	unimp
    5870:	0000                	unimp
    5872:	0000                	unimp
    5874:	0000                	unimp
    5876:	0000                	unimp
    5878:	0000                	unimp
    587a:	0000                	unimp
    587c:	0000                	unimp
    587e:	0000                	unimp
    5880:	0000                	unimp
    5882:	0000                	unimp
    5884:	0000                	unimp
    5886:	0000                	unimp
    5888:	0000                	unimp
    588a:	0000                	unimp
    588c:	0000                	unimp
    588e:	0000                	unimp
    5890:	0000                	unimp
    5892:	0000                	unimp
    5894:	0000                	unimp
    5896:	0000                	unimp
    5898:	0000                	unimp
    589a:	0000                	unimp
    589c:	0000                	unimp
    589e:	0000                	unimp
    58a0:	0000                	unimp
    58a2:	0000                	unimp
    58a4:	0000                	unimp
    58a6:	0000                	unimp
    58a8:	0000                	unimp
    58aa:	0000                	unimp
    58ac:	0000                	unimp
    58ae:	0000                	unimp
    58b0:	0000                	unimp
    58b2:	0000                	unimp
    58b4:	0000                	unimp
    58b6:	0000                	unimp
    58b8:	0000                	unimp
    58ba:	0000                	unimp
    58bc:	0000                	unimp
    58be:	0000                	unimp
    58c0:	0000                	unimp
    58c2:	0000                	unimp
    58c4:	0000                	unimp
    58c6:	0000                	unimp
    58c8:	0000                	unimp
    58ca:	0000                	unimp
    58cc:	0000                	unimp
    58ce:	0000                	unimp
    58d0:	0000                	unimp
    58d2:	0000                	unimp
    58d4:	0000                	unimp
    58d6:	0000                	unimp
    58d8:	0000                	unimp
    58da:	0000                	unimp
    58dc:	0000                	unimp
    58de:	0000                	unimp
    58e0:	0000                	unimp
    58e2:	0000                	unimp
    58e4:	0000                	unimp
    58e6:	0000                	unimp
    58e8:	0000                	unimp
    58ea:	0000                	unimp
    58ec:	0000                	unimp
    58ee:	0000                	unimp
    58f0:	0000                	unimp
    58f2:	0000                	unimp
    58f4:	0000                	unimp
    58f6:	0000                	unimp
    58f8:	0000                	unimp
    58fa:	0000                	unimp
    58fc:	0000                	unimp
    58fe:	0000                	unimp
    5900:	0000                	unimp
    5902:	0000                	unimp
    5904:	0000                	unimp
    5906:	0000                	unimp
    5908:	0000                	unimp
    590a:	0000                	unimp
    590c:	0000                	unimp
    590e:	0000                	unimp
    5910:	0000                	unimp
    5912:	0000                	unimp
    5914:	0000                	unimp
    5916:	0000                	unimp
    5918:	0000                	unimp
    591a:	0000                	unimp
    591c:	0000                	unimp
    591e:	0000                	unimp
    5920:	0000                	unimp
    5922:	0000                	unimp
    5924:	0000                	unimp
    5926:	0000                	unimp
    5928:	0000                	unimp
    592a:	0000                	unimp
    592c:	0000                	unimp
    592e:	0000                	unimp
    5930:	0000                	unimp
    5932:	0000                	unimp
    5934:	0000                	unimp
    5936:	0000                	unimp
    5938:	0000                	unimp
    593a:	0000                	unimp
    593c:	0000                	unimp
    593e:	0000                	unimp
    5940:	0000                	unimp
    5942:	0000                	unimp
    5944:	0000                	unimp
    5946:	0000                	unimp
    5948:	0000                	unimp
    594a:	0000                	unimp
    594c:	0000                	unimp
    594e:	0000                	unimp
    5950:	0000                	unimp
    5952:	0000                	unimp
    5954:	0000                	unimp
    5956:	0000                	unimp
    5958:	0000                	unimp
    595a:	0000                	unimp
    595c:	0000                	unimp
    595e:	0000                	unimp
    5960:	0000                	unimp
    5962:	0000                	unimp
    5964:	0000                	unimp
    5966:	0000                	unimp
    5968:	0000                	unimp
    596a:	0000                	unimp
    596c:	0000                	unimp
    596e:	0000                	unimp
    5970:	0000                	unimp
    5972:	0000                	unimp
    5974:	0000                	unimp
    5976:	0000                	unimp
    5978:	0000                	unimp
    597a:	0000                	unimp
    597c:	0000                	unimp
    597e:	0000                	unimp
    5980:	0000                	unimp
    5982:	0000                	unimp
    5984:	0000                	unimp
    5986:	0000                	unimp
    5988:	0000                	unimp
    598a:	0000                	unimp
    598c:	0000                	unimp
    598e:	0000                	unimp
    5990:	0000                	unimp
    5992:	0000                	unimp
    5994:	0000                	unimp
    5996:	0000                	unimp
    5998:	0000                	unimp
    599a:	0000                	unimp
    599c:	0000                	unimp
    599e:	0000                	unimp
    59a0:	0000                	unimp
    59a2:	0000                	unimp
    59a4:	0000                	unimp
    59a6:	0000                	unimp
    59a8:	0000                	unimp
    59aa:	0000                	unimp
    59ac:	0000                	unimp
    59ae:	0000                	unimp
    59b0:	0000                	unimp
    59b2:	0000                	unimp
    59b4:	0000                	unimp
    59b6:	0000                	unimp
    59b8:	0000                	unimp
    59ba:	0000                	unimp
    59bc:	0000                	unimp
    59be:	0000                	unimp
    59c0:	0000                	unimp
    59c2:	0000                	unimp
    59c4:	0000                	unimp
    59c6:	0000                	unimp
    59c8:	0000                	unimp
    59ca:	0000                	unimp
    59cc:	0000                	unimp
    59ce:	0000                	unimp
    59d0:	0000                	unimp
    59d2:	0000                	unimp
    59d4:	0000                	unimp
    59d6:	0000                	unimp
    59d8:	0000                	unimp
    59da:	0000                	unimp
    59dc:	0000                	unimp
    59de:	0000                	unimp
    59e0:	0000                	unimp
    59e2:	0000                	unimp
    59e4:	0000                	unimp
    59e6:	0000                	unimp
    59e8:	0000                	unimp
    59ea:	0000                	unimp
    59ec:	0000                	unimp
    59ee:	0000                	unimp
    59f0:	0000                	unimp
    59f2:	0000                	unimp
    59f4:	0000                	unimp
    59f6:	0000                	unimp
    59f8:	0000                	unimp
    59fa:	0000                	unimp
    59fc:	0000                	unimp
    59fe:	0000                	unimp
    5a00:	0000                	unimp
    5a02:	0000                	unimp
    5a04:	0000                	unimp
    5a06:	0000                	unimp
    5a08:	0000                	unimp
    5a0a:	0000                	unimp
    5a0c:	0000                	unimp
    5a0e:	0000                	unimp
    5a10:	0000                	unimp
    5a12:	0000                	unimp
    5a14:	0000                	unimp
    5a16:	0000                	unimp
    5a18:	0000                	unimp
    5a1a:	0000                	unimp
    5a1c:	0000                	unimp
    5a1e:	0000                	unimp
    5a20:	0000                	unimp
    5a22:	0000                	unimp
    5a24:	0000                	unimp
    5a26:	0000                	unimp
    5a28:	0000                	unimp
    5a2a:	0000                	unimp
    5a2c:	0000                	unimp
    5a2e:	0000                	unimp
    5a30:	0000                	unimp
    5a32:	0000                	unimp
    5a34:	0000                	unimp
    5a36:	0000                	unimp
    5a38:	0000                	unimp
    5a3a:	0000                	unimp
    5a3c:	0000                	unimp
    5a3e:	0000                	unimp
    5a40:	0000                	unimp
    5a42:	0000                	unimp
    5a44:	0000                	unimp
    5a46:	0000                	unimp
    5a48:	0000                	unimp
    5a4a:	0000                	unimp
    5a4c:	0000                	unimp
    5a4e:	0000                	unimp
    5a50:	0000                	unimp
    5a52:	0000                	unimp
    5a54:	0000                	unimp
    5a56:	0000                	unimp
    5a58:	0000                	unimp
    5a5a:	0000                	unimp
    5a5c:	0000                	unimp
    5a5e:	0000                	unimp
    5a60:	0000                	unimp
    5a62:	0000                	unimp
    5a64:	0000                	unimp
    5a66:	0000                	unimp
    5a68:	0000                	unimp
    5a6a:	0000                	unimp
    5a6c:	0000                	unimp
    5a6e:	0000                	unimp
    5a70:	0000                	unimp
    5a72:	0000                	unimp
    5a74:	0000                	unimp
    5a76:	0000                	unimp
    5a78:	0000                	unimp
    5a7a:	0000                	unimp
    5a7c:	0000                	unimp
    5a7e:	0000                	unimp
    5a80:	0000                	unimp
    5a82:	0000                	unimp
    5a84:	0000                	unimp
    5a86:	0000                	unimp
    5a88:	0000                	unimp
    5a8a:	0000                	unimp
    5a8c:	0000                	unimp
    5a8e:	0000                	unimp
    5a90:	0000                	unimp
    5a92:	0000                	unimp
    5a94:	0000                	unimp
    5a96:	0000                	unimp
    5a98:	0000                	unimp
    5a9a:	0000                	unimp
    5a9c:	0000                	unimp
    5a9e:	0000                	unimp
    5aa0:	0000                	unimp
    5aa2:	0000                	unimp
    5aa4:	0000                	unimp
    5aa6:	0000                	unimp
    5aa8:	0000                	unimp
    5aaa:	0000                	unimp
    5aac:	0000                	unimp
    5aae:	0000                	unimp
    5ab0:	0000                	unimp
    5ab2:	0000                	unimp
    5ab4:	0000                	unimp
    5ab6:	0000                	unimp
    5ab8:	0000                	unimp
    5aba:	0000                	unimp
    5abc:	0000                	unimp
    5abe:	0000                	unimp
    5ac0:	0000                	unimp
    5ac2:	0000                	unimp
    5ac4:	0000                	unimp
    5ac6:	0000                	unimp
    5ac8:	0000                	unimp
    5aca:	0000                	unimp
    5acc:	0000                	unimp
    5ace:	0000                	unimp
    5ad0:	0000                	unimp
    5ad2:	0000                	unimp
    5ad4:	0000                	unimp
    5ad6:	0000                	unimp
    5ad8:	0000                	unimp
    5ada:	0000                	unimp
    5adc:	0000                	unimp
    5ade:	0000                	unimp
    5ae0:	0000                	unimp
    5ae2:	0000                	unimp
    5ae4:	0000                	unimp
    5ae6:	0000                	unimp
    5ae8:	0000                	unimp
    5aea:	0000                	unimp
    5aec:	0000                	unimp
    5aee:	0000                	unimp
    5af0:	0000                	unimp
    5af2:	0000                	unimp
    5af4:	0000                	unimp
    5af6:	0000                	unimp
    5af8:	0000                	unimp
    5afa:	0000                	unimp
    5afc:	0000                	unimp
    5afe:	0000                	unimp
    5b00:	0000                	unimp
    5b02:	0000                	unimp
    5b04:	0000                	unimp
    5b06:	0000                	unimp
    5b08:	0000                	unimp
    5b0a:	0000                	unimp
    5b0c:	0000                	unimp
    5b0e:	0000                	unimp
    5b10:	0000                	unimp
    5b12:	0000                	unimp
    5b14:	0000                	unimp
    5b16:	0000                	unimp
    5b18:	0000                	unimp
    5b1a:	0000                	unimp
    5b1c:	0000                	unimp
    5b1e:	0000                	unimp
    5b20:	0000                	unimp
    5b22:	0000                	unimp
    5b24:	0000                	unimp
    5b26:	0000                	unimp
    5b28:	0000                	unimp
    5b2a:	0000                	unimp
    5b2c:	0000                	unimp
    5b2e:	0000                	unimp
    5b30:	0000                	unimp
    5b32:	0000                	unimp
    5b34:	0000                	unimp
    5b36:	0000                	unimp
    5b38:	0000                	unimp
    5b3a:	0000                	unimp
    5b3c:	0000                	unimp
    5b3e:	0000                	unimp
    5b40:	0000                	unimp
    5b42:	0000                	unimp
    5b44:	0000                	unimp
    5b46:	0000                	unimp
    5b48:	0000                	unimp
    5b4a:	0000                	unimp
    5b4c:	0000                	unimp
    5b4e:	0000                	unimp
    5b50:	0000                	unimp
    5b52:	0000                	unimp
    5b54:	0000                	unimp
    5b56:	0000                	unimp
    5b58:	0000                	unimp
    5b5a:	0000                	unimp
    5b5c:	0000                	unimp
    5b5e:	0000                	unimp
    5b60:	0000                	unimp
    5b62:	0000                	unimp
    5b64:	0000                	unimp
    5b66:	0000                	unimp
    5b68:	0000                	unimp
    5b6a:	0000                	unimp
    5b6c:	0000                	unimp
    5b6e:	0000                	unimp
    5b70:	0000                	unimp
    5b72:	0000                	unimp
    5b74:	0000                	unimp
    5b76:	0000                	unimp
    5b78:	0000                	unimp
    5b7a:	0000                	unimp
    5b7c:	0000                	unimp
    5b7e:	0000                	unimp
    5b80:	0000                	unimp
    5b82:	0000                	unimp
    5b84:	0000                	unimp
    5b86:	0000                	unimp
    5b88:	0000                	unimp
    5b8a:	0000                	unimp
    5b8c:	0000                	unimp
    5b8e:	0000                	unimp
    5b90:	0000                	unimp
    5b92:	0000                	unimp
    5b94:	0000                	unimp
    5b96:	0000                	unimp
    5b98:	0000                	unimp
    5b9a:	0000                	unimp
    5b9c:	0000                	unimp
    5b9e:	0000                	unimp
    5ba0:	0000                	unimp
    5ba2:	0000                	unimp
    5ba4:	0000                	unimp
    5ba6:	0000                	unimp
    5ba8:	0000                	unimp
    5baa:	0000                	unimp
    5bac:	0000                	unimp
    5bae:	0000                	unimp
    5bb0:	0000                	unimp
    5bb2:	0000                	unimp
    5bb4:	0000                	unimp
    5bb6:	0000                	unimp
    5bb8:	0000                	unimp
    5bba:	0000                	unimp
    5bbc:	0000                	unimp
    5bbe:	0000                	unimp
    5bc0:	0000                	unimp
    5bc2:	0000                	unimp
    5bc4:	0000                	unimp
    5bc6:	0000                	unimp
    5bc8:	0000                	unimp
    5bca:	0000                	unimp
    5bcc:	0000                	unimp
    5bce:	0000                	unimp
    5bd0:	0000                	unimp
    5bd2:	0000                	unimp
    5bd4:	0000                	unimp
    5bd6:	0000                	unimp
    5bd8:	0000                	unimp
    5bda:	0000                	unimp
    5bdc:	0000                	unimp
    5bde:	0000                	unimp
    5be0:	0000                	unimp
    5be2:	0000                	unimp
    5be4:	0000                	unimp
    5be6:	0000                	unimp
    5be8:	0000                	unimp
    5bea:	0000                	unimp
    5bec:	0000                	unimp
    5bee:	0000                	unimp
    5bf0:	0000                	unimp
    5bf2:	0000                	unimp
    5bf4:	0000                	unimp
    5bf6:	0000                	unimp
    5bf8:	0000                	unimp
    5bfa:	0000                	unimp
    5bfc:	0000                	unimp
    5bfe:	0000                	unimp
    5c00:	0000                	unimp
    5c02:	0000                	unimp
    5c04:	0000                	unimp
    5c06:	0000                	unimp
    5c08:	0000                	unimp
    5c0a:	0000                	unimp
    5c0c:	0000                	unimp
    5c0e:	0000                	unimp
    5c10:	0000                	unimp
    5c12:	0000                	unimp
    5c14:	0000                	unimp
    5c16:	0000                	unimp
    5c18:	0000                	unimp
    5c1a:	0000                	unimp
    5c1c:	0000                	unimp
    5c1e:	0000                	unimp
    5c20:	0000                	unimp
    5c22:	0000                	unimp
    5c24:	0000                	unimp
    5c26:	0000                	unimp
    5c28:	0000                	unimp
    5c2a:	0000                	unimp
    5c2c:	0000                	unimp
    5c2e:	0000                	unimp
    5c30:	0000                	unimp
    5c32:	0000                	unimp
    5c34:	0000                	unimp
    5c36:	0000                	unimp
    5c38:	0000                	unimp
    5c3a:	0000                	unimp
    5c3c:	0000                	unimp
    5c3e:	0000                	unimp
    5c40:	0000                	unimp
    5c42:	0000                	unimp
    5c44:	0000                	unimp
    5c46:	0000                	unimp
    5c48:	0000                	unimp
    5c4a:	0000                	unimp
    5c4c:	0000                	unimp
    5c4e:	0000                	unimp
    5c50:	0000                	unimp
    5c52:	0000                	unimp
    5c54:	0000                	unimp
    5c56:	0000                	unimp
    5c58:	0000                	unimp
    5c5a:	0000                	unimp
    5c5c:	0000                	unimp
    5c5e:	0000                	unimp
    5c60:	0000                	unimp
    5c62:	0000                	unimp
    5c64:	0000                	unimp
    5c66:	0000                	unimp
    5c68:	0000                	unimp
    5c6a:	0000                	unimp
    5c6c:	0000                	unimp
    5c6e:	0000                	unimp
    5c70:	0000                	unimp
    5c72:	0000                	unimp
    5c74:	0000                	unimp
    5c76:	0000                	unimp
    5c78:	0000                	unimp
    5c7a:	0000                	unimp
    5c7c:	0000                	unimp
    5c7e:	0000                	unimp
    5c80:	0000                	unimp
    5c82:	0000                	unimp
    5c84:	0000                	unimp
    5c86:	0000                	unimp
    5c88:	0000                	unimp
    5c8a:	0000                	unimp
    5c8c:	0000                	unimp
    5c8e:	0000                	unimp
    5c90:	0000                	unimp
    5c92:	0000                	unimp
    5c94:	0000                	unimp
    5c96:	0000                	unimp
    5c98:	0000                	unimp
    5c9a:	0000                	unimp
    5c9c:	0000                	unimp
    5c9e:	0000                	unimp
    5ca0:	0000                	unimp
    5ca2:	0000                	unimp
    5ca4:	0000                	unimp
    5ca6:	0000                	unimp
    5ca8:	0000                	unimp
    5caa:	0000                	unimp
    5cac:	0000                	unimp
    5cae:	0000                	unimp
    5cb0:	0000                	unimp
    5cb2:	0000                	unimp
    5cb4:	0000                	unimp
    5cb6:	0000                	unimp
    5cb8:	0000                	unimp
    5cba:	0000                	unimp
    5cbc:	0000                	unimp
    5cbe:	0000                	unimp
    5cc0:	0000                	unimp
    5cc2:	0000                	unimp
    5cc4:	0000                	unimp
    5cc6:	0000                	unimp
    5cc8:	0000                	unimp
    5cca:	0000                	unimp
    5ccc:	0000                	unimp
    5cce:	0000                	unimp
    5cd0:	0000                	unimp
    5cd2:	0000                	unimp
    5cd4:	0000                	unimp
    5cd6:	0000                	unimp
    5cd8:	0000                	unimp
    5cda:	0000                	unimp
    5cdc:	0000                	unimp
    5cde:	0000                	unimp
    5ce0:	0000                	unimp
    5ce2:	0000                	unimp
    5ce4:	0000                	unimp
    5ce6:	0000                	unimp
    5ce8:	0000                	unimp
    5cea:	0000                	unimp
    5cec:	0000                	unimp
    5cee:	0000                	unimp
    5cf0:	0000                	unimp
    5cf2:	0000                	unimp
    5cf4:	0000                	unimp
    5cf6:	0000                	unimp
    5cf8:	0000                	unimp
    5cfa:	0000                	unimp
    5cfc:	0000                	unimp
    5cfe:	0000                	unimp
    5d00:	0000                	unimp
    5d02:	0000                	unimp
    5d04:	0000                	unimp
    5d06:	0000                	unimp
    5d08:	0000                	unimp
    5d0a:	0000                	unimp
    5d0c:	0000                	unimp
    5d0e:	0000                	unimp
    5d10:	0000                	unimp
    5d12:	0000                	unimp
    5d14:	0000                	unimp
    5d16:	0000                	unimp
    5d18:	0000                	unimp
    5d1a:	0000                	unimp
    5d1c:	0000                	unimp
    5d1e:	0000                	unimp
    5d20:	0000                	unimp
    5d22:	0000                	unimp
    5d24:	0000                	unimp
    5d26:	0000                	unimp
    5d28:	0000                	unimp
    5d2a:	0000                	unimp
    5d2c:	0000                	unimp
    5d2e:	0000                	unimp
    5d30:	0000                	unimp
    5d32:	0000                	unimp
    5d34:	0000                	unimp
    5d36:	0000                	unimp
    5d38:	0000                	unimp
    5d3a:	0000                	unimp
    5d3c:	0000                	unimp
    5d3e:	0000                	unimp
    5d40:	0000                	unimp
    5d42:	0000                	unimp
    5d44:	0000                	unimp
    5d46:	0000                	unimp
    5d48:	0000                	unimp
    5d4a:	0000                	unimp
    5d4c:	0000                	unimp
    5d4e:	0000                	unimp
    5d50:	0000                	unimp
    5d52:	0000                	unimp
    5d54:	0000                	unimp
    5d56:	0000                	unimp
    5d58:	0000                	unimp
    5d5a:	0000                	unimp
    5d5c:	0000                	unimp
    5d5e:	0000                	unimp
    5d60:	0000                	unimp
    5d62:	0000                	unimp
    5d64:	0000                	unimp
    5d66:	0000                	unimp
    5d68:	0000                	unimp
    5d6a:	0000                	unimp
    5d6c:	0000                	unimp
    5d6e:	0000                	unimp
    5d70:	0000                	unimp
    5d72:	0000                	unimp
    5d74:	0000                	unimp
    5d76:	0000                	unimp
    5d78:	0000                	unimp
    5d7a:	0000                	unimp
    5d7c:	0000                	unimp
    5d7e:	0000                	unimp
    5d80:	0000                	unimp
    5d82:	0000                	unimp
    5d84:	0000                	unimp
    5d86:	0000                	unimp
    5d88:	0000                	unimp
    5d8a:	0000                	unimp
    5d8c:	0000                	unimp
    5d8e:	0000                	unimp
    5d90:	0000                	unimp
    5d92:	0000                	unimp
    5d94:	0000                	unimp
    5d96:	0000                	unimp
    5d98:	0000                	unimp
    5d9a:	0000                	unimp
    5d9c:	0000                	unimp
    5d9e:	0000                	unimp
    5da0:	0000                	unimp
    5da2:	0000                	unimp
    5da4:	0000                	unimp
    5da6:	0000                	unimp
    5da8:	0000                	unimp
    5daa:	0000                	unimp
    5dac:	0000                	unimp
    5dae:	0000                	unimp
    5db0:	0000                	unimp
    5db2:	0000                	unimp
    5db4:	0000                	unimp
    5db6:	0000                	unimp
    5db8:	0000                	unimp
    5dba:	0000                	unimp
    5dbc:	0000                	unimp
    5dbe:	0000                	unimp
    5dc0:	0000                	unimp
    5dc2:	0000                	unimp
    5dc4:	0000                	unimp
    5dc6:	0000                	unimp
    5dc8:	0000                	unimp
    5dca:	0000                	unimp
    5dcc:	0000                	unimp
    5dce:	0000                	unimp
    5dd0:	0000                	unimp
    5dd2:	0000                	unimp
    5dd4:	0000                	unimp
    5dd6:	0000                	unimp
    5dd8:	0000                	unimp
    5dda:	0000                	unimp
    5ddc:	0000                	unimp
    5dde:	0000                	unimp
    5de0:	0000                	unimp
    5de2:	0000                	unimp
    5de4:	0000                	unimp
    5de6:	0000                	unimp
    5de8:	0000                	unimp
    5dea:	0000                	unimp
    5dec:	0000                	unimp
    5dee:	0000                	unimp
    5df0:	0000                	unimp
    5df2:	0000                	unimp
    5df4:	0000                	unimp
    5df6:	0000                	unimp
    5df8:	0000                	unimp
    5dfa:	0000                	unimp
    5dfc:	0000                	unimp
    5dfe:	0000                	unimp
    5e00:	0000                	unimp
    5e02:	0000                	unimp
    5e04:	0000                	unimp
    5e06:	0000                	unimp
    5e08:	0000                	unimp
    5e0a:	0000                	unimp
    5e0c:	0000                	unimp
    5e0e:	0000                	unimp
    5e10:	0000                	unimp
    5e12:	0000                	unimp
    5e14:	0000                	unimp
    5e16:	0000                	unimp
    5e18:	0000                	unimp
    5e1a:	0000                	unimp
    5e1c:	0000                	unimp
    5e1e:	0000                	unimp
    5e20:	0000                	unimp
    5e22:	0000                	unimp
    5e24:	0000                	unimp
    5e26:	0000                	unimp
    5e28:	0000                	unimp
    5e2a:	0000                	unimp
    5e2c:	0000                	unimp
    5e2e:	0000                	unimp
    5e30:	0000                	unimp
    5e32:	0000                	unimp
    5e34:	0000                	unimp
    5e36:	0000                	unimp
    5e38:	0000                	unimp
    5e3a:	0000                	unimp
    5e3c:	0000                	unimp
    5e3e:	0000                	unimp
    5e40:	0000                	unimp
    5e42:	0000                	unimp
    5e44:	0000                	unimp
    5e46:	0000                	unimp
    5e48:	0000                	unimp
    5e4a:	0000                	unimp
    5e4c:	0000                	unimp
    5e4e:	0000                	unimp
    5e50:	0000                	unimp
    5e52:	0000                	unimp
    5e54:	0000                	unimp
    5e56:	0000                	unimp
    5e58:	0000                	unimp
    5e5a:	0000                	unimp
    5e5c:	0000                	unimp
    5e5e:	0000                	unimp
    5e60:	0000                	unimp
    5e62:	0000                	unimp
    5e64:	0000                	unimp
    5e66:	0000                	unimp
    5e68:	0000                	unimp
    5e6a:	0000                	unimp
    5e6c:	0000                	unimp
    5e6e:	0000                	unimp
    5e70:	0000                	unimp
    5e72:	0000                	unimp
    5e74:	0000                	unimp
    5e76:	0000                	unimp
    5e78:	0000                	unimp
    5e7a:	0000                	unimp
    5e7c:	0000                	unimp
    5e7e:	0000                	unimp
    5e80:	0000                	unimp
    5e82:	0000                	unimp
    5e84:	0000                	unimp
    5e86:	0000                	unimp
    5e88:	0000                	unimp
    5e8a:	0000                	unimp
    5e8c:	0000                	unimp
    5e8e:	0000                	unimp
    5e90:	0000                	unimp
    5e92:	0000                	unimp
    5e94:	0000                	unimp
    5e96:	0000                	unimp
    5e98:	0000                	unimp
    5e9a:	0000                	unimp
    5e9c:	0000                	unimp
    5e9e:	0000                	unimp
    5ea0:	0000                	unimp
    5ea2:	0000                	unimp
    5ea4:	0000                	unimp
    5ea6:	0000                	unimp
    5ea8:	0000                	unimp
    5eaa:	0000                	unimp
    5eac:	0000                	unimp
    5eae:	0000                	unimp
    5eb0:	0000                	unimp
    5eb2:	0000                	unimp
    5eb4:	0000                	unimp
    5eb6:	0000                	unimp
    5eb8:	0000                	unimp
    5eba:	0000                	unimp
    5ebc:	0000                	unimp
    5ebe:	0000                	unimp
    5ec0:	0000                	unimp
    5ec2:	0000                	unimp
    5ec4:	0000                	unimp
    5ec6:	0000                	unimp
    5ec8:	0000                	unimp
    5eca:	0000                	unimp
    5ecc:	0000                	unimp
    5ece:	0000                	unimp
    5ed0:	0000                	unimp
    5ed2:	0000                	unimp
    5ed4:	0000                	unimp
    5ed6:	0000                	unimp
    5ed8:	0000                	unimp
    5eda:	0000                	unimp
    5edc:	0000                	unimp
    5ede:	0000                	unimp
    5ee0:	0000                	unimp
    5ee2:	0000                	unimp
    5ee4:	0000                	unimp
    5ee6:	0000                	unimp
    5ee8:	0000                	unimp
    5eea:	0000                	unimp
    5eec:	0000                	unimp
    5eee:	0000                	unimp
    5ef0:	0000                	unimp
    5ef2:	0000                	unimp
    5ef4:	0000                	unimp
    5ef6:	0000                	unimp
    5ef8:	0000                	unimp
    5efa:	0000                	unimp
    5efc:	0000                	unimp
    5efe:	0000                	unimp
    5f00:	0000                	unimp
    5f02:	0000                	unimp
    5f04:	0000                	unimp
    5f06:	0000                	unimp
    5f08:	0000                	unimp
    5f0a:	0000                	unimp
    5f0c:	0000                	unimp
    5f0e:	0000                	unimp
    5f10:	0000                	unimp
    5f12:	0000                	unimp
    5f14:	0000                	unimp
    5f16:	0000                	unimp
    5f18:	0000                	unimp
    5f1a:	0000                	unimp
    5f1c:	0000                	unimp
    5f1e:	0000                	unimp
    5f20:	0000                	unimp
    5f22:	0000                	unimp
    5f24:	0000                	unimp
    5f26:	0000                	unimp
    5f28:	0000                	unimp
    5f2a:	0000                	unimp
    5f2c:	0000                	unimp
    5f2e:	0000                	unimp
    5f30:	0000                	unimp
    5f32:	0000                	unimp
    5f34:	0000                	unimp
    5f36:	0000                	unimp
    5f38:	0000                	unimp
    5f3a:	0000                	unimp
    5f3c:	0000                	unimp
    5f3e:	0000                	unimp
    5f40:	0000                	unimp
    5f42:	0000                	unimp
    5f44:	0000                	unimp
    5f46:	0000                	unimp
    5f48:	0000                	unimp
    5f4a:	0000                	unimp
    5f4c:	0000                	unimp
    5f4e:	0000                	unimp
    5f50:	0000                	unimp
    5f52:	0000                	unimp
    5f54:	0000                	unimp
    5f56:	0000                	unimp
    5f58:	0000                	unimp
    5f5a:	0000                	unimp
    5f5c:	0000                	unimp
    5f5e:	0000                	unimp
    5f60:	0000                	unimp
    5f62:	0000                	unimp
    5f64:	0000                	unimp
    5f66:	0000                	unimp
    5f68:	0000                	unimp
    5f6a:	0000                	unimp
    5f6c:	0000                	unimp
    5f6e:	0000                	unimp
    5f70:	0000                	unimp
    5f72:	0000                	unimp
    5f74:	0000                	unimp
    5f76:	0000                	unimp
    5f78:	0000                	unimp
    5f7a:	0000                	unimp
    5f7c:	0000                	unimp
    5f7e:	0000                	unimp
    5f80:	0000                	unimp
    5f82:	0000                	unimp
    5f84:	0000                	unimp
    5f86:	0000                	unimp
    5f88:	0000                	unimp
    5f8a:	0000                	unimp
    5f8c:	0000                	unimp
    5f8e:	0000                	unimp
    5f90:	0000                	unimp
    5f92:	0000                	unimp
    5f94:	0000                	unimp
    5f96:	0000                	unimp
    5f98:	0000                	unimp
    5f9a:	0000                	unimp
    5f9c:	0000                	unimp
    5f9e:	0000                	unimp
    5fa0:	0000                	unimp
    5fa2:	0000                	unimp
    5fa4:	0000                	unimp
    5fa6:	0000                	unimp
    5fa8:	0000                	unimp
    5faa:	0000                	unimp
    5fac:	0000                	unimp
    5fae:	0000                	unimp
    5fb0:	0000                	unimp
    5fb2:	0000                	unimp
    5fb4:	0000                	unimp
    5fb6:	0000                	unimp
    5fb8:	0000                	unimp
    5fba:	0000                	unimp
    5fbc:	0000                	unimp
    5fbe:	0000                	unimp
    5fc0:	0000                	unimp
    5fc2:	0000                	unimp
    5fc4:	0000                	unimp
