
rv64si-p-csr:     file format elf64-littleriscv


Disassembly of section .text.init:

0000000000000000 <_start>:
   0:	0480006f          	j	48 <reset_vector>

0000000000000004 <trap_vector>:
   4:	34202f73          	csrr	t5,mcause
   8:	00800f93          	li	t6,8
   c:	03ff0863          	beq	t5,t6,3c <write_tohost>
  10:	00900f93          	li	t6,9
  14:	03ff0463          	beq	t5,t6,3c <write_tohost>
  18:	00b00f93          	li	t6,11
  1c:	03ff0063          	beq	t5,t6,3c <write_tohost>
  20:	00000f13          	li	t5,0
  24:	000f0463          	beqz	t5,2c <trap_vector+0x28>
  28:	000f0067          	jr	t5
  2c:	34202f73          	csrr	t5,mcause
  30:	000f5463          	bgez	t5,38 <handle_exception>
  34:	0040006f          	j	38 <handle_exception>

0000000000000038 <handle_exception>:
  38:	5391e193          	ori	gp,gp,1337

000000000000003c <write_tohost>:
  3c:	00001f17          	auipc	t5,0x1
  40:	fc3f2223          	sw	gp,-60(t5) # 1000 <tohost>
  44:	ff9ff06f          	j	3c <write_tohost>

0000000000000048 <reset_vector>:
  48:	00000093          	li	ra,0
  4c:	00000113          	li	sp,0
  50:	00000193          	li	gp,0
  54:	00000213          	li	tp,0
  58:	00000293          	li	t0,0
  5c:	00000313          	li	t1,0
  60:	00000393          	li	t2,0
  64:	00000413          	li	s0,0
  68:	00000493          	li	s1,0
  6c:	00000513          	li	a0,0
  70:	00000593          	li	a1,0
  74:	00000613          	li	a2,0
  78:	00000693          	li	a3,0
  7c:	00000713          	li	a4,0
  80:	00000793          	li	a5,0
  84:	00000813          	li	a6,0
  88:	00000893          	li	a7,0
  8c:	00000913          	li	s2,0
  90:	00000993          	li	s3,0
  94:	00000a13          	li	s4,0
  98:	00000a93          	li	s5,0
  9c:	00000b13          	li	s6,0
  a0:	00000b93          	li	s7,0
  a4:	00000c13          	li	s8,0
  a8:	00000c93          	li	s9,0
  ac:	00000d13          	li	s10,0
  b0:	00000d93          	li	s11,0
  b4:	00000e13          	li	t3,0
  b8:	00000e93          	li	t4,0
  bc:	00000f13          	li	t5,0
  c0:	00000f93          	li	t6,0
  c4:	f1402573          	csrr	a0,mhartid
  c8:	00051063          	bnez	a0,c8 <reset_vector+0x80>
  cc:	00000297          	auipc	t0,0x0
  d0:	01028293          	addi	t0,t0,16 # dc <reset_vector+0x94>
  d4:	30529073          	csrw	mtvec,t0
  d8:	18005073          	csrwi	satp,0
  dc:	00000297          	auipc	t0,0x0
  e0:	02428293          	addi	t0,t0,36 # 100 <reset_vector+0xb8>
  e4:	30529073          	csrw	mtvec,t0
  e8:	0010029b          	addiw	t0,zero,1
  ec:	03529293          	slli	t0,t0,0x35
  f0:	fff28293          	addi	t0,t0,-1
  f4:	3b029073          	csrw	pmpaddr0,t0
  f8:	01f00293          	li	t0,31
  fc:	3a029073          	csrw	pmpcfg0,t0
 100:	30405073          	csrwi	mie,0
 104:	00000297          	auipc	t0,0x0
 108:	01428293          	addi	t0,t0,20 # 118 <reset_vector+0xd0>
 10c:	30529073          	csrw	mtvec,t0
 110:	30205073          	csrwi	medeleg,0
 114:	30305073          	csrwi	mideleg,0
 118:	00000193          	li	gp,0
 11c:	00000297          	auipc	t0,0x0
 120:	ee828293          	addi	t0,t0,-280 # 4 <trap_vector>
 124:	30529073          	csrw	mtvec,t0
 128:	00100513          	li	a0,1
 12c:	01f51513          	slli	a0,a0,0x1f
 130:	00055c63          	bgez	a0,148 <reset_vector+0x100>
 134:	0ff0000f          	fence
 138:	00100193          	li	gp,1
 13c:	05d00893          	li	a7,93
 140:	00000513          	li	a0,0
 144:	00000073          	ecall
 148:	00000297          	auipc	t0,0x0
 14c:	1f428293          	addi	t0,t0,500 # 33c <stvec_handler>
 150:	00028a63          	beqz	t0,164 <reset_vector+0x11c>
 154:	10529073          	csrw	stvec,t0
 158:	0000b2b7          	lui	t0,0xb
 15c:	1092829b          	addiw	t0,t0,265
 160:	30229073          	csrw	medeleg,t0
 164:	30005073          	csrwi	mstatus,0
 168:	00001537          	lui	a0,0x1
 16c:	8005051b          	addiw	a0,a0,-2048
 170:	30052073          	csrs	mstatus,a0
 174:	02200513          	li	a0,34
 178:	30352073          	csrs	mideleg,a0
 17c:	00000297          	auipc	t0,0x0
 180:	01428293          	addi	t0,t0,20 # 190 <test_18>
 184:	34129073          	csrw	mepc,t0
 188:	f1402573          	csrr	a0,mhartid
 18c:	30200073          	mret

0000000000000190 <test_18>:
 190:	10002573          	csrr	a0,sstatus
 194:	0030059b          	addiw	a1,zero,3
 198:	02059593          	slli	a1,a1,0x20
 19c:	00b57533          	and	a0,a0,a1
 1a0:	0010039b          	addiw	t2,zero,1
 1a4:	02139393          	slli	t2,t2,0x21
 1a8:	01200193          	li	gp,18
 1ac:	16751063          	bne	a0,t2,30c <fail>

00000000000001b0 <test_20>:
 1b0:	14001073          	csrw	sscratch,zero
 1b4:	14002573          	csrr	a0,sscratch
 1b8:	00000393          	li	t2,0
 1bc:	01400193          	li	gp,20
 1c0:	14751663          	bne	a0,t2,30c <fail>

00000000000001c4 <test_21>:
 1c4:	14005573          	csrrwi	a0,sscratch,0
 1c8:	1407d573          	csrrwi	a0,sscratch,15
 1cc:	00000393          	li	t2,0
 1d0:	01500193          	li	gp,21
 1d4:	12751c63          	bne	a0,t2,30c <fail>
 1d8:	1401d073          	csrwi	sscratch,3

00000000000001dc <test_2>:
 1dc:	14002573          	csrr	a0,sscratch
 1e0:	00300393          	li	t2,3
 1e4:	00200193          	li	gp,2
 1e8:	12751263          	bne	a0,t2,30c <fail>

00000000000001ec <test_3>:
 1ec:	1400f5f3          	csrrci	a1,sscratch,1
 1f0:	00300393          	li	t2,3
 1f4:	00300193          	li	gp,3
 1f8:	10759a63          	bne	a1,t2,30c <fail>

00000000000001fc <test_4>:
 1fc:	14026673          	csrrsi	a2,sscratch,4
 200:	00200393          	li	t2,2
 204:	00400193          	li	gp,4
 208:	10761263          	bne	a2,t2,30c <fail>

000000000000020c <test_5>:
 20c:	140156f3          	csrrwi	a3,sscratch,2
 210:	00600393          	li	t2,6
 214:	00500193          	li	gp,5
 218:	0e769a63          	bne	a3,t2,30c <fail>

000000000000021c <test_6>:
 21c:	0bad2537          	lui	a0,0xbad2
 220:	dea5051b          	addiw	a0,a0,-534
 224:	140515f3          	csrrw	a1,sscratch,a0
 228:	00200393          	li	t2,2
 22c:	00600193          	li	gp,6
 230:	0c759e63          	bne	a1,t2,30c <fail>

0000000000000234 <test_7>:
 234:	00002537          	lui	a0,0x2
 238:	dea5051b          	addiw	a0,a0,-534
 23c:	140535f3          	csrrc	a1,sscratch,a0
 240:	0bad23b7          	lui	t2,0xbad2
 244:	dea3839b          	addiw	t2,t2,-534
 248:	00700193          	li	gp,7
 24c:	0c759063          	bne	a1,t2,30c <fail>

0000000000000250 <test_8>:
 250:	0000c537          	lui	a0,0xc
 254:	eef5051b          	addiw	a0,a0,-273
 258:	140525f3          	csrrs	a1,sscratch,a0
 25c:	0bad03b7          	lui	t2,0xbad0
 260:	00800193          	li	gp,8
 264:	0a759463          	bne	a1,t2,30c <fail>

0000000000000268 <test_9>:
 268:	0bad2537          	lui	a0,0xbad2
 26c:	dea5051b          	addiw	a0,a0,-534
 270:	14051573          	csrrw	a0,sscratch,a0
 274:	0badc3b7          	lui	t2,0xbadc
 278:	eef3839b          	addiw	t2,t2,-273
 27c:	00900193          	li	gp,9
 280:	08751663          	bne	a0,t2,30c <fail>

0000000000000284 <test_10>:
 284:	00002537          	lui	a0,0x2
 288:	dea5051b          	addiw	a0,a0,-534
 28c:	14053573          	csrrc	a0,sscratch,a0
 290:	0bad23b7          	lui	t2,0xbad2
 294:	dea3839b          	addiw	t2,t2,-534
 298:	00a00193          	li	gp,10
 29c:	06751863          	bne	a0,t2,30c <fail>

00000000000002a0 <test_11>:
 2a0:	0000c537          	lui	a0,0xc
 2a4:	eef5051b          	addiw	a0,a0,-273
 2a8:	14052573          	csrrs	a0,sscratch,a0
 2ac:	0bad03b7          	lui	t2,0xbad0
 2b0:	00b00193          	li	gp,11
 2b4:	04751c63          	bne	a0,t2,30c <fail>

00000000000002b8 <test_12>:
 2b8:	14002573          	csrr	a0,sscratch
 2bc:	0badc3b7          	lui	t2,0xbadc
 2c0:	eef3839b          	addiw	t2,t2,-273
 2c4:	00c00193          	li	gp,12
 2c8:	04751263          	bne	a0,t2,30c <fail>
 2cc:	10000293          	li	t0,256
 2d0:	1002b073          	csrc	sstatus,t0
 2d4:	00000297          	auipc	t0,0x0
 2d8:	01028293          	addi	t0,t0,16 # 2e4 <test_15>
 2dc:	14129073          	csrw	sepc,t0
 2e0:	10200073          	sret

00000000000002e4 <test_15>:
 2e4:	00000013          	nop
 2e8:	00000393          	li	t2,0
 2ec:	00f00193          	li	gp,15
 2f0:	00701e63          	bne	zero,t2,30c <fail>

00000000000002f4 <finish>:
 2f4:	0ff0000f          	fence
 2f8:	00100193          	li	gp,1
 2fc:	05d00893          	li	a7,93
 300:	00000513          	li	a0,0
 304:	00000073          	ecall
 308:	02301063          	bne	zero,gp,328 <pass>

000000000000030c <fail>:
 30c:	0ff0000f          	fence
 310:	00018063          	beqz	gp,310 <fail+0x4>
 314:	00119193          	slli	gp,gp,0x1
 318:	0011e193          	ori	gp,gp,1
 31c:	05d00893          	li	a7,93
 320:	00018513          	mv	a0,gp
 324:	00000073          	ecall

0000000000000328 <pass>:
 328:	0ff0000f          	fence
 32c:	00100193          	li	gp,1
 330:	05d00893          	li	a7,93
 334:	00000513          	li	a0,0
 338:	00000073          	ecall

000000000000033c <stvec_handler>:
 33c:	00c00293          	li	t0,12
 340:	0051e663          	bltu	gp,t0,34c <stvec_handler+0x10>
 344:	00e00293          	li	t0,14
 348:	0232f263          	bgeu	t0,gp,36c <privileged>
 34c:	142022f3          	csrr	t0,scause
 350:	00800313          	li	t1,8
 354:	fa629ce3          	bne	t0,t1,30c <fail>
 358:	0ff0000f          	fence
 35c:	00100193          	li	gp,1
 360:	05d00893          	li	a7,93
 364:	00000513          	li	a0,0
 368:	00000073          	ecall

000000000000036c <privileged>:
 36c:	142022f3          	csrr	t0,scause
 370:	00200313          	li	t1,2
 374:	f8629ce3          	bne	t0,t1,30c <fail>
 378:	141022f3          	csrr	t0,sepc
 37c:	00428293          	addi	t0,t0,4
 380:	14129073          	csrw	sepc,t0
 384:	10200073          	sret
 388:	c0001073          	unimp
 38c:	0000                	unimp
 38e:	0000                	unimp
 390:	0000                	unimp
 392:	0000                	unimp
 394:	0000                	unimp
 396:	0000                	unimp
 398:	0000                	unimp
 39a:	0000                	unimp
 39c:	0000                	unimp
 39e:	0000                	unimp
 3a0:	0000                	unimp
 3a2:	0000                	unimp
 3a4:	0000                	unimp
 3a6:	0000                	unimp
 3a8:	0000                	unimp
 3aa:	0000                	unimp
 3ac:	0000                	unimp
 3ae:	0000                	unimp
 3b0:	0000                	unimp
 3b2:	0000                	unimp
 3b4:	0000                	unimp
 3b6:	0000                	unimp
 3b8:	0000                	unimp
 3ba:	0000                	unimp
 3bc:	0000                	unimp
 3be:	0000                	unimp
