
rv64ui-p-srai:     file format elf64-littleriscv


Disassembly of section .text.init:

0000000000000000 <_start>:
   0:	0480006f          	j	48 <reset_vector>

0000000000000004 <trap_vector>:
   4:	34202f73          	csrr	t5,mcause
   8:	00800f93          	li	t6,8
   c:	03ff0863          	beq	t5,t6,3c <write_tohost>
  10:	00900f93          	li	t6,9
  14:	03ff0463          	beq	t5,t6,3c <write_tohost>
  18:	00b00f93          	li	t6,11
  1c:	03ff0063          	beq	t5,t6,3c <write_tohost>
  20:	00000f13          	li	t5,0
  24:	000f0463          	beqz	t5,2c <trap_vector+0x28>
  28:	000f0067          	jr	t5
  2c:	34202f73          	csrr	t5,mcause
  30:	000f5463          	bgez	t5,38 <handle_exception>
  34:	0040006f          	j	38 <handle_exception>

0000000000000038 <handle_exception>:
  38:	5391e193          	ori	gp,gp,1337

000000000000003c <write_tohost>:
  3c:	00001f17          	auipc	t5,0x1
  40:	fc3f2223          	sw	gp,-60(t5) # 1000 <tohost>
  44:	ff9ff06f          	j	3c <write_tohost>

0000000000000048 <reset_vector>:
  48:	00000093          	li	ra,0
  4c:	00000113          	li	sp,0
  50:	00000193          	li	gp,0
  54:	00000213          	li	tp,0
  58:	00000293          	li	t0,0
  5c:	00000313          	li	t1,0
  60:	00000393          	li	t2,0
  64:	00000413          	li	s0,0
  68:	00000493          	li	s1,0
  6c:	00000513          	li	a0,0
  70:	00000593          	li	a1,0
  74:	00000613          	li	a2,0
  78:	00000693          	li	a3,0
  7c:	00000713          	li	a4,0
  80:	00000793          	li	a5,0
  84:	00000813          	li	a6,0
  88:	00000893          	li	a7,0
  8c:	00000913          	li	s2,0
  90:	00000993          	li	s3,0
  94:	00000a13          	li	s4,0
  98:	00000a93          	li	s5,0
  9c:	00000b13          	li	s6,0
  a0:	00000b93          	li	s7,0
  a4:	00000c13          	li	s8,0
  a8:	00000c93          	li	s9,0
  ac:	00000d13          	li	s10,0
  b0:	00000d93          	li	s11,0
  b4:	00000e13          	li	t3,0
  b8:	00000e93          	li	t4,0
  bc:	00000f13          	li	t5,0
  c0:	00000f93          	li	t6,0
  c4:	f1402573          	csrr	a0,mhartid
  c8:	00051063          	bnez	a0,c8 <reset_vector+0x80>
  cc:	00000297          	auipc	t0,0x0
  d0:	01028293          	addi	t0,t0,16 # dc <reset_vector+0x94>
  d4:	30529073          	csrw	mtvec,t0
  d8:	18005073          	csrwi	satp,0
  dc:	00000297          	auipc	t0,0x0
  e0:	02428293          	addi	t0,t0,36 # 100 <reset_vector+0xb8>
  e4:	30529073          	csrw	mtvec,t0
  e8:	0010029b          	addiw	t0,zero,1
  ec:	03529293          	slli	t0,t0,0x35
  f0:	fff28293          	addi	t0,t0,-1
  f4:	3b029073          	csrw	pmpaddr0,t0
  f8:	01f00293          	li	t0,31
  fc:	3a029073          	csrw	pmpcfg0,t0
 100:	30405073          	csrwi	mie,0
 104:	00000297          	auipc	t0,0x0
 108:	01428293          	addi	t0,t0,20 # 118 <reset_vector+0xd0>
 10c:	30529073          	csrw	mtvec,t0
 110:	30205073          	csrwi	medeleg,0
 114:	30305073          	csrwi	mideleg,0
 118:	00000193          	li	gp,0
 11c:	00000297          	auipc	t0,0x0
 120:	ee828293          	addi	t0,t0,-280 # 4 <trap_vector>
 124:	30529073          	csrw	mtvec,t0
 128:	00100513          	li	a0,1
 12c:	01f51513          	slli	a0,a0,0x1f
 130:	00055c63          	bgez	a0,148 <reset_vector+0x100>
 134:	0ff0000f          	fence
 138:	00100193          	li	gp,1
 13c:	05d00893          	li	a7,93
 140:	00000513          	li	a0,0
 144:	00000073          	ecall
 148:	00000293          	li	t0,0
 14c:	00028a63          	beqz	t0,160 <reset_vector+0x118>
 150:	10529073          	csrw	stvec,t0
 154:	0000b2b7          	lui	t0,0xb
 158:	1092829b          	addiw	t0,t0,265
 15c:	30229073          	csrw	medeleg,t0
 160:	30005073          	csrwi	mstatus,0
 164:	00000297          	auipc	t0,0x0
 168:	01428293          	addi	t0,t0,20 # 178 <test_2>
 16c:	34129073          	csrw	mepc,t0
 170:	f1402573          	csrr	a0,mhartid
 174:	30200073          	mret

0000000000000178 <test_2>:
 178:	fff0009b          	addiw	ra,zero,-1
 17c:	02709093          	slli	ra,ra,0x27
 180:	4000d713          	srai	a4,ra,0x0
 184:	fff0039b          	addiw	t2,zero,-1
 188:	02739393          	slli	t2,t2,0x27
 18c:	00200193          	li	gp,2
 190:	2a771463          	bne	a4,t2,438 <fail>

0000000000000194 <test_3>:
 194:	800000b7          	lui	ra,0x80000
 198:	4010d713          	srai	a4,ra,0x1
 19c:	c00003b7          	lui	t2,0xc0000
 1a0:	00300193          	li	gp,3
 1a4:	28771a63          	bne	a4,t2,438 <fail>

00000000000001a8 <test_4>:
 1a8:	800000b7          	lui	ra,0x80000
 1ac:	4070d713          	srai	a4,ra,0x7
 1b0:	ff0003b7          	lui	t2,0xff000
 1b4:	00400193          	li	gp,4
 1b8:	28771063          	bne	a4,t2,438 <fail>

00000000000001bc <test_5>:
 1bc:	800000b7          	lui	ra,0x80000
 1c0:	40e0d713          	srai	a4,ra,0xe
 1c4:	fffe03b7          	lui	t2,0xfffe0
 1c8:	00500193          	li	gp,5
 1cc:	26771663          	bne	a4,t2,438 <fail>

00000000000001d0 <test_6>:
 1d0:	800000b7          	lui	ra,0x80000
 1d4:	0010809b          	addiw	ra,ra,1
 1d8:	41f0d713          	srai	a4,ra,0x1f
 1dc:	fff00393          	li	t2,-1
 1e0:	00600193          	li	gp,6
 1e4:	24771a63          	bne	a4,t2,438 <fail>

00000000000001e8 <test_7>:
 1e8:	800000b7          	lui	ra,0x80000
 1ec:	fff0809b          	addiw	ra,ra,-1
 1f0:	4000d713          	srai	a4,ra,0x0
 1f4:	800003b7          	lui	t2,0x80000
 1f8:	fff3839b          	addiw	t2,t2,-1
 1fc:	00700193          	li	gp,7
 200:	22771c63          	bne	a4,t2,438 <fail>

0000000000000204 <test_8>:
 204:	800000b7          	lui	ra,0x80000
 208:	fff0809b          	addiw	ra,ra,-1
 20c:	4010d713          	srai	a4,ra,0x1
 210:	400003b7          	lui	t2,0x40000
 214:	fff3839b          	addiw	t2,t2,-1
 218:	00800193          	li	gp,8
 21c:	20771e63          	bne	a4,t2,438 <fail>

0000000000000220 <test_9>:
 220:	800000b7          	lui	ra,0x80000
 224:	fff0809b          	addiw	ra,ra,-1
 228:	4070d713          	srai	a4,ra,0x7
 22c:	010003b7          	lui	t2,0x1000
 230:	fff3839b          	addiw	t2,t2,-1
 234:	00900193          	li	gp,9
 238:	20771063          	bne	a4,t2,438 <fail>

000000000000023c <test_10>:
 23c:	800000b7          	lui	ra,0x80000
 240:	fff0809b          	addiw	ra,ra,-1
 244:	40e0d713          	srai	a4,ra,0xe
 248:	000203b7          	lui	t2,0x20
 24c:	fff3839b          	addiw	t2,t2,-1
 250:	00a00193          	li	gp,10
 254:	1e771263          	bne	a4,t2,438 <fail>

0000000000000258 <test_11>:
 258:	800000b7          	lui	ra,0x80000
 25c:	fff0809b          	addiw	ra,ra,-1
 260:	41f0d713          	srai	a4,ra,0x1f
 264:	00000393          	li	t2,0
 268:	00b00193          	li	gp,11
 26c:	1c771663          	bne	a4,t2,438 <fail>

0000000000000270 <test_12>:
 270:	818180b7          	lui	ra,0x81818
 274:	1810809b          	addiw	ra,ra,385
 278:	4000d713          	srai	a4,ra,0x0
 27c:	818183b7          	lui	t2,0x81818
 280:	1813839b          	addiw	t2,t2,385
 284:	00c00193          	li	gp,12
 288:	1a771863          	bne	a4,t2,438 <fail>

000000000000028c <test_13>:
 28c:	818180b7          	lui	ra,0x81818
 290:	1810809b          	addiw	ra,ra,385
 294:	4010d713          	srai	a4,ra,0x1
 298:	c0c0c3b7          	lui	t2,0xc0c0c
 29c:	0c03839b          	addiw	t2,t2,192
 2a0:	00d00193          	li	gp,13
 2a4:	18771a63          	bne	a4,t2,438 <fail>

00000000000002a8 <test_14>:
 2a8:	818180b7          	lui	ra,0x81818
 2ac:	1810809b          	addiw	ra,ra,385
 2b0:	4070d713          	srai	a4,ra,0x7
 2b4:	ff0303b7          	lui	t2,0xff030
 2b8:	3033839b          	addiw	t2,t2,771
 2bc:	00e00193          	li	gp,14
 2c0:	16771c63          	bne	a4,t2,438 <fail>

00000000000002c4 <test_15>:
 2c4:	818180b7          	lui	ra,0x81818
 2c8:	1810809b          	addiw	ra,ra,385
 2cc:	40e0d713          	srai	a4,ra,0xe
 2d0:	fffe03b7          	lui	t2,0xfffe0
 2d4:	6063839b          	addiw	t2,t2,1542
 2d8:	00f00193          	li	gp,15
 2dc:	14771e63          	bne	a4,t2,438 <fail>

00000000000002e0 <test_16>:
 2e0:	818180b7          	lui	ra,0x81818
 2e4:	1810809b          	addiw	ra,ra,385
 2e8:	41f0d713          	srai	a4,ra,0x1f
 2ec:	fff00393          	li	t2,-1
 2f0:	01000193          	li	gp,16
 2f4:	14771263          	bne	a4,t2,438 <fail>

00000000000002f8 <test_17>:
 2f8:	800000b7          	lui	ra,0x80000
 2fc:	4070d093          	srai	ra,ra,0x7
 300:	ff0003b7          	lui	t2,0xff000
 304:	01100193          	li	gp,17
 308:	12709863          	bne	ra,t2,438 <fail>

000000000000030c <test_18>:
 30c:	00000213          	li	tp,0
 310:	800000b7          	lui	ra,0x80000
 314:	4070d713          	srai	a4,ra,0x7
 318:	00070313          	mv	t1,a4
 31c:	00120213          	addi	tp,tp,1 # 1 <_start+0x1>
 320:	00200293          	li	t0,2
 324:	fe5216e3          	bne	tp,t0,310 <test_18+0x4>
 328:	ff0003b7          	lui	t2,0xff000
 32c:	01200193          	li	gp,18
 330:	10731463          	bne	t1,t2,438 <fail>

0000000000000334 <test_19>:
 334:	00000213          	li	tp,0
 338:	800000b7          	lui	ra,0x80000
 33c:	40e0d713          	srai	a4,ra,0xe
 340:	00000013          	nop
 344:	00070313          	mv	t1,a4
 348:	00120213          	addi	tp,tp,1 # 1 <_start+0x1>
 34c:	00200293          	li	t0,2
 350:	fe5214e3          	bne	tp,t0,338 <test_19+0x4>
 354:	fffe03b7          	lui	t2,0xfffe0
 358:	01300193          	li	gp,19
 35c:	0c731e63          	bne	t1,t2,438 <fail>

0000000000000360 <test_20>:
 360:	00000213          	li	tp,0
 364:	800000b7          	lui	ra,0x80000
 368:	0010809b          	addiw	ra,ra,1
 36c:	41f0d713          	srai	a4,ra,0x1f
 370:	00000013          	nop
 374:	00000013          	nop
 378:	00070313          	mv	t1,a4
 37c:	00120213          	addi	tp,tp,1 # 1 <_start+0x1>
 380:	00200293          	li	t0,2
 384:	fe5210e3          	bne	tp,t0,364 <test_20+0x4>
 388:	fff00393          	li	t2,-1
 38c:	01400193          	li	gp,20
 390:	0a731463          	bne	t1,t2,438 <fail>

0000000000000394 <test_21>:
 394:	00000213          	li	tp,0
 398:	800000b7          	lui	ra,0x80000
 39c:	4070d713          	srai	a4,ra,0x7
 3a0:	00120213          	addi	tp,tp,1 # 1 <_start+0x1>
 3a4:	00200293          	li	t0,2
 3a8:	fe5218e3          	bne	tp,t0,398 <test_21+0x4>
 3ac:	ff0003b7          	lui	t2,0xff000
 3b0:	01500193          	li	gp,21
 3b4:	08771263          	bne	a4,t2,438 <fail>

00000000000003b8 <test_22>:
 3b8:	00000213          	li	tp,0
 3bc:	800000b7          	lui	ra,0x80000
 3c0:	00000013          	nop
 3c4:	40e0d713          	srai	a4,ra,0xe
 3c8:	00120213          	addi	tp,tp,1 # 1 <_start+0x1>
 3cc:	00200293          	li	t0,2
 3d0:	fe5216e3          	bne	tp,t0,3bc <test_22+0x4>
 3d4:	fffe03b7          	lui	t2,0xfffe0
 3d8:	01600193          	li	gp,22
 3dc:	04771e63          	bne	a4,t2,438 <fail>

00000000000003e0 <test_23>:
 3e0:	00000213          	li	tp,0
 3e4:	800000b7          	lui	ra,0x80000
 3e8:	0010809b          	addiw	ra,ra,1
 3ec:	00000013          	nop
 3f0:	00000013          	nop
 3f4:	41f0d713          	srai	a4,ra,0x1f
 3f8:	00120213          	addi	tp,tp,1 # 1 <_start+0x1>
 3fc:	00200293          	li	t0,2
 400:	fe5212e3          	bne	tp,t0,3e4 <test_23+0x4>
 404:	fff00393          	li	t2,-1
 408:	01700193          	li	gp,23
 40c:	02771663          	bne	a4,t2,438 <fail>

0000000000000410 <test_24>:
 410:	40405093          	srai	ra,zero,0x4
 414:	00000393          	li	t2,0
 418:	01800193          	li	gp,24
 41c:	00709e63          	bne	ra,t2,438 <fail>

0000000000000420 <test_25>:
 420:	02100093          	li	ra,33
 424:	40a0d013          	srai	zero,ra,0xa
 428:	00000393          	li	t2,0
 42c:	01900193          	li	gp,25
 430:	00701463          	bne	zero,t2,438 <fail>
 434:	02301063          	bne	zero,gp,454 <pass>

0000000000000438 <fail>:
 438:	0ff0000f          	fence
 43c:	00018063          	beqz	gp,43c <fail+0x4>
 440:	00119193          	slli	gp,gp,0x1
 444:	0011e193          	ori	gp,gp,1
 448:	05d00893          	li	a7,93
 44c:	00018513          	mv	a0,gp
 450:	00000073          	ecall

0000000000000454 <pass>:
 454:	0ff0000f          	fence
 458:	00100193          	li	gp,1
 45c:	05d00893          	li	a7,93
 460:	00000513          	li	a0,0
 464:	00000073          	ecall
 468:	c0001073          	unimp
 46c:	0000                	unimp
 46e:	0000                	unimp
 470:	0000                	unimp
 472:	0000                	unimp
 474:	0000                	unimp
 476:	0000                	unimp
 478:	0000                	unimp
 47a:	0000                	unimp
