
rv64ud-p-fcvt_w:     file format elf64-littleriscv


Disassembly of section .text.init:

0000000000000000 <_start>:
   0:	0480006f          	j	48 <reset_vector>

0000000000000004 <trap_vector>:
   4:	34202f73          	csrr	t5,mcause
   8:	00800f93          	li	t6,8
   c:	03ff0863          	beq	t5,t6,3c <write_tohost>
  10:	00900f93          	li	t6,9
  14:	03ff0463          	beq	t5,t6,3c <write_tohost>
  18:	00b00f93          	li	t6,11
  1c:	03ff0063          	beq	t5,t6,3c <write_tohost>
  20:	00000f13          	li	t5,0
  24:	000f0463          	beqz	t5,2c <trap_vector+0x28>
  28:	000f0067          	jr	t5
  2c:	34202f73          	csrr	t5,mcause
  30:	000f5463          	bgez	t5,38 <handle_exception>
  34:	0040006f          	j	38 <handle_exception>

0000000000000038 <handle_exception>:
  38:	5391e193          	ori	gp,gp,1337

000000000000003c <write_tohost>:
  3c:	00001f17          	auipc	t5,0x1
  40:	fc3f2223          	sw	gp,-60(t5) # 1000 <tohost>
  44:	ff9ff06f          	j	3c <write_tohost>

0000000000000048 <reset_vector>:
  48:	00000093          	li	ra,0
  4c:	00000113          	li	sp,0
  50:	00000193          	li	gp,0
  54:	00000213          	li	tp,0
  58:	00000293          	li	t0,0
  5c:	00000313          	li	t1,0
  60:	00000393          	li	t2,0
  64:	00000413          	li	s0,0
  68:	00000493          	li	s1,0
  6c:	00000513          	li	a0,0
  70:	00000593          	li	a1,0
  74:	00000613          	li	a2,0
  78:	00000693          	li	a3,0
  7c:	00000713          	li	a4,0
  80:	00000793          	li	a5,0
  84:	00000813          	li	a6,0
  88:	00000893          	li	a7,0
  8c:	00000913          	li	s2,0
  90:	00000993          	li	s3,0
  94:	00000a13          	li	s4,0
  98:	00000a93          	li	s5,0
  9c:	00000b13          	li	s6,0
  a0:	00000b93          	li	s7,0
  a4:	00000c13          	li	s8,0
  a8:	00000c93          	li	s9,0
  ac:	00000d13          	li	s10,0
  b0:	00000d93          	li	s11,0
  b4:	00000e13          	li	t3,0
  b8:	00000e93          	li	t4,0
  bc:	00000f13          	li	t5,0
  c0:	00000f93          	li	t6,0
  c4:	f1402573          	csrr	a0,mhartid
  c8:	00051063          	bnez	a0,c8 <reset_vector+0x80>
  cc:	00000297          	auipc	t0,0x0
  d0:	01028293          	addi	t0,t0,16 # dc <reset_vector+0x94>
  d4:	30529073          	csrw	mtvec,t0
  d8:	18005073          	csrwi	satp,0
  dc:	00000297          	auipc	t0,0x0
  e0:	02428293          	addi	t0,t0,36 # 100 <reset_vector+0xb8>
  e4:	30529073          	csrw	mtvec,t0
  e8:	0010029b          	addiw	t0,zero,1
  ec:	03529293          	slli	t0,t0,0x35
  f0:	fff28293          	addi	t0,t0,-1
  f4:	3b029073          	csrw	pmpaddr0,t0
  f8:	01f00293          	li	t0,31
  fc:	3a029073          	csrw	pmpcfg0,t0
 100:	30405073          	csrwi	mie,0
 104:	00000297          	auipc	t0,0x0
 108:	01428293          	addi	t0,t0,20 # 118 <reset_vector+0xd0>
 10c:	30529073          	csrw	mtvec,t0
 110:	30205073          	csrwi	medeleg,0
 114:	30305073          	csrwi	mideleg,0
 118:	00000193          	li	gp,0
 11c:	00000297          	auipc	t0,0x0
 120:	ee828293          	addi	t0,t0,-280 # 4 <trap_vector>
 124:	30529073          	csrw	mtvec,t0
 128:	00100513          	li	a0,1
 12c:	01f51513          	slli	a0,a0,0x1f
 130:	00055c63          	bgez	a0,148 <reset_vector+0x100>
 134:	0ff0000f          	fence
 138:	00100193          	li	gp,1
 13c:	05d00893          	li	a7,93
 140:	00000513          	li	a0,0
 144:	00000073          	ecall
 148:	00000293          	li	t0,0
 14c:	00028a63          	beqz	t0,160 <reset_vector+0x118>
 150:	10529073          	csrw	stvec,t0
 154:	0000b2b7          	lui	t0,0xb
 158:	1092829b          	addiw	t0,t0,265
 15c:	30229073          	csrw	medeleg,t0
 160:	30005073          	csrwi	mstatus,0
 164:	00002537          	lui	a0,0x2
 168:	30052073          	csrs	mstatus,a0
 16c:	00305073          	csrwi	fcsr,0
 170:	00000297          	auipc	t0,0x0
 174:	01428293          	addi	t0,t0,20 # 184 <test_2>
 178:	34129073          	csrw	mepc,t0
 17c:	f1402573          	csrr	a0,mhartid
 180:	30200073          	mret

0000000000000184 <test_2>:
 184:	00200193          	li	gp,2
 188:	00002517          	auipc	a0,0x2
 18c:	e7850513          	addi	a0,a0,-392 # 2000 <test_2_data>
 190:	00053007          	fld	ft0,0(a0)
 194:	00853087          	fld	ft1,8(a0)
 198:	01053107          	fld	ft2,16(a0)
 19c:	01853683          	ld	a3,24(a0)
 1a0:	c2001553          	fcvt.w.d	a0,ft0,rtz
 1a4:	001015f3          	fsflags	a1,zero
 1a8:	00100613          	li	a2,1
 1ac:	02d512e3          	bne	a0,a3,9d0 <fail>
 1b0:	02c590e3          	bne	a1,a2,9d0 <fail>

00000000000001b4 <test_3>:
 1b4:	00300193          	li	gp,3
 1b8:	00002517          	auipc	a0,0x2
 1bc:	e6850513          	addi	a0,a0,-408 # 2020 <test_3_data>
 1c0:	00053007          	fld	ft0,0(a0)
 1c4:	00853087          	fld	ft1,8(a0)
 1c8:	01053107          	fld	ft2,16(a0)
 1cc:	01853683          	ld	a3,24(a0)
 1d0:	c2001553          	fcvt.w.d	a0,ft0,rtz
 1d4:	001015f3          	fsflags	a1,zero
 1d8:	00000613          	li	a2,0
 1dc:	7ed51a63          	bne	a0,a3,9d0 <fail>
 1e0:	7ec59863          	bne	a1,a2,9d0 <fail>

00000000000001e4 <test_4>:
 1e4:	00400193          	li	gp,4
 1e8:	00002517          	auipc	a0,0x2
 1ec:	e5850513          	addi	a0,a0,-424 # 2040 <test_4_data>
 1f0:	00053007          	fld	ft0,0(a0)
 1f4:	00853087          	fld	ft1,8(a0)
 1f8:	01053107          	fld	ft2,16(a0)
 1fc:	01853683          	ld	a3,24(a0)
 200:	c2001553          	fcvt.w.d	a0,ft0,rtz
 204:	001015f3          	fsflags	a1,zero
 208:	00100613          	li	a2,1
 20c:	7cd51263          	bne	a0,a3,9d0 <fail>
 210:	7cc59063          	bne	a1,a2,9d0 <fail>

0000000000000214 <test_5>:
 214:	00500193          	li	gp,5
 218:	00002517          	auipc	a0,0x2
 21c:	e4850513          	addi	a0,a0,-440 # 2060 <test_5_data>
 220:	00053007          	fld	ft0,0(a0)
 224:	00853087          	fld	ft1,8(a0)
 228:	01053107          	fld	ft2,16(a0)
 22c:	01853683          	ld	a3,24(a0)
 230:	c2001553          	fcvt.w.d	a0,ft0,rtz
 234:	001015f3          	fsflags	a1,zero
 238:	00100613          	li	a2,1
 23c:	78d51a63          	bne	a0,a3,9d0 <fail>
 240:	78c59863          	bne	a1,a2,9d0 <fail>

0000000000000244 <test_6>:
 244:	00600193          	li	gp,6
 248:	00002517          	auipc	a0,0x2
 24c:	e3850513          	addi	a0,a0,-456 # 2080 <test_6_data>
 250:	00053007          	fld	ft0,0(a0)
 254:	00853087          	fld	ft1,8(a0)
 258:	01053107          	fld	ft2,16(a0)
 25c:	01853683          	ld	a3,24(a0)
 260:	c2001553          	fcvt.w.d	a0,ft0,rtz
 264:	001015f3          	fsflags	a1,zero
 268:	00000613          	li	a2,0
 26c:	76d51263          	bne	a0,a3,9d0 <fail>
 270:	76c59063          	bne	a1,a2,9d0 <fail>

0000000000000274 <test_7>:
 274:	00700193          	li	gp,7
 278:	00002517          	auipc	a0,0x2
 27c:	e2850513          	addi	a0,a0,-472 # 20a0 <test_7_data>
 280:	00053007          	fld	ft0,0(a0)
 284:	00853087          	fld	ft1,8(a0)
 288:	01053107          	fld	ft2,16(a0)
 28c:	01853683          	ld	a3,24(a0)
 290:	c2001553          	fcvt.w.d	a0,ft0,rtz
 294:	001015f3          	fsflags	a1,zero
 298:	00100613          	li	a2,1
 29c:	72d51a63          	bne	a0,a3,9d0 <fail>
 2a0:	72c59863          	bne	a1,a2,9d0 <fail>

00000000000002a4 <test_8>:
 2a4:	00800193          	li	gp,8
 2a8:	00002517          	auipc	a0,0x2
 2ac:	e1850513          	addi	a0,a0,-488 # 20c0 <test_8_data>
 2b0:	00053007          	fld	ft0,0(a0)
 2b4:	00853087          	fld	ft1,8(a0)
 2b8:	01053107          	fld	ft2,16(a0)
 2bc:	01853683          	ld	a3,24(a0)
 2c0:	c2001553          	fcvt.w.d	a0,ft0,rtz
 2c4:	001015f3          	fsflags	a1,zero
 2c8:	01000613          	li	a2,16
 2cc:	70d51263          	bne	a0,a3,9d0 <fail>
 2d0:	70c59063          	bne	a1,a2,9d0 <fail>

00000000000002d4 <test_9>:
 2d4:	00900193          	li	gp,9
 2d8:	00002517          	auipc	a0,0x2
 2dc:	e0850513          	addi	a0,a0,-504 # 20e0 <test_9_data>
 2e0:	00053007          	fld	ft0,0(a0)
 2e4:	00853087          	fld	ft1,8(a0)
 2e8:	01053107          	fld	ft2,16(a0)
 2ec:	01853683          	ld	a3,24(a0)
 2f0:	c2001553          	fcvt.w.d	a0,ft0,rtz
 2f4:	001015f3          	fsflags	a1,zero
 2f8:	01000613          	li	a2,16
 2fc:	6cd51a63          	bne	a0,a3,9d0 <fail>
 300:	6cc59863          	bne	a1,a2,9d0 <fail>

0000000000000304 <test_12>:
 304:	00c00193          	li	gp,12
 308:	00002517          	auipc	a0,0x2
 30c:	df850513          	addi	a0,a0,-520 # 2100 <test_12_data>
 310:	00053007          	fld	ft0,0(a0)
 314:	00853087          	fld	ft1,8(a0)
 318:	01053107          	fld	ft2,16(a0)
 31c:	01853683          	ld	a3,24(a0)
 320:	c2101553          	fcvt.wu.d	a0,ft0,rtz
 324:	001015f3          	fsflags	a1,zero
 328:	01000613          	li	a2,16
 32c:	6ad51263          	bne	a0,a3,9d0 <fail>
 330:	6ac59063          	bne	a1,a2,9d0 <fail>

0000000000000334 <test_13>:
 334:	00d00193          	li	gp,13
 338:	00002517          	auipc	a0,0x2
 33c:	de850513          	addi	a0,a0,-536 # 2120 <test_13_data>
 340:	00053007          	fld	ft0,0(a0)
 344:	00853087          	fld	ft1,8(a0)
 348:	01053107          	fld	ft2,16(a0)
 34c:	01853683          	ld	a3,24(a0)
 350:	c2101553          	fcvt.wu.d	a0,ft0,rtz
 354:	001015f3          	fsflags	a1,zero
 358:	01000613          	li	a2,16
 35c:	66d51a63          	bne	a0,a3,9d0 <fail>
 360:	66c59863          	bne	a1,a2,9d0 <fail>

0000000000000364 <test_14>:
 364:	00e00193          	li	gp,14
 368:	00002517          	auipc	a0,0x2
 36c:	dd850513          	addi	a0,a0,-552 # 2140 <test_14_data>
 370:	00053007          	fld	ft0,0(a0)
 374:	00853087          	fld	ft1,8(a0)
 378:	01053107          	fld	ft2,16(a0)
 37c:	01853683          	ld	a3,24(a0)
 380:	c2101553          	fcvt.wu.d	a0,ft0,rtz
 384:	001015f3          	fsflags	a1,zero
 388:	00100613          	li	a2,1
 38c:	64d51263          	bne	a0,a3,9d0 <fail>
 390:	64c59063          	bne	a1,a2,9d0 <fail>

0000000000000394 <test_15>:
 394:	00f00193          	li	gp,15
 398:	00002517          	auipc	a0,0x2
 39c:	dc850513          	addi	a0,a0,-568 # 2160 <test_15_data>
 3a0:	00053007          	fld	ft0,0(a0)
 3a4:	00853087          	fld	ft1,8(a0)
 3a8:	01053107          	fld	ft2,16(a0)
 3ac:	01853683          	ld	a3,24(a0)
 3b0:	c2101553          	fcvt.wu.d	a0,ft0,rtz
 3b4:	001015f3          	fsflags	a1,zero
 3b8:	00100613          	li	a2,1
 3bc:	60d51a63          	bne	a0,a3,9d0 <fail>
 3c0:	60c59863          	bne	a1,a2,9d0 <fail>

00000000000003c4 <test_16>:
 3c4:	01000193          	li	gp,16
 3c8:	00002517          	auipc	a0,0x2
 3cc:	db850513          	addi	a0,a0,-584 # 2180 <test_16_data>
 3d0:	00053007          	fld	ft0,0(a0)
 3d4:	00853087          	fld	ft1,8(a0)
 3d8:	01053107          	fld	ft2,16(a0)
 3dc:	01853683          	ld	a3,24(a0)
 3e0:	c2101553          	fcvt.wu.d	a0,ft0,rtz
 3e4:	001015f3          	fsflags	a1,zero
 3e8:	00000613          	li	a2,0
 3ec:	5ed51263          	bne	a0,a3,9d0 <fail>
 3f0:	5ec59063          	bne	a1,a2,9d0 <fail>

00000000000003f4 <test_17>:
 3f4:	01100193          	li	gp,17
 3f8:	00002517          	auipc	a0,0x2
 3fc:	da850513          	addi	a0,a0,-600 # 21a0 <test_17_data>
 400:	00053007          	fld	ft0,0(a0)
 404:	00853087          	fld	ft1,8(a0)
 408:	01053107          	fld	ft2,16(a0)
 40c:	01853683          	ld	a3,24(a0)
 410:	c2101553          	fcvt.wu.d	a0,ft0,rtz
 414:	001015f3          	fsflags	a1,zero
 418:	00100613          	li	a2,1
 41c:	5ad51a63          	bne	a0,a3,9d0 <fail>
 420:	5ac59863          	bne	a1,a2,9d0 <fail>

0000000000000424 <test_18>:
 424:	01200193          	li	gp,18
 428:	00002517          	auipc	a0,0x2
 42c:	d9850513          	addi	a0,a0,-616 # 21c0 <test_18_data>
 430:	00053007          	fld	ft0,0(a0)
 434:	00853087          	fld	ft1,8(a0)
 438:	01053107          	fld	ft2,16(a0)
 43c:	01853683          	ld	a3,24(a0)
 440:	c2101553          	fcvt.wu.d	a0,ft0,rtz
 444:	001015f3          	fsflags	a1,zero
 448:	01000613          	li	a2,16
 44c:	58d51263          	bne	a0,a3,9d0 <fail>
 450:	58c59063          	bne	a1,a2,9d0 <fail>

0000000000000454 <test_19>:
 454:	01300193          	li	gp,19
 458:	00002517          	auipc	a0,0x2
 45c:	d8850513          	addi	a0,a0,-632 # 21e0 <test_19_data>
 460:	00053007          	fld	ft0,0(a0)
 464:	00853087          	fld	ft1,8(a0)
 468:	01053107          	fld	ft2,16(a0)
 46c:	01853683          	ld	a3,24(a0)
 470:	c2101553          	fcvt.wu.d	a0,ft0,rtz
 474:	001015f3          	fsflags	a1,zero
 478:	00000613          	li	a2,0
 47c:	54d51a63          	bne	a0,a3,9d0 <fail>
 480:	54c59863          	bne	a1,a2,9d0 <fail>

0000000000000484 <test_22>:
 484:	01600193          	li	gp,22
 488:	00002517          	auipc	a0,0x2
 48c:	d7850513          	addi	a0,a0,-648 # 2200 <test_22_data>
 490:	00053007          	fld	ft0,0(a0)
 494:	00853087          	fld	ft1,8(a0)
 498:	01053107          	fld	ft2,16(a0)
 49c:	01853683          	ld	a3,24(a0)
 4a0:	c2201553          	fcvt.l.d	a0,ft0,rtz
 4a4:	001015f3          	fsflags	a1,zero
 4a8:	00100613          	li	a2,1
 4ac:	52d51263          	bne	a0,a3,9d0 <fail>
 4b0:	52c59063          	bne	a1,a2,9d0 <fail>

00000000000004b4 <test_23>:
 4b4:	01700193          	li	gp,23
 4b8:	00002517          	auipc	a0,0x2
 4bc:	d6850513          	addi	a0,a0,-664 # 2220 <test_23_data>
 4c0:	00053007          	fld	ft0,0(a0)
 4c4:	00853087          	fld	ft1,8(a0)
 4c8:	01053107          	fld	ft2,16(a0)
 4cc:	01853683          	ld	a3,24(a0)
 4d0:	c2201553          	fcvt.l.d	a0,ft0,rtz
 4d4:	001015f3          	fsflags	a1,zero
 4d8:	00000613          	li	a2,0
 4dc:	4ed51a63          	bne	a0,a3,9d0 <fail>
 4e0:	4ec59863          	bne	a1,a2,9d0 <fail>

00000000000004e4 <test_24>:
 4e4:	01800193          	li	gp,24
 4e8:	00002517          	auipc	a0,0x2
 4ec:	d5850513          	addi	a0,a0,-680 # 2240 <test_24_data>
 4f0:	00053007          	fld	ft0,0(a0)
 4f4:	00853087          	fld	ft1,8(a0)
 4f8:	01053107          	fld	ft2,16(a0)
 4fc:	01853683          	ld	a3,24(a0)
 500:	c2201553          	fcvt.l.d	a0,ft0,rtz
 504:	001015f3          	fsflags	a1,zero
 508:	00100613          	li	a2,1
 50c:	4cd51263          	bne	a0,a3,9d0 <fail>
 510:	4cc59063          	bne	a1,a2,9d0 <fail>

0000000000000514 <test_25>:
 514:	01900193          	li	gp,25
 518:	00002517          	auipc	a0,0x2
 51c:	d4850513          	addi	a0,a0,-696 # 2260 <test_25_data>
 520:	00053007          	fld	ft0,0(a0)
 524:	00853087          	fld	ft1,8(a0)
 528:	01053107          	fld	ft2,16(a0)
 52c:	01853683          	ld	a3,24(a0)
 530:	c2201553          	fcvt.l.d	a0,ft0,rtz
 534:	001015f3          	fsflags	a1,zero
 538:	00100613          	li	a2,1
 53c:	48d51a63          	bne	a0,a3,9d0 <fail>
 540:	48c59863          	bne	a1,a2,9d0 <fail>

0000000000000544 <test_26>:
 544:	01a00193          	li	gp,26
 548:	00002517          	auipc	a0,0x2
 54c:	d3850513          	addi	a0,a0,-712 # 2280 <test_26_data>
 550:	00053007          	fld	ft0,0(a0)
 554:	00853087          	fld	ft1,8(a0)
 558:	01053107          	fld	ft2,16(a0)
 55c:	01853683          	ld	a3,24(a0)
 560:	c2201553          	fcvt.l.d	a0,ft0,rtz
 564:	001015f3          	fsflags	a1,zero
 568:	00000613          	li	a2,0
 56c:	46d51263          	bne	a0,a3,9d0 <fail>
 570:	46c59063          	bne	a1,a2,9d0 <fail>

0000000000000574 <test_27>:
 574:	01b00193          	li	gp,27
 578:	00002517          	auipc	a0,0x2
 57c:	d2850513          	addi	a0,a0,-728 # 22a0 <test_27_data>
 580:	00053007          	fld	ft0,0(a0)
 584:	00853087          	fld	ft1,8(a0)
 588:	01053107          	fld	ft2,16(a0)
 58c:	01853683          	ld	a3,24(a0)
 590:	c2201553          	fcvt.l.d	a0,ft0,rtz
 594:	001015f3          	fsflags	a1,zero
 598:	00100613          	li	a2,1
 59c:	42d51a63          	bne	a0,a3,9d0 <fail>
 5a0:	42c59863          	bne	a1,a2,9d0 <fail>

00000000000005a4 <test_28>:
 5a4:	01c00193          	li	gp,28
 5a8:	00002517          	auipc	a0,0x2
 5ac:	d1850513          	addi	a0,a0,-744 # 22c0 <test_28_data>
 5b0:	00053007          	fld	ft0,0(a0)
 5b4:	00853087          	fld	ft1,8(a0)
 5b8:	01053107          	fld	ft2,16(a0)
 5bc:	01853683          	ld	a3,24(a0)
 5c0:	c2201553          	fcvt.l.d	a0,ft0,rtz
 5c4:	001015f3          	fsflags	a1,zero
 5c8:	00000613          	li	a2,0
 5cc:	40d51263          	bne	a0,a3,9d0 <fail>
 5d0:	40c59063          	bne	a1,a2,9d0 <fail>

00000000000005d4 <test_29>:
 5d4:	01d00193          	li	gp,29
 5d8:	00002517          	auipc	a0,0x2
 5dc:	d0850513          	addi	a0,a0,-760 # 22e0 <test_29_data>
 5e0:	00053007          	fld	ft0,0(a0)
 5e4:	00853087          	fld	ft1,8(a0)
 5e8:	01053107          	fld	ft2,16(a0)
 5ec:	01853683          	ld	a3,24(a0)
 5f0:	c2201553          	fcvt.l.d	a0,ft0,rtz
 5f4:	001015f3          	fsflags	a1,zero
 5f8:	00000613          	li	a2,0
 5fc:	3cd51a63          	bne	a0,a3,9d0 <fail>
 600:	3cc59863          	bne	a1,a2,9d0 <fail>

0000000000000604 <test_20>:
 604:	01400193          	li	gp,20
 608:	00002517          	auipc	a0,0x2
 60c:	cf850513          	addi	a0,a0,-776 # 2300 <test_20_data>
 610:	00053007          	fld	ft0,0(a0)
 614:	00853087          	fld	ft1,8(a0)
 618:	01053107          	fld	ft2,16(a0)
 61c:	01853683          	ld	a3,24(a0)
 620:	c2201553          	fcvt.l.d	a0,ft0,rtz
 624:	001015f3          	fsflags	a1,zero
 628:	01000613          	li	a2,16
 62c:	3ad51263          	bne	a0,a3,9d0 <fail>
 630:	3ac59063          	bne	a1,a2,9d0 <fail>

0000000000000634 <test_21>:
 634:	01500193          	li	gp,21
 638:	00002517          	auipc	a0,0x2
 63c:	ce850513          	addi	a0,a0,-792 # 2320 <test_21_data>
 640:	00053007          	fld	ft0,0(a0)
 644:	00853087          	fld	ft1,8(a0)
 648:	01053107          	fld	ft2,16(a0)
 64c:	01853683          	ld	a3,24(a0)
 650:	c2201553          	fcvt.l.d	a0,ft0,rtz
 654:	001015f3          	fsflags	a1,zero
 658:	01000613          	li	a2,16
 65c:	36d51a63          	bne	a0,a3,9d0 <fail>
 660:	36c59863          	bne	a1,a2,9d0 <fail>

0000000000000664 <test_32>:
 664:	02000193          	li	gp,32
 668:	00002517          	auipc	a0,0x2
 66c:	cd850513          	addi	a0,a0,-808 # 2340 <test_32_data>
 670:	00053007          	fld	ft0,0(a0)
 674:	00853087          	fld	ft1,8(a0)
 678:	01053107          	fld	ft2,16(a0)
 67c:	01853683          	ld	a3,24(a0)
 680:	c2301553          	fcvt.lu.d	a0,ft0,rtz
 684:	001015f3          	fsflags	a1,zero
 688:	01000613          	li	a2,16
 68c:	34d51263          	bne	a0,a3,9d0 <fail>
 690:	34c59063          	bne	a1,a2,9d0 <fail>

0000000000000694 <test_33>:
 694:	02100193          	li	gp,33
 698:	00002517          	auipc	a0,0x2
 69c:	cc850513          	addi	a0,a0,-824 # 2360 <test_33_data>
 6a0:	00053007          	fld	ft0,0(a0)
 6a4:	00853087          	fld	ft1,8(a0)
 6a8:	01053107          	fld	ft2,16(a0)
 6ac:	01853683          	ld	a3,24(a0)
 6b0:	c2301553          	fcvt.lu.d	a0,ft0,rtz
 6b4:	001015f3          	fsflags	a1,zero
 6b8:	01000613          	li	a2,16
 6bc:	30d51a63          	bne	a0,a3,9d0 <fail>
 6c0:	30c59863          	bne	a1,a2,9d0 <fail>

00000000000006c4 <test_34>:
 6c4:	02200193          	li	gp,34
 6c8:	00002517          	auipc	a0,0x2
 6cc:	cb850513          	addi	a0,a0,-840 # 2380 <test_34_data>
 6d0:	00053007          	fld	ft0,0(a0)
 6d4:	00853087          	fld	ft1,8(a0)
 6d8:	01053107          	fld	ft2,16(a0)
 6dc:	01853683          	ld	a3,24(a0)
 6e0:	c2301553          	fcvt.lu.d	a0,ft0,rtz
 6e4:	001015f3          	fsflags	a1,zero
 6e8:	00100613          	li	a2,1
 6ec:	2ed51263          	bne	a0,a3,9d0 <fail>
 6f0:	2ec59063          	bne	a1,a2,9d0 <fail>

00000000000006f4 <test_35>:
 6f4:	02300193          	li	gp,35
 6f8:	00002517          	auipc	a0,0x2
 6fc:	ca850513          	addi	a0,a0,-856 # 23a0 <test_35_data>
 700:	00053007          	fld	ft0,0(a0)
 704:	00853087          	fld	ft1,8(a0)
 708:	01053107          	fld	ft2,16(a0)
 70c:	01853683          	ld	a3,24(a0)
 710:	c2301553          	fcvt.lu.d	a0,ft0,rtz
 714:	001015f3          	fsflags	a1,zero
 718:	00100613          	li	a2,1
 71c:	2ad51a63          	bne	a0,a3,9d0 <fail>
 720:	2ac59863          	bne	a1,a2,9d0 <fail>

0000000000000724 <test_36>:
 724:	02400193          	li	gp,36
 728:	00002517          	auipc	a0,0x2
 72c:	c9850513          	addi	a0,a0,-872 # 23c0 <test_36_data>
 730:	00053007          	fld	ft0,0(a0)
 734:	00853087          	fld	ft1,8(a0)
 738:	01053107          	fld	ft2,16(a0)
 73c:	01853683          	ld	a3,24(a0)
 740:	c2301553          	fcvt.lu.d	a0,ft0,rtz
 744:	001015f3          	fsflags	a1,zero
 748:	00000613          	li	a2,0
 74c:	28d51263          	bne	a0,a3,9d0 <fail>
 750:	28c59063          	bne	a1,a2,9d0 <fail>

0000000000000754 <test_37>:
 754:	02500193          	li	gp,37
 758:	00002517          	auipc	a0,0x2
 75c:	c8850513          	addi	a0,a0,-888 # 23e0 <test_37_data>
 760:	00053007          	fld	ft0,0(a0)
 764:	00853087          	fld	ft1,8(a0)
 768:	01053107          	fld	ft2,16(a0)
 76c:	01853683          	ld	a3,24(a0)
 770:	c2301553          	fcvt.lu.d	a0,ft0,rtz
 774:	001015f3          	fsflags	a1,zero
 778:	00100613          	li	a2,1
 77c:	24d51a63          	bne	a0,a3,9d0 <fail>
 780:	24c59863          	bne	a1,a2,9d0 <fail>

0000000000000784 <test_38>:
 784:	02600193          	li	gp,38
 788:	00002517          	auipc	a0,0x2
 78c:	c7850513          	addi	a0,a0,-904 # 2400 <test_38_data>
 790:	00053007          	fld	ft0,0(a0)
 794:	00853087          	fld	ft1,8(a0)
 798:	01053107          	fld	ft2,16(a0)
 79c:	01853683          	ld	a3,24(a0)
 7a0:	c2301553          	fcvt.lu.d	a0,ft0,rtz
 7a4:	001015f3          	fsflags	a1,zero
 7a8:	01000613          	li	a2,16
 7ac:	22d51263          	bne	a0,a3,9d0 <fail>
 7b0:	22c59063          	bne	a1,a2,9d0 <fail>

00000000000007b4 <test_39>:
 7b4:	02700193          	li	gp,39
 7b8:	00002517          	auipc	a0,0x2
 7bc:	c6850513          	addi	a0,a0,-920 # 2420 <test_39_data>
 7c0:	00053007          	fld	ft0,0(a0)
 7c4:	00853087          	fld	ft1,8(a0)
 7c8:	01053107          	fld	ft2,16(a0)
 7cc:	01853683          	ld	a3,24(a0)
 7d0:	c2301553          	fcvt.lu.d	a0,ft0,rtz
 7d4:	001015f3          	fsflags	a1,zero
 7d8:	00000613          	li	a2,0
 7dc:	1ed51a63          	bne	a0,a3,9d0 <fail>
 7e0:	1ec59863          	bne	a1,a2,9d0 <fail>

00000000000007e4 <test_42>:
 7e4:	00002097          	auipc	ra,0x2
 7e8:	c6c08093          	addi	ra,ra,-916 # 2450 <tdat_d>
 7ec:	0000b087          	fld	ft1,0(ra)
 7f0:	c200f0d3          	fcvt.w.d	ra,ft1
 7f4:	800003b7          	lui	t2,0x80000
 7f8:	fff3839b          	addiw	t2,t2,-1
 7fc:	02a00193          	li	gp,42
 800:	1c709863          	bne	ra,t2,9d0 <fail>

0000000000000804 <test_43>:
 804:	00002097          	auipc	ra,0x2
 808:	c4c08093          	addi	ra,ra,-948 # 2450 <tdat_d>
 80c:	0000b087          	fld	ft1,0(ra)
 810:	c220f0d3          	fcvt.l.d	ra,ft1
 814:	fff0039b          	addiw	t2,zero,-1
 818:	03f39393          	slli	t2,t2,0x3f
 81c:	fff38393          	addi	t2,t2,-1 # ffffffff7fffffff <_end+0xffffffff7fffdb8f>
 820:	02b00193          	li	gp,43
 824:	1a709663          	bne	ra,t2,9d0 <fail>

0000000000000828 <test_44>:
 828:	00002097          	auipc	ra,0x2
 82c:	c2808093          	addi	ra,ra,-984 # 2450 <tdat_d>
 830:	0100b087          	fld	ft1,16(ra)
 834:	c200f0d3          	fcvt.w.d	ra,ft1
 838:	800003b7          	lui	t2,0x80000
 83c:	02c00193          	li	gp,44
 840:	18709863          	bne	ra,t2,9d0 <fail>

0000000000000844 <test_45>:
 844:	00002097          	auipc	ra,0x2
 848:	c0c08093          	addi	ra,ra,-1012 # 2450 <tdat_d>
 84c:	0100b087          	fld	ft1,16(ra)
 850:	c220f0d3          	fcvt.l.d	ra,ft1
 854:	fff0039b          	addiw	t2,zero,-1
 858:	03f39393          	slli	t2,t2,0x3f
 85c:	02d00193          	li	gp,45
 860:	16709863          	bne	ra,t2,9d0 <fail>

0000000000000864 <test_52>:
 864:	00002097          	auipc	ra,0x2
 868:	bec08093          	addi	ra,ra,-1044 # 2450 <tdat_d>
 86c:	0080b087          	fld	ft1,8(ra)
 870:	c200f0d3          	fcvt.w.d	ra,ft1
 874:	800003b7          	lui	t2,0x80000
 878:	fff3839b          	addiw	t2,t2,-1
 87c:	03400193          	li	gp,52
 880:	14709863          	bne	ra,t2,9d0 <fail>

0000000000000884 <test_53>:
 884:	00002097          	auipc	ra,0x2
 888:	bcc08093          	addi	ra,ra,-1076 # 2450 <tdat_d>
 88c:	0080b087          	fld	ft1,8(ra)
 890:	c220f0d3          	fcvt.l.d	ra,ft1
 894:	fff0039b          	addiw	t2,zero,-1
 898:	03f39393          	slli	t2,t2,0x3f
 89c:	fff38393          	addi	t2,t2,-1 # ffffffff7fffffff <_end+0xffffffff7fffdb8f>
 8a0:	03500193          	li	gp,53
 8a4:	12709663          	bne	ra,t2,9d0 <fail>

00000000000008a8 <test_54>:
 8a8:	00002097          	auipc	ra,0x2
 8ac:	ba808093          	addi	ra,ra,-1112 # 2450 <tdat_d>
 8b0:	0180b087          	fld	ft1,24(ra)
 8b4:	c200f0d3          	fcvt.w.d	ra,ft1
 8b8:	800003b7          	lui	t2,0x80000
 8bc:	fff3839b          	addiw	t2,t2,-1
 8c0:	03600193          	li	gp,54
 8c4:	10709663          	bne	ra,t2,9d0 <fail>

00000000000008c8 <test_55>:
 8c8:	00002097          	auipc	ra,0x2
 8cc:	b8808093          	addi	ra,ra,-1144 # 2450 <tdat_d>
 8d0:	0180b087          	fld	ft1,24(ra)
 8d4:	c220f0d3          	fcvt.l.d	ra,ft1
 8d8:	fff0039b          	addiw	t2,zero,-1
 8dc:	03f39393          	slli	t2,t2,0x3f
 8e0:	fff38393          	addi	t2,t2,-1 # ffffffff7fffffff <_end+0xffffffff7fffdb8f>
 8e4:	03700193          	li	gp,55
 8e8:	0e709463          	bne	ra,t2,9d0 <fail>

00000000000008ec <test_62>:
 8ec:	00002097          	auipc	ra,0x2
 8f0:	b6408093          	addi	ra,ra,-1180 # 2450 <tdat_d>
 8f4:	0000b087          	fld	ft1,0(ra)
 8f8:	c210f0d3          	fcvt.wu.d	ra,ft1
 8fc:	fff00393          	li	t2,-1
 900:	03e00193          	li	gp,62
 904:	0c709663          	bne	ra,t2,9d0 <fail>

0000000000000908 <test_63>:
 908:	00002097          	auipc	ra,0x2
 90c:	b4808093          	addi	ra,ra,-1208 # 2450 <tdat_d>
 910:	0080b087          	fld	ft1,8(ra)
 914:	c210f0d3          	fcvt.wu.d	ra,ft1
 918:	fff00393          	li	t2,-1
 91c:	03f00193          	li	gp,63
 920:	0a709863          	bne	ra,t2,9d0 <fail>

0000000000000924 <test_64>:
 924:	00002097          	auipc	ra,0x2
 928:	b2c08093          	addi	ra,ra,-1236 # 2450 <tdat_d>
 92c:	0100b087          	fld	ft1,16(ra)
 930:	c210f0d3          	fcvt.wu.d	ra,ft1
 934:	00000393          	li	t2,0
 938:	04000193          	li	gp,64
 93c:	08709a63          	bne	ra,t2,9d0 <fail>

0000000000000940 <test_65>:
 940:	00002097          	auipc	ra,0x2
 944:	b1008093          	addi	ra,ra,-1264 # 2450 <tdat_d>
 948:	0180b087          	fld	ft1,24(ra)
 94c:	c210f0d3          	fcvt.wu.d	ra,ft1
 950:	fff00393          	li	t2,-1
 954:	04100193          	li	gp,65
 958:	06709c63          	bne	ra,t2,9d0 <fail>

000000000000095c <test_66>:
 95c:	00002097          	auipc	ra,0x2
 960:	af408093          	addi	ra,ra,-1292 # 2450 <tdat_d>
 964:	0000b087          	fld	ft1,0(ra)
 968:	c230f0d3          	fcvt.lu.d	ra,ft1
 96c:	fff00393          	li	t2,-1
 970:	04200193          	li	gp,66
 974:	04709e63          	bne	ra,t2,9d0 <fail>

0000000000000978 <test_67>:
 978:	00002097          	auipc	ra,0x2
 97c:	ad808093          	addi	ra,ra,-1320 # 2450 <tdat_d>
 980:	0080b087          	fld	ft1,8(ra)
 984:	c230f0d3          	fcvt.lu.d	ra,ft1
 988:	fff00393          	li	t2,-1
 98c:	04300193          	li	gp,67
 990:	04709063          	bne	ra,t2,9d0 <fail>

0000000000000994 <test_68>:
 994:	00002097          	auipc	ra,0x2
 998:	abc08093          	addi	ra,ra,-1348 # 2450 <tdat_d>
 99c:	0100b087          	fld	ft1,16(ra)
 9a0:	c230f0d3          	fcvt.lu.d	ra,ft1
 9a4:	00000393          	li	t2,0
 9a8:	04400193          	li	gp,68
 9ac:	02709263          	bne	ra,t2,9d0 <fail>

00000000000009b0 <test_69>:
 9b0:	00002097          	auipc	ra,0x2
 9b4:	aa008093          	addi	ra,ra,-1376 # 2450 <tdat_d>
 9b8:	0180b087          	fld	ft1,24(ra)
 9bc:	c230f0d3          	fcvt.lu.d	ra,ft1
 9c0:	fff00393          	li	t2,-1
 9c4:	04500193          	li	gp,69
 9c8:	00709463          	bne	ra,t2,9d0 <fail>
 9cc:	02301063          	bne	zero,gp,9ec <pass>

00000000000009d0 <fail>:
 9d0:	0ff0000f          	fence
 9d4:	00018063          	beqz	gp,9d4 <fail+0x4>
 9d8:	00119193          	slli	gp,gp,0x1
 9dc:	0011e193          	ori	gp,gp,1
 9e0:	05d00893          	li	a7,93
 9e4:	00018513          	mv	a0,gp
 9e8:	00000073          	ecall

00000000000009ec <pass>:
 9ec:	0ff0000f          	fence
 9f0:	00100193          	li	gp,1
 9f4:	05d00893          	li	a7,93
 9f8:	00000513          	li	a0,0
 9fc:	00000073          	ecall
 a00:	c0001073          	unimp
 a04:	0000                	unimp
 a06:	0000                	unimp
 a08:	0000                	unimp
 a0a:	0000                	unimp
 a0c:	0000                	unimp
 a0e:	0000                	unimp
 a10:	0000                	unimp
 a12:	0000                	unimp
 a14:	0000                	unimp
 a16:	0000                	unimp
 a18:	0000                	unimp
 a1a:	0000                	unimp
 a1c:	0000                	unimp
 a1e:	0000                	unimp
 a20:	0000                	unimp
 a22:	0000                	unimp
 a24:	0000                	unimp
 a26:	0000                	unimp
 a28:	0000                	unimp
 a2a:	0000                	unimp
 a2c:	0000                	unimp
 a2e:	0000                	unimp
 a30:	0000                	unimp
 a32:	0000                	unimp
 a34:	0000                	unimp
 a36:	0000                	unimp
 a38:	0000                	unimp
 a3a:	0000                	unimp
