
rv64uc-p-rvc:     file format elf64-littleriscv


Disassembly of section .text.init:

0000000000000000 <_start>:
       0:	0480006f          	j	48 <reset_vector>

0000000000000004 <trap_vector>:
       4:	34202f73          	csrr	t5,mcause
       8:	00800f93          	li	t6,8
       c:	03ff0863          	beq	t5,t6,3c <write_tohost>
      10:	00900f93          	li	t6,9
      14:	03ff0463          	beq	t5,t6,3c <write_tohost>
      18:	00b00f93          	li	t6,11
      1c:	03ff0063          	beq	t5,t6,3c <write_tohost>
      20:	00000f13          	li	t5,0
      24:	000f0463          	beqz	t5,2c <trap_vector+0x28>
      28:	000f0067          	jr	t5
      2c:	34202f73          	csrr	t5,mcause
      30:	000f5463          	bgez	t5,38 <handle_exception>
      34:	0040006f          	j	38 <handle_exception>

0000000000000038 <handle_exception>:
      38:	5391e193          	ori	gp,gp,1337

000000000000003c <write_tohost>:
      3c:	00003f17          	auipc	t5,0x3
      40:	fc3f2223          	sw	gp,-60(t5) # 3000 <tohost>
      44:	ff9ff06f          	j	3c <write_tohost>

0000000000000048 <reset_vector>:
      48:	00000093          	li	ra,0
      4c:	00000113          	li	sp,0
      50:	00000193          	li	gp,0
      54:	00000213          	li	tp,0
      58:	00000293          	li	t0,0
      5c:	00000313          	li	t1,0
      60:	00000393          	li	t2,0
      64:	00000413          	li	s0,0
      68:	00000493          	li	s1,0
      6c:	00000513          	li	a0,0
      70:	00000593          	li	a1,0
      74:	00000613          	li	a2,0
      78:	00000693          	li	a3,0
      7c:	00000713          	li	a4,0
      80:	00000793          	li	a5,0
      84:	00000813          	li	a6,0
      88:	00000893          	li	a7,0
      8c:	00000913          	li	s2,0
      90:	00000993          	li	s3,0
      94:	00000a13          	li	s4,0
      98:	00000a93          	li	s5,0
      9c:	00000b13          	li	s6,0
      a0:	00000b93          	li	s7,0
      a4:	00000c13          	li	s8,0
      a8:	00000c93          	li	s9,0
      ac:	00000d13          	li	s10,0
      b0:	00000d93          	li	s11,0
      b4:	00000e13          	li	t3,0
      b8:	00000e93          	li	t4,0
      bc:	00000f13          	li	t5,0
      c0:	00000f93          	li	t6,0
      c4:	f1402573          	csrr	a0,mhartid
      c8:	00051063          	bnez	a0,c8 <reset_vector+0x80>
      cc:	00000297          	auipc	t0,0x0
      d0:	01028293          	addi	t0,t0,16 # dc <reset_vector+0x94>
      d4:	30529073          	csrw	mtvec,t0
      d8:	18005073          	csrwi	satp,0
      dc:	00000297          	auipc	t0,0x0
      e0:	02428293          	addi	t0,t0,36 # 100 <reset_vector+0xb8>
      e4:	30529073          	csrw	mtvec,t0
      e8:	0010029b          	addiw	t0,zero,1
      ec:	03529293          	slli	t0,t0,0x35
      f0:	fff28293          	addi	t0,t0,-1
      f4:	3b029073          	csrw	pmpaddr0,t0
      f8:	01f00293          	li	t0,31
      fc:	3a029073          	csrw	pmpcfg0,t0
     100:	30405073          	csrwi	mie,0
     104:	00000297          	auipc	t0,0x0
     108:	01428293          	addi	t0,t0,20 # 118 <reset_vector+0xd0>
     10c:	30529073          	csrw	mtvec,t0
     110:	30205073          	csrwi	medeleg,0
     114:	30305073          	csrwi	mideleg,0
     118:	00000193          	li	gp,0
     11c:	00000297          	auipc	t0,0x0
     120:	ee828293          	addi	t0,t0,-280 # 4 <trap_vector>
     124:	30529073          	csrw	mtvec,t0
     128:	00100513          	li	a0,1
     12c:	01f51513          	slli	a0,a0,0x1f
     130:	00055c63          	bgez	a0,148 <reset_vector+0x100>
     134:	0ff0000f          	fence
     138:	00100193          	li	gp,1
     13c:	05d00893          	li	a7,93
     140:	00000513          	li	a0,0
     144:	00000073          	ecall
     148:	00000293          	li	t0,0
     14c:	00028a63          	beqz	t0,160 <reset_vector+0x118>
     150:	10529073          	csrw	stvec,t0
     154:	0000b2b7          	lui	t0,0xb
     158:	1092829b          	addiw	t0,t0,265
     15c:	30229073          	csrw	medeleg,t0
     160:	30005073          	csrwi	mstatus,0
     164:	00000297          	auipc	t0,0x0
     168:	01428293          	addi	t0,t0,20 # 178 <reset_vector+0x130>
     16c:	34129073          	csrw	mepc,t0
     170:	f1402573          	csrr	a0,mhartid
     174:	30200073          	mret
     178:	00200193          	li	gp,2
     17c:	29a00593          	li	a1,666

0000000000000180 <test_2>:
     180:	67f0106f          	j	1ffe <data+0x1e76>
     184:	00000013          	nop

0000000000000188 <data>:
     188:	3210                	fld	fa2,32(a2)
     18a:	7654                	ld	a3,168(a2)
     18c:	ba98                	fsd	fa4,48(a3)
     18e:	fedc                	sd	a5,184(a3)
     190:	3210                	fld	fa2,32(a2)
     192:	7654                	ld	a3,168(a2)
     194:	ba98                	fsd	fa4,48(a3)
     196:	fedc                	sd	a5,184(a3)
     198:	00000013          	nop
     19c:	00000013          	nop
     1a0:	00000013          	nop
     1a4:	00000013          	nop
     1a8:	00000013          	nop
     1ac:	00000013          	nop
     1b0:	00000013          	nop
     1b4:	00000013          	nop
     1b8:	00000013          	nop
     1bc:	00000013          	nop
     1c0:	00000013          	nop
     1c4:	00000013          	nop
     1c8:	00000013          	nop
     1cc:	00000013          	nop
     1d0:	00000013          	nop
     1d4:	00000013          	nop
     1d8:	00000013          	nop
     1dc:	00000013          	nop
     1e0:	00000013          	nop
     1e4:	00000013          	nop
     1e8:	00000013          	nop
     1ec:	00000013          	nop
     1f0:	00000013          	nop
     1f4:	00000013          	nop
     1f8:	00000013          	nop
     1fc:	00000013          	nop
     200:	00000013          	nop
     204:	00000013          	nop
     208:	00000013          	nop
     20c:	00000013          	nop
     210:	00000013          	nop
     214:	00000013          	nop
     218:	00000013          	nop
     21c:	00000013          	nop
     220:	00000013          	nop
     224:	00000013          	nop
     228:	00000013          	nop
     22c:	00000013          	nop
     230:	00000013          	nop
     234:	00000013          	nop
     238:	00000013          	nop
     23c:	00000013          	nop
     240:	00000013          	nop
     244:	00000013          	nop
     248:	00000013          	nop
     24c:	00000013          	nop
     250:	00000013          	nop
     254:	00000013          	nop
     258:	00000013          	nop
     25c:	00000013          	nop
     260:	00000013          	nop
     264:	00000013          	nop
     268:	00000013          	nop
     26c:	00000013          	nop
     270:	00000013          	nop
     274:	00000013          	nop
     278:	00000013          	nop
     27c:	00000013          	nop
     280:	00000013          	nop
     284:	00000013          	nop
     288:	00000013          	nop
     28c:	00000013          	nop
     290:	00000013          	nop
     294:	00000013          	nop
     298:	00000013          	nop
     29c:	00000013          	nop
     2a0:	00000013          	nop
     2a4:	00000013          	nop
     2a8:	00000013          	nop
     2ac:	00000013          	nop
     2b0:	00000013          	nop
     2b4:	00000013          	nop
     2b8:	00000013          	nop
     2bc:	00000013          	nop
     2c0:	00000013          	nop
     2c4:	00000013          	nop
     2c8:	00000013          	nop
     2cc:	00000013          	nop
     2d0:	00000013          	nop
     2d4:	00000013          	nop
     2d8:	00000013          	nop
     2dc:	00000013          	nop
     2e0:	00000013          	nop
     2e4:	00000013          	nop
     2e8:	00000013          	nop
     2ec:	00000013          	nop
     2f0:	00000013          	nop
     2f4:	00000013          	nop
     2f8:	00000013          	nop
     2fc:	00000013          	nop
     300:	00000013          	nop
     304:	00000013          	nop
     308:	00000013          	nop
     30c:	00000013          	nop
     310:	00000013          	nop
     314:	00000013          	nop
     318:	00000013          	nop
     31c:	00000013          	nop
     320:	00000013          	nop
     324:	00000013          	nop
     328:	00000013          	nop
     32c:	00000013          	nop
     330:	00000013          	nop
     334:	00000013          	nop
     338:	00000013          	nop
     33c:	00000013          	nop
     340:	00000013          	nop
     344:	00000013          	nop
     348:	00000013          	nop
     34c:	00000013          	nop
     350:	00000013          	nop
     354:	00000013          	nop
     358:	00000013          	nop
     35c:	00000013          	nop
     360:	00000013          	nop
     364:	00000013          	nop
     368:	00000013          	nop
     36c:	00000013          	nop
     370:	00000013          	nop
     374:	00000013          	nop
     378:	00000013          	nop
     37c:	00000013          	nop
     380:	00000013          	nop
     384:	00000013          	nop
     388:	00000013          	nop
     38c:	00000013          	nop
     390:	00000013          	nop
     394:	00000013          	nop
     398:	00000013          	nop
     39c:	00000013          	nop
     3a0:	00000013          	nop
     3a4:	00000013          	nop
     3a8:	00000013          	nop
     3ac:	00000013          	nop
     3b0:	00000013          	nop
     3b4:	00000013          	nop
     3b8:	00000013          	nop
     3bc:	00000013          	nop
     3c0:	00000013          	nop
     3c4:	00000013          	nop
     3c8:	00000013          	nop
     3cc:	00000013          	nop
     3d0:	00000013          	nop
     3d4:	00000013          	nop
     3d8:	00000013          	nop
     3dc:	00000013          	nop
     3e0:	00000013          	nop
     3e4:	00000013          	nop
     3e8:	00000013          	nop
     3ec:	00000013          	nop
     3f0:	00000013          	nop
     3f4:	00000013          	nop
     3f8:	00000013          	nop
     3fc:	00000013          	nop
     400:	00000013          	nop
     404:	00000013          	nop
     408:	00000013          	nop
     40c:	00000013          	nop
     410:	00000013          	nop
     414:	00000013          	nop
     418:	00000013          	nop
     41c:	00000013          	nop
     420:	00000013          	nop
     424:	00000013          	nop
     428:	00000013          	nop
     42c:	00000013          	nop
     430:	00000013          	nop
     434:	00000013          	nop
     438:	00000013          	nop
     43c:	00000013          	nop
     440:	00000013          	nop
     444:	00000013          	nop
     448:	00000013          	nop
     44c:	00000013          	nop
     450:	00000013          	nop
     454:	00000013          	nop
     458:	00000013          	nop
     45c:	00000013          	nop
     460:	00000013          	nop
     464:	00000013          	nop
     468:	00000013          	nop
     46c:	00000013          	nop
     470:	00000013          	nop
     474:	00000013          	nop
     478:	00000013          	nop
     47c:	00000013          	nop
     480:	00000013          	nop
     484:	00000013          	nop
     488:	00000013          	nop
     48c:	00000013          	nop
     490:	00000013          	nop
     494:	00000013          	nop
     498:	00000013          	nop
     49c:	00000013          	nop
     4a0:	00000013          	nop
     4a4:	00000013          	nop
     4a8:	00000013          	nop
     4ac:	00000013          	nop
     4b0:	00000013          	nop
     4b4:	00000013          	nop
     4b8:	00000013          	nop
     4bc:	00000013          	nop
     4c0:	00000013          	nop
     4c4:	00000013          	nop
     4c8:	00000013          	nop
     4cc:	00000013          	nop
     4d0:	00000013          	nop
     4d4:	00000013          	nop
     4d8:	00000013          	nop
     4dc:	00000013          	nop
     4e0:	00000013          	nop
     4e4:	00000013          	nop
     4e8:	00000013          	nop
     4ec:	00000013          	nop
     4f0:	00000013          	nop
     4f4:	00000013          	nop
     4f8:	00000013          	nop
     4fc:	00000013          	nop
     500:	00000013          	nop
     504:	00000013          	nop
     508:	00000013          	nop
     50c:	00000013          	nop
     510:	00000013          	nop
     514:	00000013          	nop
     518:	00000013          	nop
     51c:	00000013          	nop
     520:	00000013          	nop
     524:	00000013          	nop
     528:	00000013          	nop
     52c:	00000013          	nop
     530:	00000013          	nop
     534:	00000013          	nop
     538:	00000013          	nop
     53c:	00000013          	nop
     540:	00000013          	nop
     544:	00000013          	nop
     548:	00000013          	nop
     54c:	00000013          	nop
     550:	00000013          	nop
     554:	00000013          	nop
     558:	00000013          	nop
     55c:	00000013          	nop
     560:	00000013          	nop
     564:	00000013          	nop
     568:	00000013          	nop
     56c:	00000013          	nop
     570:	00000013          	nop
     574:	00000013          	nop
     578:	00000013          	nop
     57c:	00000013          	nop
     580:	00000013          	nop
     584:	00000013          	nop
     588:	00000013          	nop
     58c:	00000013          	nop
     590:	00000013          	nop
     594:	00000013          	nop
     598:	00000013          	nop
     59c:	00000013          	nop
     5a0:	00000013          	nop
     5a4:	00000013          	nop
     5a8:	00000013          	nop
     5ac:	00000013          	nop
     5b0:	00000013          	nop
     5b4:	00000013          	nop
     5b8:	00000013          	nop
     5bc:	00000013          	nop
     5c0:	00000013          	nop
     5c4:	00000013          	nop
     5c8:	00000013          	nop
     5cc:	00000013          	nop
     5d0:	00000013          	nop
     5d4:	00000013          	nop
     5d8:	00000013          	nop
     5dc:	00000013          	nop
     5e0:	00000013          	nop
     5e4:	00000013          	nop
     5e8:	00000013          	nop
     5ec:	00000013          	nop
     5f0:	00000013          	nop
     5f4:	00000013          	nop
     5f8:	00000013          	nop
     5fc:	00000013          	nop
     600:	00000013          	nop
     604:	00000013          	nop
     608:	00000013          	nop
     60c:	00000013          	nop
     610:	00000013          	nop
     614:	00000013          	nop
     618:	00000013          	nop
     61c:	00000013          	nop
     620:	00000013          	nop
     624:	00000013          	nop
     628:	00000013          	nop
     62c:	00000013          	nop
     630:	00000013          	nop
     634:	00000013          	nop
     638:	00000013          	nop
     63c:	00000013          	nop
     640:	00000013          	nop
     644:	00000013          	nop
     648:	00000013          	nop
     64c:	00000013          	nop
     650:	00000013          	nop
     654:	00000013          	nop
     658:	00000013          	nop
     65c:	00000013          	nop
     660:	00000013          	nop
     664:	00000013          	nop
     668:	00000013          	nop
     66c:	00000013          	nop
     670:	00000013          	nop
     674:	00000013          	nop
     678:	00000013          	nop
     67c:	00000013          	nop
     680:	00000013          	nop
     684:	00000013          	nop
     688:	00000013          	nop
     68c:	00000013          	nop
     690:	00000013          	nop
     694:	00000013          	nop
     698:	00000013          	nop
     69c:	00000013          	nop
     6a0:	00000013          	nop
     6a4:	00000013          	nop
     6a8:	00000013          	nop
     6ac:	00000013          	nop
     6b0:	00000013          	nop
     6b4:	00000013          	nop
     6b8:	00000013          	nop
     6bc:	00000013          	nop
     6c0:	00000013          	nop
     6c4:	00000013          	nop
     6c8:	00000013          	nop
     6cc:	00000013          	nop
     6d0:	00000013          	nop
     6d4:	00000013          	nop
     6d8:	00000013          	nop
     6dc:	00000013          	nop
     6e0:	00000013          	nop
     6e4:	00000013          	nop
     6e8:	00000013          	nop
     6ec:	00000013          	nop
     6f0:	00000013          	nop
     6f4:	00000013          	nop
     6f8:	00000013          	nop
     6fc:	00000013          	nop
     700:	00000013          	nop
     704:	00000013          	nop
     708:	00000013          	nop
     70c:	00000013          	nop
     710:	00000013          	nop
     714:	00000013          	nop
     718:	00000013          	nop
     71c:	00000013          	nop
     720:	00000013          	nop
     724:	00000013          	nop
     728:	00000013          	nop
     72c:	00000013          	nop
     730:	00000013          	nop
     734:	00000013          	nop
     738:	00000013          	nop
     73c:	00000013          	nop
     740:	00000013          	nop
     744:	00000013          	nop
     748:	00000013          	nop
     74c:	00000013          	nop
     750:	00000013          	nop
     754:	00000013          	nop
     758:	00000013          	nop
     75c:	00000013          	nop
     760:	00000013          	nop
     764:	00000013          	nop
     768:	00000013          	nop
     76c:	00000013          	nop
     770:	00000013          	nop
     774:	00000013          	nop
     778:	00000013          	nop
     77c:	00000013          	nop
     780:	00000013          	nop
     784:	00000013          	nop
     788:	00000013          	nop
     78c:	00000013          	nop
     790:	00000013          	nop
     794:	00000013          	nop
     798:	00000013          	nop
     79c:	00000013          	nop
     7a0:	00000013          	nop
     7a4:	00000013          	nop
     7a8:	00000013          	nop
     7ac:	00000013          	nop
     7b0:	00000013          	nop
     7b4:	00000013          	nop
     7b8:	00000013          	nop
     7bc:	00000013          	nop
     7c0:	00000013          	nop
     7c4:	00000013          	nop
     7c8:	00000013          	nop
     7cc:	00000013          	nop
     7d0:	00000013          	nop
     7d4:	00000013          	nop
     7d8:	00000013          	nop
     7dc:	00000013          	nop
     7e0:	00000013          	nop
     7e4:	00000013          	nop
     7e8:	00000013          	nop
     7ec:	00000013          	nop
     7f0:	00000013          	nop
     7f4:	00000013          	nop
     7f8:	00000013          	nop
     7fc:	00000013          	nop
     800:	00000013          	nop
     804:	00000013          	nop
     808:	00000013          	nop
     80c:	00000013          	nop
     810:	00000013          	nop
     814:	00000013          	nop
     818:	00000013          	nop
     81c:	00000013          	nop
     820:	00000013          	nop
     824:	00000013          	nop
     828:	00000013          	nop
     82c:	00000013          	nop
     830:	00000013          	nop
     834:	00000013          	nop
     838:	00000013          	nop
     83c:	00000013          	nop
     840:	00000013          	nop
     844:	00000013          	nop
     848:	00000013          	nop
     84c:	00000013          	nop
     850:	00000013          	nop
     854:	00000013          	nop
     858:	00000013          	nop
     85c:	00000013          	nop
     860:	00000013          	nop
     864:	00000013          	nop
     868:	00000013          	nop
     86c:	00000013          	nop
     870:	00000013          	nop
     874:	00000013          	nop
     878:	00000013          	nop
     87c:	00000013          	nop
     880:	00000013          	nop
     884:	00000013          	nop
     888:	00000013          	nop
     88c:	00000013          	nop
     890:	00000013          	nop
     894:	00000013          	nop
     898:	00000013          	nop
     89c:	00000013          	nop
     8a0:	00000013          	nop
     8a4:	00000013          	nop
     8a8:	00000013          	nop
     8ac:	00000013          	nop
     8b0:	00000013          	nop
     8b4:	00000013          	nop
     8b8:	00000013          	nop
     8bc:	00000013          	nop
     8c0:	00000013          	nop
     8c4:	00000013          	nop
     8c8:	00000013          	nop
     8cc:	00000013          	nop
     8d0:	00000013          	nop
     8d4:	00000013          	nop
     8d8:	00000013          	nop
     8dc:	00000013          	nop
     8e0:	00000013          	nop
     8e4:	00000013          	nop
     8e8:	00000013          	nop
     8ec:	00000013          	nop
     8f0:	00000013          	nop
     8f4:	00000013          	nop
     8f8:	00000013          	nop
     8fc:	00000013          	nop
     900:	00000013          	nop
     904:	00000013          	nop
     908:	00000013          	nop
     90c:	00000013          	nop
     910:	00000013          	nop
     914:	00000013          	nop
     918:	00000013          	nop
     91c:	00000013          	nop
     920:	00000013          	nop
     924:	00000013          	nop
     928:	00000013          	nop
     92c:	00000013          	nop
     930:	00000013          	nop
     934:	00000013          	nop
     938:	00000013          	nop
     93c:	00000013          	nop
     940:	00000013          	nop
     944:	00000013          	nop
     948:	00000013          	nop
     94c:	00000013          	nop
     950:	00000013          	nop
     954:	00000013          	nop
     958:	00000013          	nop
     95c:	00000013          	nop
     960:	00000013          	nop
     964:	00000013          	nop
     968:	00000013          	nop
     96c:	00000013          	nop
     970:	00000013          	nop
     974:	00000013          	nop
     978:	00000013          	nop
     97c:	00000013          	nop
     980:	00000013          	nop
     984:	00000013          	nop
     988:	00000013          	nop
     98c:	00000013          	nop
     990:	00000013          	nop
     994:	00000013          	nop
     998:	00000013          	nop
     99c:	00000013          	nop
     9a0:	00000013          	nop
     9a4:	00000013          	nop
     9a8:	00000013          	nop
     9ac:	00000013          	nop
     9b0:	00000013          	nop
     9b4:	00000013          	nop
     9b8:	00000013          	nop
     9bc:	00000013          	nop
     9c0:	00000013          	nop
     9c4:	00000013          	nop
     9c8:	00000013          	nop
     9cc:	00000013          	nop
     9d0:	00000013          	nop
     9d4:	00000013          	nop
     9d8:	00000013          	nop
     9dc:	00000013          	nop
     9e0:	00000013          	nop
     9e4:	00000013          	nop
     9e8:	00000013          	nop
     9ec:	00000013          	nop
     9f0:	00000013          	nop
     9f4:	00000013          	nop
     9f8:	00000013          	nop
     9fc:	00000013          	nop
     a00:	00000013          	nop
     a04:	00000013          	nop
     a08:	00000013          	nop
     a0c:	00000013          	nop
     a10:	00000013          	nop
     a14:	00000013          	nop
     a18:	00000013          	nop
     a1c:	00000013          	nop
     a20:	00000013          	nop
     a24:	00000013          	nop
     a28:	00000013          	nop
     a2c:	00000013          	nop
     a30:	00000013          	nop
     a34:	00000013          	nop
     a38:	00000013          	nop
     a3c:	00000013          	nop
     a40:	00000013          	nop
     a44:	00000013          	nop
     a48:	00000013          	nop
     a4c:	00000013          	nop
     a50:	00000013          	nop
     a54:	00000013          	nop
     a58:	00000013          	nop
     a5c:	00000013          	nop
     a60:	00000013          	nop
     a64:	00000013          	nop
     a68:	00000013          	nop
     a6c:	00000013          	nop
     a70:	00000013          	nop
     a74:	00000013          	nop
     a78:	00000013          	nop
     a7c:	00000013          	nop
     a80:	00000013          	nop
     a84:	00000013          	nop
     a88:	00000013          	nop
     a8c:	00000013          	nop
     a90:	00000013          	nop
     a94:	00000013          	nop
     a98:	00000013          	nop
     a9c:	00000013          	nop
     aa0:	00000013          	nop
     aa4:	00000013          	nop
     aa8:	00000013          	nop
     aac:	00000013          	nop
     ab0:	00000013          	nop
     ab4:	00000013          	nop
     ab8:	00000013          	nop
     abc:	00000013          	nop
     ac0:	00000013          	nop
     ac4:	00000013          	nop
     ac8:	00000013          	nop
     acc:	00000013          	nop
     ad0:	00000013          	nop
     ad4:	00000013          	nop
     ad8:	00000013          	nop
     adc:	00000013          	nop
     ae0:	00000013          	nop
     ae4:	00000013          	nop
     ae8:	00000013          	nop
     aec:	00000013          	nop
     af0:	00000013          	nop
     af4:	00000013          	nop
     af8:	00000013          	nop
     afc:	00000013          	nop
     b00:	00000013          	nop
     b04:	00000013          	nop
     b08:	00000013          	nop
     b0c:	00000013          	nop
     b10:	00000013          	nop
     b14:	00000013          	nop
     b18:	00000013          	nop
     b1c:	00000013          	nop
     b20:	00000013          	nop
     b24:	00000013          	nop
     b28:	00000013          	nop
     b2c:	00000013          	nop
     b30:	00000013          	nop
     b34:	00000013          	nop
     b38:	00000013          	nop
     b3c:	00000013          	nop
     b40:	00000013          	nop
     b44:	00000013          	nop
     b48:	00000013          	nop
     b4c:	00000013          	nop
     b50:	00000013          	nop
     b54:	00000013          	nop
     b58:	00000013          	nop
     b5c:	00000013          	nop
     b60:	00000013          	nop
     b64:	00000013          	nop
     b68:	00000013          	nop
     b6c:	00000013          	nop
     b70:	00000013          	nop
     b74:	00000013          	nop
     b78:	00000013          	nop
     b7c:	00000013          	nop
     b80:	00000013          	nop
     b84:	00000013          	nop
     b88:	00000013          	nop
     b8c:	00000013          	nop
     b90:	00000013          	nop
     b94:	00000013          	nop
     b98:	00000013          	nop
     b9c:	00000013          	nop
     ba0:	00000013          	nop
     ba4:	00000013          	nop
     ba8:	00000013          	nop
     bac:	00000013          	nop
     bb0:	00000013          	nop
     bb4:	00000013          	nop
     bb8:	00000013          	nop
     bbc:	00000013          	nop
     bc0:	00000013          	nop
     bc4:	00000013          	nop
     bc8:	00000013          	nop
     bcc:	00000013          	nop
     bd0:	00000013          	nop
     bd4:	00000013          	nop
     bd8:	00000013          	nop
     bdc:	00000013          	nop
     be0:	00000013          	nop
     be4:	00000013          	nop
     be8:	00000013          	nop
     bec:	00000013          	nop
     bf0:	00000013          	nop
     bf4:	00000013          	nop
     bf8:	00000013          	nop
     bfc:	00000013          	nop
     c00:	00000013          	nop
     c04:	00000013          	nop
     c08:	00000013          	nop
     c0c:	00000013          	nop
     c10:	00000013          	nop
     c14:	00000013          	nop
     c18:	00000013          	nop
     c1c:	00000013          	nop
     c20:	00000013          	nop
     c24:	00000013          	nop
     c28:	00000013          	nop
     c2c:	00000013          	nop
     c30:	00000013          	nop
     c34:	00000013          	nop
     c38:	00000013          	nop
     c3c:	00000013          	nop
     c40:	00000013          	nop
     c44:	00000013          	nop
     c48:	00000013          	nop
     c4c:	00000013          	nop
     c50:	00000013          	nop
     c54:	00000013          	nop
     c58:	00000013          	nop
     c5c:	00000013          	nop
     c60:	00000013          	nop
     c64:	00000013          	nop
     c68:	00000013          	nop
     c6c:	00000013          	nop
     c70:	00000013          	nop
     c74:	00000013          	nop
     c78:	00000013          	nop
     c7c:	00000013          	nop
     c80:	00000013          	nop
     c84:	00000013          	nop
     c88:	00000013          	nop
     c8c:	00000013          	nop
     c90:	00000013          	nop
     c94:	00000013          	nop
     c98:	00000013          	nop
     c9c:	00000013          	nop
     ca0:	00000013          	nop
     ca4:	00000013          	nop
     ca8:	00000013          	nop
     cac:	00000013          	nop
     cb0:	00000013          	nop
     cb4:	00000013          	nop
     cb8:	00000013          	nop
     cbc:	00000013          	nop
     cc0:	00000013          	nop
     cc4:	00000013          	nop
     cc8:	00000013          	nop
     ccc:	00000013          	nop
     cd0:	00000013          	nop
     cd4:	00000013          	nop
     cd8:	00000013          	nop
     cdc:	00000013          	nop
     ce0:	00000013          	nop
     ce4:	00000013          	nop
     ce8:	00000013          	nop
     cec:	00000013          	nop
     cf0:	00000013          	nop
     cf4:	00000013          	nop
     cf8:	00000013          	nop
     cfc:	00000013          	nop
     d00:	00000013          	nop
     d04:	00000013          	nop
     d08:	00000013          	nop
     d0c:	00000013          	nop
     d10:	00000013          	nop
     d14:	00000013          	nop
     d18:	00000013          	nop
     d1c:	00000013          	nop
     d20:	00000013          	nop
     d24:	00000013          	nop
     d28:	00000013          	nop
     d2c:	00000013          	nop
     d30:	00000013          	nop
     d34:	00000013          	nop
     d38:	00000013          	nop
     d3c:	00000013          	nop
     d40:	00000013          	nop
     d44:	00000013          	nop
     d48:	00000013          	nop
     d4c:	00000013          	nop
     d50:	00000013          	nop
     d54:	00000013          	nop
     d58:	00000013          	nop
     d5c:	00000013          	nop
     d60:	00000013          	nop
     d64:	00000013          	nop
     d68:	00000013          	nop
     d6c:	00000013          	nop
     d70:	00000013          	nop
     d74:	00000013          	nop
     d78:	00000013          	nop
     d7c:	00000013          	nop
     d80:	00000013          	nop
     d84:	00000013          	nop
     d88:	00000013          	nop
     d8c:	00000013          	nop
     d90:	00000013          	nop
     d94:	00000013          	nop
     d98:	00000013          	nop
     d9c:	00000013          	nop
     da0:	00000013          	nop
     da4:	00000013          	nop
     da8:	00000013          	nop
     dac:	00000013          	nop
     db0:	00000013          	nop
     db4:	00000013          	nop
     db8:	00000013          	nop
     dbc:	00000013          	nop
     dc0:	00000013          	nop
     dc4:	00000013          	nop
     dc8:	00000013          	nop
     dcc:	00000013          	nop
     dd0:	00000013          	nop
     dd4:	00000013          	nop
     dd8:	00000013          	nop
     ddc:	00000013          	nop
     de0:	00000013          	nop
     de4:	00000013          	nop
     de8:	00000013          	nop
     dec:	00000013          	nop
     df0:	00000013          	nop
     df4:	00000013          	nop
     df8:	00000013          	nop
     dfc:	00000013          	nop
     e00:	00000013          	nop
     e04:	00000013          	nop
     e08:	00000013          	nop
     e0c:	00000013          	nop
     e10:	00000013          	nop
     e14:	00000013          	nop
     e18:	00000013          	nop
     e1c:	00000013          	nop
     e20:	00000013          	nop
     e24:	00000013          	nop
     e28:	00000013          	nop
     e2c:	00000013          	nop
     e30:	00000013          	nop
     e34:	00000013          	nop
     e38:	00000013          	nop
     e3c:	00000013          	nop
     e40:	00000013          	nop
     e44:	00000013          	nop
     e48:	00000013          	nop
     e4c:	00000013          	nop
     e50:	00000013          	nop
     e54:	00000013          	nop
     e58:	00000013          	nop
     e5c:	00000013          	nop
     e60:	00000013          	nop
     e64:	00000013          	nop
     e68:	00000013          	nop
     e6c:	00000013          	nop
     e70:	00000013          	nop
     e74:	00000013          	nop
     e78:	00000013          	nop
     e7c:	00000013          	nop
     e80:	00000013          	nop
     e84:	00000013          	nop
     e88:	00000013          	nop
     e8c:	00000013          	nop
     e90:	00000013          	nop
     e94:	00000013          	nop
     e98:	00000013          	nop
     e9c:	00000013          	nop
     ea0:	00000013          	nop
     ea4:	00000013          	nop
     ea8:	00000013          	nop
     eac:	00000013          	nop
     eb0:	00000013          	nop
     eb4:	00000013          	nop
     eb8:	00000013          	nop
     ebc:	00000013          	nop
     ec0:	00000013          	nop
     ec4:	00000013          	nop
     ec8:	00000013          	nop
     ecc:	00000013          	nop
     ed0:	00000013          	nop
     ed4:	00000013          	nop
     ed8:	00000013          	nop
     edc:	00000013          	nop
     ee0:	00000013          	nop
     ee4:	00000013          	nop
     ee8:	00000013          	nop
     eec:	00000013          	nop
     ef0:	00000013          	nop
     ef4:	00000013          	nop
     ef8:	00000013          	nop
     efc:	00000013          	nop
     f00:	00000013          	nop
     f04:	00000013          	nop
     f08:	00000013          	nop
     f0c:	00000013          	nop
     f10:	00000013          	nop
     f14:	00000013          	nop
     f18:	00000013          	nop
     f1c:	00000013          	nop
     f20:	00000013          	nop
     f24:	00000013          	nop
     f28:	00000013          	nop
     f2c:	00000013          	nop
     f30:	00000013          	nop
     f34:	00000013          	nop
     f38:	00000013          	nop
     f3c:	00000013          	nop
     f40:	00000013          	nop
     f44:	00000013          	nop
     f48:	00000013          	nop
     f4c:	00000013          	nop
     f50:	00000013          	nop
     f54:	00000013          	nop
     f58:	00000013          	nop
     f5c:	00000013          	nop
     f60:	00000013          	nop
     f64:	00000013          	nop
     f68:	00000013          	nop
     f6c:	00000013          	nop
     f70:	00000013          	nop
     f74:	00000013          	nop
     f78:	00000013          	nop
     f7c:	00000013          	nop
     f80:	00000013          	nop
     f84:	00000013          	nop
     f88:	00000013          	nop
     f8c:	00000013          	nop
     f90:	00000013          	nop
     f94:	00000013          	nop
     f98:	00000013          	nop
     f9c:	00000013          	nop
     fa0:	00000013          	nop
     fa4:	00000013          	nop
     fa8:	00000013          	nop
     fac:	00000013          	nop
     fb0:	00000013          	nop
     fb4:	00000013          	nop
     fb8:	00000013          	nop
     fbc:	00000013          	nop
     fc0:	00000013          	nop
     fc4:	00000013          	nop
     fc8:	00000013          	nop
     fcc:	00000013          	nop
     fd0:	00000013          	nop
     fd4:	00000013          	nop
     fd8:	00000013          	nop
     fdc:	00000013          	nop
     fe0:	00000013          	nop
     fe4:	00000013          	nop
     fe8:	00000013          	nop
     fec:	00000013          	nop
     ff0:	00000013          	nop
     ff4:	00000013          	nop
     ff8:	00000013          	nop
     ffc:	00000013          	nop
    1000:	0000                	unimp
    1002:	0000                	unimp
    1004:	0000                	unimp
    1006:	0000                	unimp
    1008:	0000                	unimp
    100a:	0000                	unimp
    100c:	0000                	unimp
    100e:	0000                	unimp
    1010:	0000                	unimp
    1012:	0000                	unimp
    1014:	0000                	unimp
    1016:	0000                	unimp
    1018:	0000                	unimp
    101a:	0000                	unimp
    101c:	0000                	unimp
    101e:	0000                	unimp
    1020:	0000                	unimp
    1022:	0000                	unimp
    1024:	0000                	unimp
    1026:	0000                	unimp
    1028:	0000                	unimp
    102a:	0000                	unimp
    102c:	0000                	unimp
    102e:	0000                	unimp
    1030:	0000                	unimp
    1032:	0000                	unimp
    1034:	0000                	unimp
    1036:	0000                	unimp
    1038:	0000                	unimp
    103a:	0000                	unimp
    103c:	0000                	unimp
    103e:	0000                	unimp
    1040:	0000                	unimp
    1042:	0000                	unimp
    1044:	0000                	unimp
    1046:	0000                	unimp
    1048:	0000                	unimp
    104a:	0000                	unimp
    104c:	0000                	unimp
    104e:	0000                	unimp
    1050:	0000                	unimp
    1052:	0000                	unimp
    1054:	0000                	unimp
    1056:	0000                	unimp
    1058:	0000                	unimp
    105a:	0000                	unimp
    105c:	0000                	unimp
    105e:	0000                	unimp
    1060:	0000                	unimp
    1062:	0000                	unimp
    1064:	0000                	unimp
    1066:	0000                	unimp
    1068:	0000                	unimp
    106a:	0000                	unimp
    106c:	0000                	unimp
    106e:	0000                	unimp
    1070:	0000                	unimp
    1072:	0000                	unimp
    1074:	0000                	unimp
    1076:	0000                	unimp
    1078:	0000                	unimp
    107a:	0000                	unimp
    107c:	0000                	unimp
    107e:	0000                	unimp
    1080:	0000                	unimp
    1082:	0000                	unimp
    1084:	0000                	unimp
    1086:	0000                	unimp
    1088:	0000                	unimp
    108a:	0000                	unimp
    108c:	0000                	unimp
    108e:	0000                	unimp
    1090:	0000                	unimp
    1092:	0000                	unimp
    1094:	0000                	unimp
    1096:	0000                	unimp
    1098:	0000                	unimp
    109a:	0000                	unimp
    109c:	0000                	unimp
    109e:	0000                	unimp
    10a0:	0000                	unimp
    10a2:	0000                	unimp
    10a4:	0000                	unimp
    10a6:	0000                	unimp
    10a8:	0000                	unimp
    10aa:	0000                	unimp
    10ac:	0000                	unimp
    10ae:	0000                	unimp
    10b0:	0000                	unimp
    10b2:	0000                	unimp
    10b4:	0000                	unimp
    10b6:	0000                	unimp
    10b8:	0000                	unimp
    10ba:	0000                	unimp
    10bc:	0000                	unimp
    10be:	0000                	unimp
    10c0:	0000                	unimp
    10c2:	0000                	unimp
    10c4:	0000                	unimp
    10c6:	0000                	unimp
    10c8:	0000                	unimp
    10ca:	0000                	unimp
    10cc:	0000                	unimp
    10ce:	0000                	unimp
    10d0:	0000                	unimp
    10d2:	0000                	unimp
    10d4:	0000                	unimp
    10d6:	0000                	unimp
    10d8:	0000                	unimp
    10da:	0000                	unimp
    10dc:	0000                	unimp
    10de:	0000                	unimp
    10e0:	0000                	unimp
    10e2:	0000                	unimp
    10e4:	0000                	unimp
    10e6:	0000                	unimp
    10e8:	0000                	unimp
    10ea:	0000                	unimp
    10ec:	0000                	unimp
    10ee:	0000                	unimp
    10f0:	0000                	unimp
    10f2:	0000                	unimp
    10f4:	0000                	unimp
    10f6:	0000                	unimp
    10f8:	0000                	unimp
    10fa:	0000                	unimp
    10fc:	0000                	unimp
    10fe:	0000                	unimp
    1100:	0000                	unimp
    1102:	0000                	unimp
    1104:	0000                	unimp
    1106:	0000                	unimp
    1108:	0000                	unimp
    110a:	0000                	unimp
    110c:	0000                	unimp
    110e:	0000                	unimp
    1110:	0000                	unimp
    1112:	0000                	unimp
    1114:	0000                	unimp
    1116:	0000                	unimp
    1118:	0000                	unimp
    111a:	0000                	unimp
    111c:	0000                	unimp
    111e:	0000                	unimp
    1120:	0000                	unimp
    1122:	0000                	unimp
    1124:	0000                	unimp
    1126:	0000                	unimp
    1128:	0000                	unimp
    112a:	0000                	unimp
    112c:	0000                	unimp
    112e:	0000                	unimp
    1130:	0000                	unimp
    1132:	0000                	unimp
    1134:	0000                	unimp
    1136:	0000                	unimp
    1138:	0000                	unimp
    113a:	0000                	unimp
    113c:	0000                	unimp
    113e:	0000                	unimp
    1140:	0000                	unimp
    1142:	0000                	unimp
    1144:	0000                	unimp
    1146:	0000                	unimp
    1148:	0000                	unimp
    114a:	0000                	unimp
    114c:	0000                	unimp
    114e:	0000                	unimp
    1150:	0000                	unimp
    1152:	0000                	unimp
    1154:	0000                	unimp
    1156:	0000                	unimp
    1158:	0000                	unimp
    115a:	0000                	unimp
    115c:	0000                	unimp
    115e:	0000                	unimp
    1160:	0000                	unimp
    1162:	0000                	unimp
    1164:	0000                	unimp
    1166:	0000                	unimp
    1168:	0000                	unimp
    116a:	0000                	unimp
    116c:	0000                	unimp
    116e:	0000                	unimp
    1170:	0000                	unimp
    1172:	0000                	unimp
    1174:	0000                	unimp
    1176:	0000                	unimp
    1178:	0000                	unimp
    117a:	0000                	unimp
    117c:	0000                	unimp
    117e:	0000                	unimp
    1180:	0000                	unimp
    1182:	0000                	unimp
    1184:	0000                	unimp
    1186:	0000                	unimp
    1188:	0000                	unimp
    118a:	0000                	unimp
    118c:	0000                	unimp
    118e:	0000                	unimp
    1190:	0000                	unimp
    1192:	0000                	unimp
    1194:	0000                	unimp
    1196:	0000                	unimp
    1198:	0000                	unimp
    119a:	0000                	unimp
    119c:	0000                	unimp
    119e:	0000                	unimp
    11a0:	0000                	unimp
    11a2:	0000                	unimp
    11a4:	0000                	unimp
    11a6:	0000                	unimp
    11a8:	0000                	unimp
    11aa:	0000                	unimp
    11ac:	0000                	unimp
    11ae:	0000                	unimp
    11b0:	0000                	unimp
    11b2:	0000                	unimp
    11b4:	0000                	unimp
    11b6:	0000                	unimp
    11b8:	0000                	unimp
    11ba:	0000                	unimp
    11bc:	0000                	unimp
    11be:	0000                	unimp
    11c0:	0000                	unimp
    11c2:	0000                	unimp
    11c4:	0000                	unimp
    11c6:	0000                	unimp
    11c8:	0000                	unimp
    11ca:	0000                	unimp
    11cc:	0000                	unimp
    11ce:	0000                	unimp
    11d0:	0000                	unimp
    11d2:	0000                	unimp
    11d4:	0000                	unimp
    11d6:	0000                	unimp
    11d8:	0000                	unimp
    11da:	0000                	unimp
    11dc:	0000                	unimp
    11de:	0000                	unimp
    11e0:	0000                	unimp
    11e2:	0000                	unimp
    11e4:	0000                	unimp
    11e6:	0000                	unimp
    11e8:	0000                	unimp
    11ea:	0000                	unimp
    11ec:	0000                	unimp
    11ee:	0000                	unimp
    11f0:	0000                	unimp
    11f2:	0000                	unimp
    11f4:	0000                	unimp
    11f6:	0000                	unimp
    11f8:	0000                	unimp
    11fa:	0000                	unimp
    11fc:	0000                	unimp
    11fe:	0000                	unimp
    1200:	0000                	unimp
    1202:	0000                	unimp
    1204:	0000                	unimp
    1206:	0000                	unimp
    1208:	0000                	unimp
    120a:	0000                	unimp
    120c:	0000                	unimp
    120e:	0000                	unimp
    1210:	0000                	unimp
    1212:	0000                	unimp
    1214:	0000                	unimp
    1216:	0000                	unimp
    1218:	0000                	unimp
    121a:	0000                	unimp
    121c:	0000                	unimp
    121e:	0000                	unimp
    1220:	0000                	unimp
    1222:	0000                	unimp
    1224:	0000                	unimp
    1226:	0000                	unimp
    1228:	0000                	unimp
    122a:	0000                	unimp
    122c:	0000                	unimp
    122e:	0000                	unimp
    1230:	0000                	unimp
    1232:	0000                	unimp
    1234:	0000                	unimp
    1236:	0000                	unimp
    1238:	0000                	unimp
    123a:	0000                	unimp
    123c:	0000                	unimp
    123e:	0000                	unimp
    1240:	0000                	unimp
    1242:	0000                	unimp
    1244:	0000                	unimp
    1246:	0000                	unimp
    1248:	0000                	unimp
    124a:	0000                	unimp
    124c:	0000                	unimp
    124e:	0000                	unimp
    1250:	0000                	unimp
    1252:	0000                	unimp
    1254:	0000                	unimp
    1256:	0000                	unimp
    1258:	0000                	unimp
    125a:	0000                	unimp
    125c:	0000                	unimp
    125e:	0000                	unimp
    1260:	0000                	unimp
    1262:	0000                	unimp
    1264:	0000                	unimp
    1266:	0000                	unimp
    1268:	0000                	unimp
    126a:	0000                	unimp
    126c:	0000                	unimp
    126e:	0000                	unimp
    1270:	0000                	unimp
    1272:	0000                	unimp
    1274:	0000                	unimp
    1276:	0000                	unimp
    1278:	0000                	unimp
    127a:	0000                	unimp
    127c:	0000                	unimp
    127e:	0000                	unimp
    1280:	0000                	unimp
    1282:	0000                	unimp
    1284:	0000                	unimp
    1286:	0000                	unimp
    1288:	0000                	unimp
    128a:	0000                	unimp
    128c:	0000                	unimp
    128e:	0000                	unimp
    1290:	0000                	unimp
    1292:	0000                	unimp
    1294:	0000                	unimp
    1296:	0000                	unimp
    1298:	0000                	unimp
    129a:	0000                	unimp
    129c:	0000                	unimp
    129e:	0000                	unimp
    12a0:	0000                	unimp
    12a2:	0000                	unimp
    12a4:	0000                	unimp
    12a6:	0000                	unimp
    12a8:	0000                	unimp
    12aa:	0000                	unimp
    12ac:	0000                	unimp
    12ae:	0000                	unimp
    12b0:	0000                	unimp
    12b2:	0000                	unimp
    12b4:	0000                	unimp
    12b6:	0000                	unimp
    12b8:	0000                	unimp
    12ba:	0000                	unimp
    12bc:	0000                	unimp
    12be:	0000                	unimp
    12c0:	0000                	unimp
    12c2:	0000                	unimp
    12c4:	0000                	unimp
    12c6:	0000                	unimp
    12c8:	0000                	unimp
    12ca:	0000                	unimp
    12cc:	0000                	unimp
    12ce:	0000                	unimp
    12d0:	0000                	unimp
    12d2:	0000                	unimp
    12d4:	0000                	unimp
    12d6:	0000                	unimp
    12d8:	0000                	unimp
    12da:	0000                	unimp
    12dc:	0000                	unimp
    12de:	0000                	unimp
    12e0:	0000                	unimp
    12e2:	0000                	unimp
    12e4:	0000                	unimp
    12e6:	0000                	unimp
    12e8:	0000                	unimp
    12ea:	0000                	unimp
    12ec:	0000                	unimp
    12ee:	0000                	unimp
    12f0:	0000                	unimp
    12f2:	0000                	unimp
    12f4:	0000                	unimp
    12f6:	0000                	unimp
    12f8:	0000                	unimp
    12fa:	0000                	unimp
    12fc:	0000                	unimp
    12fe:	0000                	unimp
    1300:	0000                	unimp
    1302:	0000                	unimp
    1304:	0000                	unimp
    1306:	0000                	unimp
    1308:	0000                	unimp
    130a:	0000                	unimp
    130c:	0000                	unimp
    130e:	0000                	unimp
    1310:	0000                	unimp
    1312:	0000                	unimp
    1314:	0000                	unimp
    1316:	0000                	unimp
    1318:	0000                	unimp
    131a:	0000                	unimp
    131c:	0000                	unimp
    131e:	0000                	unimp
    1320:	0000                	unimp
    1322:	0000                	unimp
    1324:	0000                	unimp
    1326:	0000                	unimp
    1328:	0000                	unimp
    132a:	0000                	unimp
    132c:	0000                	unimp
    132e:	0000                	unimp
    1330:	0000                	unimp
    1332:	0000                	unimp
    1334:	0000                	unimp
    1336:	0000                	unimp
    1338:	0000                	unimp
    133a:	0000                	unimp
    133c:	0000                	unimp
    133e:	0000                	unimp
    1340:	0000                	unimp
    1342:	0000                	unimp
    1344:	0000                	unimp
    1346:	0000                	unimp
    1348:	0000                	unimp
    134a:	0000                	unimp
    134c:	0000                	unimp
    134e:	0000                	unimp
    1350:	0000                	unimp
    1352:	0000                	unimp
    1354:	0000                	unimp
    1356:	0000                	unimp
    1358:	0000                	unimp
    135a:	0000                	unimp
    135c:	0000                	unimp
    135e:	0000                	unimp
    1360:	0000                	unimp
    1362:	0000                	unimp
    1364:	0000                	unimp
    1366:	0000                	unimp
    1368:	0000                	unimp
    136a:	0000                	unimp
    136c:	0000                	unimp
    136e:	0000                	unimp
    1370:	0000                	unimp
    1372:	0000                	unimp
    1374:	0000                	unimp
    1376:	0000                	unimp
    1378:	0000                	unimp
    137a:	0000                	unimp
    137c:	0000                	unimp
    137e:	0000                	unimp
    1380:	0000                	unimp
    1382:	0000                	unimp
    1384:	0000                	unimp
    1386:	0000                	unimp
    1388:	0000                	unimp
    138a:	0000                	unimp
    138c:	0000                	unimp
    138e:	0000                	unimp
    1390:	0000                	unimp
    1392:	0000                	unimp
    1394:	0000                	unimp
    1396:	0000                	unimp
    1398:	0000                	unimp
    139a:	0000                	unimp
    139c:	0000                	unimp
    139e:	0000                	unimp
    13a0:	0000                	unimp
    13a2:	0000                	unimp
    13a4:	0000                	unimp
    13a6:	0000                	unimp
    13a8:	0000                	unimp
    13aa:	0000                	unimp
    13ac:	0000                	unimp
    13ae:	0000                	unimp
    13b0:	0000                	unimp
    13b2:	0000                	unimp
    13b4:	0000                	unimp
    13b6:	0000                	unimp
    13b8:	0000                	unimp
    13ba:	0000                	unimp
    13bc:	0000                	unimp
    13be:	0000                	unimp
    13c0:	0000                	unimp
    13c2:	0000                	unimp
    13c4:	0000                	unimp
    13c6:	0000                	unimp
    13c8:	0000                	unimp
    13ca:	0000                	unimp
    13cc:	0000                	unimp
    13ce:	0000                	unimp
    13d0:	0000                	unimp
    13d2:	0000                	unimp
    13d4:	0000                	unimp
    13d6:	0000                	unimp
    13d8:	0000                	unimp
    13da:	0000                	unimp
    13dc:	0000                	unimp
    13de:	0000                	unimp
    13e0:	0000                	unimp
    13e2:	0000                	unimp
    13e4:	0000                	unimp
    13e6:	0000                	unimp
    13e8:	0000                	unimp
    13ea:	0000                	unimp
    13ec:	0000                	unimp
    13ee:	0000                	unimp
    13f0:	0000                	unimp
    13f2:	0000                	unimp
    13f4:	0000                	unimp
    13f6:	0000                	unimp
    13f8:	0000                	unimp
    13fa:	0000                	unimp
    13fc:	0000                	unimp
    13fe:	0000                	unimp
    1400:	0000                	unimp
    1402:	0000                	unimp
    1404:	0000                	unimp
    1406:	0000                	unimp
    1408:	0000                	unimp
    140a:	0000                	unimp
    140c:	0000                	unimp
    140e:	0000                	unimp
    1410:	0000                	unimp
    1412:	0000                	unimp
    1414:	0000                	unimp
    1416:	0000                	unimp
    1418:	0000                	unimp
    141a:	0000                	unimp
    141c:	0000                	unimp
    141e:	0000                	unimp
    1420:	0000                	unimp
    1422:	0000                	unimp
    1424:	0000                	unimp
    1426:	0000                	unimp
    1428:	0000                	unimp
    142a:	0000                	unimp
    142c:	0000                	unimp
    142e:	0000                	unimp
    1430:	0000                	unimp
    1432:	0000                	unimp
    1434:	0000                	unimp
    1436:	0000                	unimp
    1438:	0000                	unimp
    143a:	0000                	unimp
    143c:	0000                	unimp
    143e:	0000                	unimp
    1440:	0000                	unimp
    1442:	0000                	unimp
    1444:	0000                	unimp
    1446:	0000                	unimp
    1448:	0000                	unimp
    144a:	0000                	unimp
    144c:	0000                	unimp
    144e:	0000                	unimp
    1450:	0000                	unimp
    1452:	0000                	unimp
    1454:	0000                	unimp
    1456:	0000                	unimp
    1458:	0000                	unimp
    145a:	0000                	unimp
    145c:	0000                	unimp
    145e:	0000                	unimp
    1460:	0000                	unimp
    1462:	0000                	unimp
    1464:	0000                	unimp
    1466:	0000                	unimp
    1468:	0000                	unimp
    146a:	0000                	unimp
    146c:	0000                	unimp
    146e:	0000                	unimp
    1470:	0000                	unimp
    1472:	0000                	unimp
    1474:	0000                	unimp
    1476:	0000                	unimp
    1478:	0000                	unimp
    147a:	0000                	unimp
    147c:	0000                	unimp
    147e:	0000                	unimp
    1480:	0000                	unimp
    1482:	0000                	unimp
    1484:	0000                	unimp
    1486:	0000                	unimp
    1488:	0000                	unimp
    148a:	0000                	unimp
    148c:	0000                	unimp
    148e:	0000                	unimp
    1490:	0000                	unimp
    1492:	0000                	unimp
    1494:	0000                	unimp
    1496:	0000                	unimp
    1498:	0000                	unimp
    149a:	0000                	unimp
    149c:	0000                	unimp
    149e:	0000                	unimp
    14a0:	0000                	unimp
    14a2:	0000                	unimp
    14a4:	0000                	unimp
    14a6:	0000                	unimp
    14a8:	0000                	unimp
    14aa:	0000                	unimp
    14ac:	0000                	unimp
    14ae:	0000                	unimp
    14b0:	0000                	unimp
    14b2:	0000                	unimp
    14b4:	0000                	unimp
    14b6:	0000                	unimp
    14b8:	0000                	unimp
    14ba:	0000                	unimp
    14bc:	0000                	unimp
    14be:	0000                	unimp
    14c0:	0000                	unimp
    14c2:	0000                	unimp
    14c4:	0000                	unimp
    14c6:	0000                	unimp
    14c8:	0000                	unimp
    14ca:	0000                	unimp
    14cc:	0000                	unimp
    14ce:	0000                	unimp
    14d0:	0000                	unimp
    14d2:	0000                	unimp
    14d4:	0000                	unimp
    14d6:	0000                	unimp
    14d8:	0000                	unimp
    14da:	0000                	unimp
    14dc:	0000                	unimp
    14de:	0000                	unimp
    14e0:	0000                	unimp
    14e2:	0000                	unimp
    14e4:	0000                	unimp
    14e6:	0000                	unimp
    14e8:	0000                	unimp
    14ea:	0000                	unimp
    14ec:	0000                	unimp
    14ee:	0000                	unimp
    14f0:	0000                	unimp
    14f2:	0000                	unimp
    14f4:	0000                	unimp
    14f6:	0000                	unimp
    14f8:	0000                	unimp
    14fa:	0000                	unimp
    14fc:	0000                	unimp
    14fe:	0000                	unimp
    1500:	0000                	unimp
    1502:	0000                	unimp
    1504:	0000                	unimp
    1506:	0000                	unimp
    1508:	0000                	unimp
    150a:	0000                	unimp
    150c:	0000                	unimp
    150e:	0000                	unimp
    1510:	0000                	unimp
    1512:	0000                	unimp
    1514:	0000                	unimp
    1516:	0000                	unimp
    1518:	0000                	unimp
    151a:	0000                	unimp
    151c:	0000                	unimp
    151e:	0000                	unimp
    1520:	0000                	unimp
    1522:	0000                	unimp
    1524:	0000                	unimp
    1526:	0000                	unimp
    1528:	0000                	unimp
    152a:	0000                	unimp
    152c:	0000                	unimp
    152e:	0000                	unimp
    1530:	0000                	unimp
    1532:	0000                	unimp
    1534:	0000                	unimp
    1536:	0000                	unimp
    1538:	0000                	unimp
    153a:	0000                	unimp
    153c:	0000                	unimp
    153e:	0000                	unimp
    1540:	0000                	unimp
    1542:	0000                	unimp
    1544:	0000                	unimp
    1546:	0000                	unimp
    1548:	0000                	unimp
    154a:	0000                	unimp
    154c:	0000                	unimp
    154e:	0000                	unimp
    1550:	0000                	unimp
    1552:	0000                	unimp
    1554:	0000                	unimp
    1556:	0000                	unimp
    1558:	0000                	unimp
    155a:	0000                	unimp
    155c:	0000                	unimp
    155e:	0000                	unimp
    1560:	0000                	unimp
    1562:	0000                	unimp
    1564:	0000                	unimp
    1566:	0000                	unimp
    1568:	0000                	unimp
    156a:	0000                	unimp
    156c:	0000                	unimp
    156e:	0000                	unimp
    1570:	0000                	unimp
    1572:	0000                	unimp
    1574:	0000                	unimp
    1576:	0000                	unimp
    1578:	0000                	unimp
    157a:	0000                	unimp
    157c:	0000                	unimp
    157e:	0000                	unimp
    1580:	0000                	unimp
    1582:	0000                	unimp
    1584:	0000                	unimp
    1586:	0000                	unimp
    1588:	0000                	unimp
    158a:	0000                	unimp
    158c:	0000                	unimp
    158e:	0000                	unimp
    1590:	0000                	unimp
    1592:	0000                	unimp
    1594:	0000                	unimp
    1596:	0000                	unimp
    1598:	0000                	unimp
    159a:	0000                	unimp
    159c:	0000                	unimp
    159e:	0000                	unimp
    15a0:	0000                	unimp
    15a2:	0000                	unimp
    15a4:	0000                	unimp
    15a6:	0000                	unimp
    15a8:	0000                	unimp
    15aa:	0000                	unimp
    15ac:	0000                	unimp
    15ae:	0000                	unimp
    15b0:	0000                	unimp
    15b2:	0000                	unimp
    15b4:	0000                	unimp
    15b6:	0000                	unimp
    15b8:	0000                	unimp
    15ba:	0000                	unimp
    15bc:	0000                	unimp
    15be:	0000                	unimp
    15c0:	0000                	unimp
    15c2:	0000                	unimp
    15c4:	0000                	unimp
    15c6:	0000                	unimp
    15c8:	0000                	unimp
    15ca:	0000                	unimp
    15cc:	0000                	unimp
    15ce:	0000                	unimp
    15d0:	0000                	unimp
    15d2:	0000                	unimp
    15d4:	0000                	unimp
    15d6:	0000                	unimp
    15d8:	0000                	unimp
    15da:	0000                	unimp
    15dc:	0000                	unimp
    15de:	0000                	unimp
    15e0:	0000                	unimp
    15e2:	0000                	unimp
    15e4:	0000                	unimp
    15e6:	0000                	unimp
    15e8:	0000                	unimp
    15ea:	0000                	unimp
    15ec:	0000                	unimp
    15ee:	0000                	unimp
    15f0:	0000                	unimp
    15f2:	0000                	unimp
    15f4:	0000                	unimp
    15f6:	0000                	unimp
    15f8:	0000                	unimp
    15fa:	0000                	unimp
    15fc:	0000                	unimp
    15fe:	0000                	unimp
    1600:	0000                	unimp
    1602:	0000                	unimp
    1604:	0000                	unimp
    1606:	0000                	unimp
    1608:	0000                	unimp
    160a:	0000                	unimp
    160c:	0000                	unimp
    160e:	0000                	unimp
    1610:	0000                	unimp
    1612:	0000                	unimp
    1614:	0000                	unimp
    1616:	0000                	unimp
    1618:	0000                	unimp
    161a:	0000                	unimp
    161c:	0000                	unimp
    161e:	0000                	unimp
    1620:	0000                	unimp
    1622:	0000                	unimp
    1624:	0000                	unimp
    1626:	0000                	unimp
    1628:	0000                	unimp
    162a:	0000                	unimp
    162c:	0000                	unimp
    162e:	0000                	unimp
    1630:	0000                	unimp
    1632:	0000                	unimp
    1634:	0000                	unimp
    1636:	0000                	unimp
    1638:	0000                	unimp
    163a:	0000                	unimp
    163c:	0000                	unimp
    163e:	0000                	unimp
    1640:	0000                	unimp
    1642:	0000                	unimp
    1644:	0000                	unimp
    1646:	0000                	unimp
    1648:	0000                	unimp
    164a:	0000                	unimp
    164c:	0000                	unimp
    164e:	0000                	unimp
    1650:	0000                	unimp
    1652:	0000                	unimp
    1654:	0000                	unimp
    1656:	0000                	unimp
    1658:	0000                	unimp
    165a:	0000                	unimp
    165c:	0000                	unimp
    165e:	0000                	unimp
    1660:	0000                	unimp
    1662:	0000                	unimp
    1664:	0000                	unimp
    1666:	0000                	unimp
    1668:	0000                	unimp
    166a:	0000                	unimp
    166c:	0000                	unimp
    166e:	0000                	unimp
    1670:	0000                	unimp
    1672:	0000                	unimp
    1674:	0000                	unimp
    1676:	0000                	unimp
    1678:	0000                	unimp
    167a:	0000                	unimp
    167c:	0000                	unimp
    167e:	0000                	unimp
    1680:	0000                	unimp
    1682:	0000                	unimp
    1684:	0000                	unimp
    1686:	0000                	unimp
    1688:	0000                	unimp
    168a:	0000                	unimp
    168c:	0000                	unimp
    168e:	0000                	unimp
    1690:	0000                	unimp
    1692:	0000                	unimp
    1694:	0000                	unimp
    1696:	0000                	unimp
    1698:	0000                	unimp
    169a:	0000                	unimp
    169c:	0000                	unimp
    169e:	0000                	unimp
    16a0:	0000                	unimp
    16a2:	0000                	unimp
    16a4:	0000                	unimp
    16a6:	0000                	unimp
    16a8:	0000                	unimp
    16aa:	0000                	unimp
    16ac:	0000                	unimp
    16ae:	0000                	unimp
    16b0:	0000                	unimp
    16b2:	0000                	unimp
    16b4:	0000                	unimp
    16b6:	0000                	unimp
    16b8:	0000                	unimp
    16ba:	0000                	unimp
    16bc:	0000                	unimp
    16be:	0000                	unimp
    16c0:	0000                	unimp
    16c2:	0000                	unimp
    16c4:	0000                	unimp
    16c6:	0000                	unimp
    16c8:	0000                	unimp
    16ca:	0000                	unimp
    16cc:	0000                	unimp
    16ce:	0000                	unimp
    16d0:	0000                	unimp
    16d2:	0000                	unimp
    16d4:	0000                	unimp
    16d6:	0000                	unimp
    16d8:	0000                	unimp
    16da:	0000                	unimp
    16dc:	0000                	unimp
    16de:	0000                	unimp
    16e0:	0000                	unimp
    16e2:	0000                	unimp
    16e4:	0000                	unimp
    16e6:	0000                	unimp
    16e8:	0000                	unimp
    16ea:	0000                	unimp
    16ec:	0000                	unimp
    16ee:	0000                	unimp
    16f0:	0000                	unimp
    16f2:	0000                	unimp
    16f4:	0000                	unimp
    16f6:	0000                	unimp
    16f8:	0000                	unimp
    16fa:	0000                	unimp
    16fc:	0000                	unimp
    16fe:	0000                	unimp
    1700:	0000                	unimp
    1702:	0000                	unimp
    1704:	0000                	unimp
    1706:	0000                	unimp
    1708:	0000                	unimp
    170a:	0000                	unimp
    170c:	0000                	unimp
    170e:	0000                	unimp
    1710:	0000                	unimp
    1712:	0000                	unimp
    1714:	0000                	unimp
    1716:	0000                	unimp
    1718:	0000                	unimp
    171a:	0000                	unimp
    171c:	0000                	unimp
    171e:	0000                	unimp
    1720:	0000                	unimp
    1722:	0000                	unimp
    1724:	0000                	unimp
    1726:	0000                	unimp
    1728:	0000                	unimp
    172a:	0000                	unimp
    172c:	0000                	unimp
    172e:	0000                	unimp
    1730:	0000                	unimp
    1732:	0000                	unimp
    1734:	0000                	unimp
    1736:	0000                	unimp
    1738:	0000                	unimp
    173a:	0000                	unimp
    173c:	0000                	unimp
    173e:	0000                	unimp
    1740:	0000                	unimp
    1742:	0000                	unimp
    1744:	0000                	unimp
    1746:	0000                	unimp
    1748:	0000                	unimp
    174a:	0000                	unimp
    174c:	0000                	unimp
    174e:	0000                	unimp
    1750:	0000                	unimp
    1752:	0000                	unimp
    1754:	0000                	unimp
    1756:	0000                	unimp
    1758:	0000                	unimp
    175a:	0000                	unimp
    175c:	0000                	unimp
    175e:	0000                	unimp
    1760:	0000                	unimp
    1762:	0000                	unimp
    1764:	0000                	unimp
    1766:	0000                	unimp
    1768:	0000                	unimp
    176a:	0000                	unimp
    176c:	0000                	unimp
    176e:	0000                	unimp
    1770:	0000                	unimp
    1772:	0000                	unimp
    1774:	0000                	unimp
    1776:	0000                	unimp
    1778:	0000                	unimp
    177a:	0000                	unimp
    177c:	0000                	unimp
    177e:	0000                	unimp
    1780:	0000                	unimp
    1782:	0000                	unimp
    1784:	0000                	unimp
    1786:	0000                	unimp
    1788:	0000                	unimp
    178a:	0000                	unimp
    178c:	0000                	unimp
    178e:	0000                	unimp
    1790:	0000                	unimp
    1792:	0000                	unimp
    1794:	0000                	unimp
    1796:	0000                	unimp
    1798:	0000                	unimp
    179a:	0000                	unimp
    179c:	0000                	unimp
    179e:	0000                	unimp
    17a0:	0000                	unimp
    17a2:	0000                	unimp
    17a4:	0000                	unimp
    17a6:	0000                	unimp
    17a8:	0000                	unimp
    17aa:	0000                	unimp
    17ac:	0000                	unimp
    17ae:	0000                	unimp
    17b0:	0000                	unimp
    17b2:	0000                	unimp
    17b4:	0000                	unimp
    17b6:	0000                	unimp
    17b8:	0000                	unimp
    17ba:	0000                	unimp
    17bc:	0000                	unimp
    17be:	0000                	unimp
    17c0:	0000                	unimp
    17c2:	0000                	unimp
    17c4:	0000                	unimp
    17c6:	0000                	unimp
    17c8:	0000                	unimp
    17ca:	0000                	unimp
    17cc:	0000                	unimp
    17ce:	0000                	unimp
    17d0:	0000                	unimp
    17d2:	0000                	unimp
    17d4:	0000                	unimp
    17d6:	0000                	unimp
    17d8:	0000                	unimp
    17da:	0000                	unimp
    17dc:	0000                	unimp
    17de:	0000                	unimp
    17e0:	0000                	unimp
    17e2:	0000                	unimp
    17e4:	0000                	unimp
    17e6:	0000                	unimp
    17e8:	0000                	unimp
    17ea:	0000                	unimp
    17ec:	0000                	unimp
    17ee:	0000                	unimp
    17f0:	0000                	unimp
    17f2:	0000                	unimp
    17f4:	0000                	unimp
    17f6:	0000                	unimp
    17f8:	0000                	unimp
    17fa:	0000                	unimp
    17fc:	0000                	unimp
    17fe:	0000                	unimp
    1800:	0000                	unimp
    1802:	0000                	unimp
    1804:	0000                	unimp
    1806:	0000                	unimp
    1808:	0000                	unimp
    180a:	0000                	unimp
    180c:	0000                	unimp
    180e:	0000                	unimp
    1810:	0000                	unimp
    1812:	0000                	unimp
    1814:	0000                	unimp
    1816:	0000                	unimp
    1818:	0000                	unimp
    181a:	0000                	unimp
    181c:	0000                	unimp
    181e:	0000                	unimp
    1820:	0000                	unimp
    1822:	0000                	unimp
    1824:	0000                	unimp
    1826:	0000                	unimp
    1828:	0000                	unimp
    182a:	0000                	unimp
    182c:	0000                	unimp
    182e:	0000                	unimp
    1830:	0000                	unimp
    1832:	0000                	unimp
    1834:	0000                	unimp
    1836:	0000                	unimp
    1838:	0000                	unimp
    183a:	0000                	unimp
    183c:	0000                	unimp
    183e:	0000                	unimp
    1840:	0000                	unimp
    1842:	0000                	unimp
    1844:	0000                	unimp
    1846:	0000                	unimp
    1848:	0000                	unimp
    184a:	0000                	unimp
    184c:	0000                	unimp
    184e:	0000                	unimp
    1850:	0000                	unimp
    1852:	0000                	unimp
    1854:	0000                	unimp
    1856:	0000                	unimp
    1858:	0000                	unimp
    185a:	0000                	unimp
    185c:	0000                	unimp
    185e:	0000                	unimp
    1860:	0000                	unimp
    1862:	0000                	unimp
    1864:	0000                	unimp
    1866:	0000                	unimp
    1868:	0000                	unimp
    186a:	0000                	unimp
    186c:	0000                	unimp
    186e:	0000                	unimp
    1870:	0000                	unimp
    1872:	0000                	unimp
    1874:	0000                	unimp
    1876:	0000                	unimp
    1878:	0000                	unimp
    187a:	0000                	unimp
    187c:	0000                	unimp
    187e:	0000                	unimp
    1880:	0000                	unimp
    1882:	0000                	unimp
    1884:	0000                	unimp
    1886:	0000                	unimp
    1888:	0000                	unimp
    188a:	0000                	unimp
    188c:	0000                	unimp
    188e:	0000                	unimp
    1890:	0000                	unimp
    1892:	0000                	unimp
    1894:	0000                	unimp
    1896:	0000                	unimp
    1898:	0000                	unimp
    189a:	0000                	unimp
    189c:	0000                	unimp
    189e:	0000                	unimp
    18a0:	0000                	unimp
    18a2:	0000                	unimp
    18a4:	0000                	unimp
    18a6:	0000                	unimp
    18a8:	0000                	unimp
    18aa:	0000                	unimp
    18ac:	0000                	unimp
    18ae:	0000                	unimp
    18b0:	0000                	unimp
    18b2:	0000                	unimp
    18b4:	0000                	unimp
    18b6:	0000                	unimp
    18b8:	0000                	unimp
    18ba:	0000                	unimp
    18bc:	0000                	unimp
    18be:	0000                	unimp
    18c0:	0000                	unimp
    18c2:	0000                	unimp
    18c4:	0000                	unimp
    18c6:	0000                	unimp
    18c8:	0000                	unimp
    18ca:	0000                	unimp
    18cc:	0000                	unimp
    18ce:	0000                	unimp
    18d0:	0000                	unimp
    18d2:	0000                	unimp
    18d4:	0000                	unimp
    18d6:	0000                	unimp
    18d8:	0000                	unimp
    18da:	0000                	unimp
    18dc:	0000                	unimp
    18de:	0000                	unimp
    18e0:	0000                	unimp
    18e2:	0000                	unimp
    18e4:	0000                	unimp
    18e6:	0000                	unimp
    18e8:	0000                	unimp
    18ea:	0000                	unimp
    18ec:	0000                	unimp
    18ee:	0000                	unimp
    18f0:	0000                	unimp
    18f2:	0000                	unimp
    18f4:	0000                	unimp
    18f6:	0000                	unimp
    18f8:	0000                	unimp
    18fa:	0000                	unimp
    18fc:	0000                	unimp
    18fe:	0000                	unimp
    1900:	0000                	unimp
    1902:	0000                	unimp
    1904:	0000                	unimp
    1906:	0000                	unimp
    1908:	0000                	unimp
    190a:	0000                	unimp
    190c:	0000                	unimp
    190e:	0000                	unimp
    1910:	0000                	unimp
    1912:	0000                	unimp
    1914:	0000                	unimp
    1916:	0000                	unimp
    1918:	0000                	unimp
    191a:	0000                	unimp
    191c:	0000                	unimp
    191e:	0000                	unimp
    1920:	0000                	unimp
    1922:	0000                	unimp
    1924:	0000                	unimp
    1926:	0000                	unimp
    1928:	0000                	unimp
    192a:	0000                	unimp
    192c:	0000                	unimp
    192e:	0000                	unimp
    1930:	0000                	unimp
    1932:	0000                	unimp
    1934:	0000                	unimp
    1936:	0000                	unimp
    1938:	0000                	unimp
    193a:	0000                	unimp
    193c:	0000                	unimp
    193e:	0000                	unimp
    1940:	0000                	unimp
    1942:	0000                	unimp
    1944:	0000                	unimp
    1946:	0000                	unimp
    1948:	0000                	unimp
    194a:	0000                	unimp
    194c:	0000                	unimp
    194e:	0000                	unimp
    1950:	0000                	unimp
    1952:	0000                	unimp
    1954:	0000                	unimp
    1956:	0000                	unimp
    1958:	0000                	unimp
    195a:	0000                	unimp
    195c:	0000                	unimp
    195e:	0000                	unimp
    1960:	0000                	unimp
    1962:	0000                	unimp
    1964:	0000                	unimp
    1966:	0000                	unimp
    1968:	0000                	unimp
    196a:	0000                	unimp
    196c:	0000                	unimp
    196e:	0000                	unimp
    1970:	0000                	unimp
    1972:	0000                	unimp
    1974:	0000                	unimp
    1976:	0000                	unimp
    1978:	0000                	unimp
    197a:	0000                	unimp
    197c:	0000                	unimp
    197e:	0000                	unimp
    1980:	0000                	unimp
    1982:	0000                	unimp
    1984:	0000                	unimp
    1986:	0000                	unimp
    1988:	0000                	unimp
    198a:	0000                	unimp
    198c:	0000                	unimp
    198e:	0000                	unimp
    1990:	0000                	unimp
    1992:	0000                	unimp
    1994:	0000                	unimp
    1996:	0000                	unimp
    1998:	0000                	unimp
    199a:	0000                	unimp
    199c:	0000                	unimp
    199e:	0000                	unimp
    19a0:	0000                	unimp
    19a2:	0000                	unimp
    19a4:	0000                	unimp
    19a6:	0000                	unimp
    19a8:	0000                	unimp
    19aa:	0000                	unimp
    19ac:	0000                	unimp
    19ae:	0000                	unimp
    19b0:	0000                	unimp
    19b2:	0000                	unimp
    19b4:	0000                	unimp
    19b6:	0000                	unimp
    19b8:	0000                	unimp
    19ba:	0000                	unimp
    19bc:	0000                	unimp
    19be:	0000                	unimp
    19c0:	0000                	unimp
    19c2:	0000                	unimp
    19c4:	0000                	unimp
    19c6:	0000                	unimp
    19c8:	0000                	unimp
    19ca:	0000                	unimp
    19cc:	0000                	unimp
    19ce:	0000                	unimp
    19d0:	0000                	unimp
    19d2:	0000                	unimp
    19d4:	0000                	unimp
    19d6:	0000                	unimp
    19d8:	0000                	unimp
    19da:	0000                	unimp
    19dc:	0000                	unimp
    19de:	0000                	unimp
    19e0:	0000                	unimp
    19e2:	0000                	unimp
    19e4:	0000                	unimp
    19e6:	0000                	unimp
    19e8:	0000                	unimp
    19ea:	0000                	unimp
    19ec:	0000                	unimp
    19ee:	0000                	unimp
    19f0:	0000                	unimp
    19f2:	0000                	unimp
    19f4:	0000                	unimp
    19f6:	0000                	unimp
    19f8:	0000                	unimp
    19fa:	0000                	unimp
    19fc:	0000                	unimp
    19fe:	0000                	unimp
    1a00:	0000                	unimp
    1a02:	0000                	unimp
    1a04:	0000                	unimp
    1a06:	0000                	unimp
    1a08:	0000                	unimp
    1a0a:	0000                	unimp
    1a0c:	0000                	unimp
    1a0e:	0000                	unimp
    1a10:	0000                	unimp
    1a12:	0000                	unimp
    1a14:	0000                	unimp
    1a16:	0000                	unimp
    1a18:	0000                	unimp
    1a1a:	0000                	unimp
    1a1c:	0000                	unimp
    1a1e:	0000                	unimp
    1a20:	0000                	unimp
    1a22:	0000                	unimp
    1a24:	0000                	unimp
    1a26:	0000                	unimp
    1a28:	0000                	unimp
    1a2a:	0000                	unimp
    1a2c:	0000                	unimp
    1a2e:	0000                	unimp
    1a30:	0000                	unimp
    1a32:	0000                	unimp
    1a34:	0000                	unimp
    1a36:	0000                	unimp
    1a38:	0000                	unimp
    1a3a:	0000                	unimp
    1a3c:	0000                	unimp
    1a3e:	0000                	unimp
    1a40:	0000                	unimp
    1a42:	0000                	unimp
    1a44:	0000                	unimp
    1a46:	0000                	unimp
    1a48:	0000                	unimp
    1a4a:	0000                	unimp
    1a4c:	0000                	unimp
    1a4e:	0000                	unimp
    1a50:	0000                	unimp
    1a52:	0000                	unimp
    1a54:	0000                	unimp
    1a56:	0000                	unimp
    1a58:	0000                	unimp
    1a5a:	0000                	unimp
    1a5c:	0000                	unimp
    1a5e:	0000                	unimp
    1a60:	0000                	unimp
    1a62:	0000                	unimp
    1a64:	0000                	unimp
    1a66:	0000                	unimp
    1a68:	0000                	unimp
    1a6a:	0000                	unimp
    1a6c:	0000                	unimp
    1a6e:	0000                	unimp
    1a70:	0000                	unimp
    1a72:	0000                	unimp
    1a74:	0000                	unimp
    1a76:	0000                	unimp
    1a78:	0000                	unimp
    1a7a:	0000                	unimp
    1a7c:	0000                	unimp
    1a7e:	0000                	unimp
    1a80:	0000                	unimp
    1a82:	0000                	unimp
    1a84:	0000                	unimp
    1a86:	0000                	unimp
    1a88:	0000                	unimp
    1a8a:	0000                	unimp
    1a8c:	0000                	unimp
    1a8e:	0000                	unimp
    1a90:	0000                	unimp
    1a92:	0000                	unimp
    1a94:	0000                	unimp
    1a96:	0000                	unimp
    1a98:	0000                	unimp
    1a9a:	0000                	unimp
    1a9c:	0000                	unimp
    1a9e:	0000                	unimp
    1aa0:	0000                	unimp
    1aa2:	0000                	unimp
    1aa4:	0000                	unimp
    1aa6:	0000                	unimp
    1aa8:	0000                	unimp
    1aaa:	0000                	unimp
    1aac:	0000                	unimp
    1aae:	0000                	unimp
    1ab0:	0000                	unimp
    1ab2:	0000                	unimp
    1ab4:	0000                	unimp
    1ab6:	0000                	unimp
    1ab8:	0000                	unimp
    1aba:	0000                	unimp
    1abc:	0000                	unimp
    1abe:	0000                	unimp
    1ac0:	0000                	unimp
    1ac2:	0000                	unimp
    1ac4:	0000                	unimp
    1ac6:	0000                	unimp
    1ac8:	0000                	unimp
    1aca:	0000                	unimp
    1acc:	0000                	unimp
    1ace:	0000                	unimp
    1ad0:	0000                	unimp
    1ad2:	0000                	unimp
    1ad4:	0000                	unimp
    1ad6:	0000                	unimp
    1ad8:	0000                	unimp
    1ada:	0000                	unimp
    1adc:	0000                	unimp
    1ade:	0000                	unimp
    1ae0:	0000                	unimp
    1ae2:	0000                	unimp
    1ae4:	0000                	unimp
    1ae6:	0000                	unimp
    1ae8:	0000                	unimp
    1aea:	0000                	unimp
    1aec:	0000                	unimp
    1aee:	0000                	unimp
    1af0:	0000                	unimp
    1af2:	0000                	unimp
    1af4:	0000                	unimp
    1af6:	0000                	unimp
    1af8:	0000                	unimp
    1afa:	0000                	unimp
    1afc:	0000                	unimp
    1afe:	0000                	unimp
    1b00:	0000                	unimp
    1b02:	0000                	unimp
    1b04:	0000                	unimp
    1b06:	0000                	unimp
    1b08:	0000                	unimp
    1b0a:	0000                	unimp
    1b0c:	0000                	unimp
    1b0e:	0000                	unimp
    1b10:	0000                	unimp
    1b12:	0000                	unimp
    1b14:	0000                	unimp
    1b16:	0000                	unimp
    1b18:	0000                	unimp
    1b1a:	0000                	unimp
    1b1c:	0000                	unimp
    1b1e:	0000                	unimp
    1b20:	0000                	unimp
    1b22:	0000                	unimp
    1b24:	0000                	unimp
    1b26:	0000                	unimp
    1b28:	0000                	unimp
    1b2a:	0000                	unimp
    1b2c:	0000                	unimp
    1b2e:	0000                	unimp
    1b30:	0000                	unimp
    1b32:	0000                	unimp
    1b34:	0000                	unimp
    1b36:	0000                	unimp
    1b38:	0000                	unimp
    1b3a:	0000                	unimp
    1b3c:	0000                	unimp
    1b3e:	0000                	unimp
    1b40:	0000                	unimp
    1b42:	0000                	unimp
    1b44:	0000                	unimp
    1b46:	0000                	unimp
    1b48:	0000                	unimp
    1b4a:	0000                	unimp
    1b4c:	0000                	unimp
    1b4e:	0000                	unimp
    1b50:	0000                	unimp
    1b52:	0000                	unimp
    1b54:	0000                	unimp
    1b56:	0000                	unimp
    1b58:	0000                	unimp
    1b5a:	0000                	unimp
    1b5c:	0000                	unimp
    1b5e:	0000                	unimp
    1b60:	0000                	unimp
    1b62:	0000                	unimp
    1b64:	0000                	unimp
    1b66:	0000                	unimp
    1b68:	0000                	unimp
    1b6a:	0000                	unimp
    1b6c:	0000                	unimp
    1b6e:	0000                	unimp
    1b70:	0000                	unimp
    1b72:	0000                	unimp
    1b74:	0000                	unimp
    1b76:	0000                	unimp
    1b78:	0000                	unimp
    1b7a:	0000                	unimp
    1b7c:	0000                	unimp
    1b7e:	0000                	unimp
    1b80:	0000                	unimp
    1b82:	0000                	unimp
    1b84:	0000                	unimp
    1b86:	0000                	unimp
    1b88:	0000                	unimp
    1b8a:	0000                	unimp
    1b8c:	0000                	unimp
    1b8e:	0000                	unimp
    1b90:	0000                	unimp
    1b92:	0000                	unimp
    1b94:	0000                	unimp
    1b96:	0000                	unimp
    1b98:	0000                	unimp
    1b9a:	0000                	unimp
    1b9c:	0000                	unimp
    1b9e:	0000                	unimp
    1ba0:	0000                	unimp
    1ba2:	0000                	unimp
    1ba4:	0000                	unimp
    1ba6:	0000                	unimp
    1ba8:	0000                	unimp
    1baa:	0000                	unimp
    1bac:	0000                	unimp
    1bae:	0000                	unimp
    1bb0:	0000                	unimp
    1bb2:	0000                	unimp
    1bb4:	0000                	unimp
    1bb6:	0000                	unimp
    1bb8:	0000                	unimp
    1bba:	0000                	unimp
    1bbc:	0000                	unimp
    1bbe:	0000                	unimp
    1bc0:	0000                	unimp
    1bc2:	0000                	unimp
    1bc4:	0000                	unimp
    1bc6:	0000                	unimp
    1bc8:	0000                	unimp
    1bca:	0000                	unimp
    1bcc:	0000                	unimp
    1bce:	0000                	unimp
    1bd0:	0000                	unimp
    1bd2:	0000                	unimp
    1bd4:	0000                	unimp
    1bd6:	0000                	unimp
    1bd8:	0000                	unimp
    1bda:	0000                	unimp
    1bdc:	0000                	unimp
    1bde:	0000                	unimp
    1be0:	0000                	unimp
    1be2:	0000                	unimp
    1be4:	0000                	unimp
    1be6:	0000                	unimp
    1be8:	0000                	unimp
    1bea:	0000                	unimp
    1bec:	0000                	unimp
    1bee:	0000                	unimp
    1bf0:	0000                	unimp
    1bf2:	0000                	unimp
    1bf4:	0000                	unimp
    1bf6:	0000                	unimp
    1bf8:	0000                	unimp
    1bfa:	0000                	unimp
    1bfc:	0000                	unimp
    1bfe:	0000                	unimp
    1c00:	0000                	unimp
    1c02:	0000                	unimp
    1c04:	0000                	unimp
    1c06:	0000                	unimp
    1c08:	0000                	unimp
    1c0a:	0000                	unimp
    1c0c:	0000                	unimp
    1c0e:	0000                	unimp
    1c10:	0000                	unimp
    1c12:	0000                	unimp
    1c14:	0000                	unimp
    1c16:	0000                	unimp
    1c18:	0000                	unimp
    1c1a:	0000                	unimp
    1c1c:	0000                	unimp
    1c1e:	0000                	unimp
    1c20:	0000                	unimp
    1c22:	0000                	unimp
    1c24:	0000                	unimp
    1c26:	0000                	unimp
    1c28:	0000                	unimp
    1c2a:	0000                	unimp
    1c2c:	0000                	unimp
    1c2e:	0000                	unimp
    1c30:	0000                	unimp
    1c32:	0000                	unimp
    1c34:	0000                	unimp
    1c36:	0000                	unimp
    1c38:	0000                	unimp
    1c3a:	0000                	unimp
    1c3c:	0000                	unimp
    1c3e:	0000                	unimp
    1c40:	0000                	unimp
    1c42:	0000                	unimp
    1c44:	0000                	unimp
    1c46:	0000                	unimp
    1c48:	0000                	unimp
    1c4a:	0000                	unimp
    1c4c:	0000                	unimp
    1c4e:	0000                	unimp
    1c50:	0000                	unimp
    1c52:	0000                	unimp
    1c54:	0000                	unimp
    1c56:	0000                	unimp
    1c58:	0000                	unimp
    1c5a:	0000                	unimp
    1c5c:	0000                	unimp
    1c5e:	0000                	unimp
    1c60:	0000                	unimp
    1c62:	0000                	unimp
    1c64:	0000                	unimp
    1c66:	0000                	unimp
    1c68:	0000                	unimp
    1c6a:	0000                	unimp
    1c6c:	0000                	unimp
    1c6e:	0000                	unimp
    1c70:	0000                	unimp
    1c72:	0000                	unimp
    1c74:	0000                	unimp
    1c76:	0000                	unimp
    1c78:	0000                	unimp
    1c7a:	0000                	unimp
    1c7c:	0000                	unimp
    1c7e:	0000                	unimp
    1c80:	0000                	unimp
    1c82:	0000                	unimp
    1c84:	0000                	unimp
    1c86:	0000                	unimp
    1c88:	0000                	unimp
    1c8a:	0000                	unimp
    1c8c:	0000                	unimp
    1c8e:	0000                	unimp
    1c90:	0000                	unimp
    1c92:	0000                	unimp
    1c94:	0000                	unimp
    1c96:	0000                	unimp
    1c98:	0000                	unimp
    1c9a:	0000                	unimp
    1c9c:	0000                	unimp
    1c9e:	0000                	unimp
    1ca0:	0000                	unimp
    1ca2:	0000                	unimp
    1ca4:	0000                	unimp
    1ca6:	0000                	unimp
    1ca8:	0000                	unimp
    1caa:	0000                	unimp
    1cac:	0000                	unimp
    1cae:	0000                	unimp
    1cb0:	0000                	unimp
    1cb2:	0000                	unimp
    1cb4:	0000                	unimp
    1cb6:	0000                	unimp
    1cb8:	0000                	unimp
    1cba:	0000                	unimp
    1cbc:	0000                	unimp
    1cbe:	0000                	unimp
    1cc0:	0000                	unimp
    1cc2:	0000                	unimp
    1cc4:	0000                	unimp
    1cc6:	0000                	unimp
    1cc8:	0000                	unimp
    1cca:	0000                	unimp
    1ccc:	0000                	unimp
    1cce:	0000                	unimp
    1cd0:	0000                	unimp
    1cd2:	0000                	unimp
    1cd4:	0000                	unimp
    1cd6:	0000                	unimp
    1cd8:	0000                	unimp
    1cda:	0000                	unimp
    1cdc:	0000                	unimp
    1cde:	0000                	unimp
    1ce0:	0000                	unimp
    1ce2:	0000                	unimp
    1ce4:	0000                	unimp
    1ce6:	0000                	unimp
    1ce8:	0000                	unimp
    1cea:	0000                	unimp
    1cec:	0000                	unimp
    1cee:	0000                	unimp
    1cf0:	0000                	unimp
    1cf2:	0000                	unimp
    1cf4:	0000                	unimp
    1cf6:	0000                	unimp
    1cf8:	0000                	unimp
    1cfa:	0000                	unimp
    1cfc:	0000                	unimp
    1cfe:	0000                	unimp
    1d00:	0000                	unimp
    1d02:	0000                	unimp
    1d04:	0000                	unimp
    1d06:	0000                	unimp
    1d08:	0000                	unimp
    1d0a:	0000                	unimp
    1d0c:	0000                	unimp
    1d0e:	0000                	unimp
    1d10:	0000                	unimp
    1d12:	0000                	unimp
    1d14:	0000                	unimp
    1d16:	0000                	unimp
    1d18:	0000                	unimp
    1d1a:	0000                	unimp
    1d1c:	0000                	unimp
    1d1e:	0000                	unimp
    1d20:	0000                	unimp
    1d22:	0000                	unimp
    1d24:	0000                	unimp
    1d26:	0000                	unimp
    1d28:	0000                	unimp
    1d2a:	0000                	unimp
    1d2c:	0000                	unimp
    1d2e:	0000                	unimp
    1d30:	0000                	unimp
    1d32:	0000                	unimp
    1d34:	0000                	unimp
    1d36:	0000                	unimp
    1d38:	0000                	unimp
    1d3a:	0000                	unimp
    1d3c:	0000                	unimp
    1d3e:	0000                	unimp
    1d40:	0000                	unimp
    1d42:	0000                	unimp
    1d44:	0000                	unimp
    1d46:	0000                	unimp
    1d48:	0000                	unimp
    1d4a:	0000                	unimp
    1d4c:	0000                	unimp
    1d4e:	0000                	unimp
    1d50:	0000                	unimp
    1d52:	0000                	unimp
    1d54:	0000                	unimp
    1d56:	0000                	unimp
    1d58:	0000                	unimp
    1d5a:	0000                	unimp
    1d5c:	0000                	unimp
    1d5e:	0000                	unimp
    1d60:	0000                	unimp
    1d62:	0000                	unimp
    1d64:	0000                	unimp
    1d66:	0000                	unimp
    1d68:	0000                	unimp
    1d6a:	0000                	unimp
    1d6c:	0000                	unimp
    1d6e:	0000                	unimp
    1d70:	0000                	unimp
    1d72:	0000                	unimp
    1d74:	0000                	unimp
    1d76:	0000                	unimp
    1d78:	0000                	unimp
    1d7a:	0000                	unimp
    1d7c:	0000                	unimp
    1d7e:	0000                	unimp
    1d80:	0000                	unimp
    1d82:	0000                	unimp
    1d84:	0000                	unimp
    1d86:	0000                	unimp
    1d88:	0000                	unimp
    1d8a:	0000                	unimp
    1d8c:	0000                	unimp
    1d8e:	0000                	unimp
    1d90:	0000                	unimp
    1d92:	0000                	unimp
    1d94:	0000                	unimp
    1d96:	0000                	unimp
    1d98:	0000                	unimp
    1d9a:	0000                	unimp
    1d9c:	0000                	unimp
    1d9e:	0000                	unimp
    1da0:	0000                	unimp
    1da2:	0000                	unimp
    1da4:	0000                	unimp
    1da6:	0000                	unimp
    1da8:	0000                	unimp
    1daa:	0000                	unimp
    1dac:	0000                	unimp
    1dae:	0000                	unimp
    1db0:	0000                	unimp
    1db2:	0000                	unimp
    1db4:	0000                	unimp
    1db6:	0000                	unimp
    1db8:	0000                	unimp
    1dba:	0000                	unimp
    1dbc:	0000                	unimp
    1dbe:	0000                	unimp
    1dc0:	0000                	unimp
    1dc2:	0000                	unimp
    1dc4:	0000                	unimp
    1dc6:	0000                	unimp
    1dc8:	0000                	unimp
    1dca:	0000                	unimp
    1dcc:	0000                	unimp
    1dce:	0000                	unimp
    1dd0:	0000                	unimp
    1dd2:	0000                	unimp
    1dd4:	0000                	unimp
    1dd6:	0000                	unimp
    1dd8:	0000                	unimp
    1dda:	0000                	unimp
    1ddc:	0000                	unimp
    1dde:	0000                	unimp
    1de0:	0000                	unimp
    1de2:	0000                	unimp
    1de4:	0000                	unimp
    1de6:	0000                	unimp
    1de8:	0000                	unimp
    1dea:	0000                	unimp
    1dec:	0000                	unimp
    1dee:	0000                	unimp
    1df0:	0000                	unimp
    1df2:	0000                	unimp
    1df4:	0000                	unimp
    1df6:	0000                	unimp
    1df8:	0000                	unimp
    1dfa:	0000                	unimp
    1dfc:	0000                	unimp
    1dfe:	0000                	unimp
    1e00:	0000                	unimp
    1e02:	0000                	unimp
    1e04:	0000                	unimp
    1e06:	0000                	unimp
    1e08:	0000                	unimp
    1e0a:	0000                	unimp
    1e0c:	0000                	unimp
    1e0e:	0000                	unimp
    1e10:	0000                	unimp
    1e12:	0000                	unimp
    1e14:	0000                	unimp
    1e16:	0000                	unimp
    1e18:	0000                	unimp
    1e1a:	0000                	unimp
    1e1c:	0000                	unimp
    1e1e:	0000                	unimp
    1e20:	0000                	unimp
    1e22:	0000                	unimp
    1e24:	0000                	unimp
    1e26:	0000                	unimp
    1e28:	0000                	unimp
    1e2a:	0000                	unimp
    1e2c:	0000                	unimp
    1e2e:	0000                	unimp
    1e30:	0000                	unimp
    1e32:	0000                	unimp
    1e34:	0000                	unimp
    1e36:	0000                	unimp
    1e38:	0000                	unimp
    1e3a:	0000                	unimp
    1e3c:	0000                	unimp
    1e3e:	0000                	unimp
    1e40:	0000                	unimp
    1e42:	0000                	unimp
    1e44:	0000                	unimp
    1e46:	0000                	unimp
    1e48:	0000                	unimp
    1e4a:	0000                	unimp
    1e4c:	0000                	unimp
    1e4e:	0000                	unimp
    1e50:	0000                	unimp
    1e52:	0000                	unimp
    1e54:	0000                	unimp
    1e56:	0000                	unimp
    1e58:	0000                	unimp
    1e5a:	0000                	unimp
    1e5c:	0000                	unimp
    1e5e:	0000                	unimp
    1e60:	0000                	unimp
    1e62:	0000                	unimp
    1e64:	0000                	unimp
    1e66:	0000                	unimp
    1e68:	0000                	unimp
    1e6a:	0000                	unimp
    1e6c:	0000                	unimp
    1e6e:	0000                	unimp
    1e70:	0000                	unimp
    1e72:	0000                	unimp
    1e74:	0000                	unimp
    1e76:	0000                	unimp
    1e78:	0000                	unimp
    1e7a:	0000                	unimp
    1e7c:	0000                	unimp
    1e7e:	0000                	unimp
    1e80:	0000                	unimp
    1e82:	0000                	unimp
    1e84:	0000                	unimp
    1e86:	0000                	unimp
    1e88:	0000                	unimp
    1e8a:	0000                	unimp
    1e8c:	0000                	unimp
    1e8e:	0000                	unimp
    1e90:	0000                	unimp
    1e92:	0000                	unimp
    1e94:	0000                	unimp
    1e96:	0000                	unimp
    1e98:	0000                	unimp
    1e9a:	0000                	unimp
    1e9c:	0000                	unimp
    1e9e:	0000                	unimp
    1ea0:	0000                	unimp
    1ea2:	0000                	unimp
    1ea4:	0000                	unimp
    1ea6:	0000                	unimp
    1ea8:	0000                	unimp
    1eaa:	0000                	unimp
    1eac:	0000                	unimp
    1eae:	0000                	unimp
    1eb0:	0000                	unimp
    1eb2:	0000                	unimp
    1eb4:	0000                	unimp
    1eb6:	0000                	unimp
    1eb8:	0000                	unimp
    1eba:	0000                	unimp
    1ebc:	0000                	unimp
    1ebe:	0000                	unimp
    1ec0:	0000                	unimp
    1ec2:	0000                	unimp
    1ec4:	0000                	unimp
    1ec6:	0000                	unimp
    1ec8:	0000                	unimp
    1eca:	0000                	unimp
    1ecc:	0000                	unimp
    1ece:	0000                	unimp
    1ed0:	0000                	unimp
    1ed2:	0000                	unimp
    1ed4:	0000                	unimp
    1ed6:	0000                	unimp
    1ed8:	0000                	unimp
    1eda:	0000                	unimp
    1edc:	0000                	unimp
    1ede:	0000                	unimp
    1ee0:	0000                	unimp
    1ee2:	0000                	unimp
    1ee4:	0000                	unimp
    1ee6:	0000                	unimp
    1ee8:	0000                	unimp
    1eea:	0000                	unimp
    1eec:	0000                	unimp
    1eee:	0000                	unimp
    1ef0:	0000                	unimp
    1ef2:	0000                	unimp
    1ef4:	0000                	unimp
    1ef6:	0000                	unimp
    1ef8:	0000                	unimp
    1efa:	0000                	unimp
    1efc:	0000                	unimp
    1efe:	0000                	unimp
    1f00:	0000                	unimp
    1f02:	0000                	unimp
    1f04:	0000                	unimp
    1f06:	0000                	unimp
    1f08:	0000                	unimp
    1f0a:	0000                	unimp
    1f0c:	0000                	unimp
    1f0e:	0000                	unimp
    1f10:	0000                	unimp
    1f12:	0000                	unimp
    1f14:	0000                	unimp
    1f16:	0000                	unimp
    1f18:	0000                	unimp
    1f1a:	0000                	unimp
    1f1c:	0000                	unimp
    1f1e:	0000                	unimp
    1f20:	0000                	unimp
    1f22:	0000                	unimp
    1f24:	0000                	unimp
    1f26:	0000                	unimp
    1f28:	0000                	unimp
    1f2a:	0000                	unimp
    1f2c:	0000                	unimp
    1f2e:	0000                	unimp
    1f30:	0000                	unimp
    1f32:	0000                	unimp
    1f34:	0000                	unimp
    1f36:	0000                	unimp
    1f38:	0000                	unimp
    1f3a:	0000                	unimp
    1f3c:	0000                	unimp
    1f3e:	0000                	unimp
    1f40:	0000                	unimp
    1f42:	0000                	unimp
    1f44:	0000                	unimp
    1f46:	0000                	unimp
    1f48:	0000                	unimp
    1f4a:	0000                	unimp
    1f4c:	0000                	unimp
    1f4e:	0000                	unimp
    1f50:	0000                	unimp
    1f52:	0000                	unimp
    1f54:	0000                	unimp
    1f56:	0000                	unimp
    1f58:	0000                	unimp
    1f5a:	0000                	unimp
    1f5c:	0000                	unimp
    1f5e:	0000                	unimp
    1f60:	0000                	unimp
    1f62:	0000                	unimp
    1f64:	0000                	unimp
    1f66:	0000                	unimp
    1f68:	0000                	unimp
    1f6a:	0000                	unimp
    1f6c:	0000                	unimp
    1f6e:	0000                	unimp
    1f70:	0000                	unimp
    1f72:	0000                	unimp
    1f74:	0000                	unimp
    1f76:	0000                	unimp
    1f78:	0000                	unimp
    1f7a:	0000                	unimp
    1f7c:	0000                	unimp
    1f7e:	0000                	unimp
    1f80:	0000                	unimp
    1f82:	0000                	unimp
    1f84:	0000                	unimp
    1f86:	0000                	unimp
    1f88:	0000                	unimp
    1f8a:	0000                	unimp
    1f8c:	0000                	unimp
    1f8e:	0000                	unimp
    1f90:	0000                	unimp
    1f92:	0000                	unimp
    1f94:	0000                	unimp
    1f96:	0000                	unimp
    1f98:	0000                	unimp
    1f9a:	0000                	unimp
    1f9c:	0000                	unimp
    1f9e:	0000                	unimp
    1fa0:	0000                	unimp
    1fa2:	0000                	unimp
    1fa4:	0000                	unimp
    1fa6:	0000                	unimp
    1fa8:	0000                	unimp
    1faa:	0000                	unimp
    1fac:	0000                	unimp
    1fae:	0000                	unimp
    1fb0:	0000                	unimp
    1fb2:	0000                	unimp
    1fb4:	0000                	unimp
    1fb6:	0000                	unimp
    1fb8:	0000                	unimp
    1fba:	0000                	unimp
    1fbc:	0000                	unimp
    1fbe:	0000                	unimp
    1fc0:	0000                	unimp
    1fc2:	0000                	unimp
    1fc4:	0000                	unimp
    1fc6:	0000                	unimp
    1fc8:	0000                	unimp
    1fca:	0000                	unimp
    1fcc:	0000                	unimp
    1fce:	0000                	unimp
    1fd0:	0000                	unimp
    1fd2:	0000                	unimp
    1fd4:	0000                	unimp
    1fd6:	0000                	unimp
    1fd8:	0000                	unimp
    1fda:	0000                	unimp
    1fdc:	0000                	unimp
    1fde:	0000                	unimp
    1fe0:	0000                	unimp
    1fe2:	0000                	unimp
    1fe4:	0000                	unimp
    1fe6:	0000                	unimp
    1fe8:	0000                	unimp
    1fea:	0000                	unimp
    1fec:	0000                	unimp
    1fee:	0000                	unimp
    1ff0:	0000                	unimp
    1ff2:	0000                	unimp
    1ff4:	0000                	unimp
    1ff6:	0000                	unimp
    1ff8:	0000                	unimp
    1ffa:	0000                	unimp
    1ffc:	0000                	unimp
    1ffe:	00158593          	addi	a1,a1,1
    2002:	29b00393          	li	t2,667
    2006:	00200193          	li	gp,2
    200a:	2a759f63          	bne	a1,t2,22c8 <fail>
    200e:	00001137          	lui	sp,0x1
    2012:	2341011b          	addiw	sp,sp,564

0000000000002016 <test_3>:
    2016:	1fe8                	addi	a0,sp,1020
    2018:	000013b7          	lui	t2,0x1
    201c:	6303839b          	addiw	t2,t2,1584
    2020:	00300193          	li	gp,3
    2024:	2a751263          	bne	a0,t2,22c8 <fail>

0000000000002028 <test_4>:
    2028:	617d                	addi	sp,sp,496
    202a:	0001                	nop
    202c:	000013b7          	lui	t2,0x1
    2030:	4243839b          	addiw	t2,t2,1060
    2034:	00400193          	li	gp,4
    2038:	28711863          	bne	sp,t2,22c8 <fail>

000000000000203c <test_5>:
    203c:	7101                	addi	sp,sp,-512
    203e:	0001                	nop
    2040:	000013b7          	lui	t2,0x1
    2044:	2243839b          	addiw	t2,t2,548
    2048:	00500193          	li	gp,5
    204c:	26711e63          	bne	sp,t2,22c8 <fail>
    2050:	ffffe597          	auipc	a1,0xffffe
    2054:	13858593          	addi	a1,a1,312 # 188 <data>

0000000000002058 <test_6>:
    2058:	41c8                	lw	a0,4(a1)
    205a:	0505                	addi	a0,a0,1
    205c:	c1c8                	sw	a0,4(a1)
    205e:	41d0                	lw	a2,4(a1)
    2060:	fedcc3b7          	lui	t2,0xfedcc
    2064:	a993839b          	addiw	t2,t2,-1383
    2068:	00600193          	li	gp,6
    206c:	24761e63          	bne	a2,t2,22c8 <fail>

0000000000002070 <test_7>:
    2070:	6188                	ld	a0,0(a1)
    2072:	0505                	addi	a0,a0,1
    2074:	e188                	sd	a0,0(a1)
    2076:	6190                	ld	a2,0(a1)
    2078:	fff6e3b7          	lui	t2,0xfff6e
    207c:	5d53839b          	addiw	t2,t2,1493
    2080:	00c39393          	slli	t2,t2,0xc
    2084:	cbb38393          	addi	t2,t2,-837 # fffffffffff6dcbb <_end+0xfffffffffff69cbb>
    2088:	00d39393          	slli	t2,t2,0xd
    208c:	54338393          	addi	t2,t2,1347
    2090:	00c39393          	slli	t2,t2,0xc
    2094:	21138393          	addi	t2,t2,529
    2098:	00700193          	li	gp,7
    209c:	22761663          	bne	a2,t2,22c8 <fail>

00000000000020a0 <test_8>:
    20a0:	00106513          	ori	a0,zero,1
    20a4:	1541                	addi	a0,a0,-16
    20a6:	0001                	nop
    20a8:	ff100393          	li	t2,-15
    20ac:	00800193          	li	gp,8
    20b0:	20751c63          	bne	a0,t2,22c8 <fail>

00000000000020b4 <test_9>:
    20b4:	00106793          	ori	a5,zero,1
    20b8:	57c1                	li	a5,-16
    20ba:	0001                	nop
    20bc:	ff000393          	li	t2,-16
    20c0:	00900193          	li	gp,9
    20c4:	20779263          	bne	a5,t2,22c8 <fail>

00000000000020c8 <test_10>:
    20c8:	6188                	ld	a0,0(a1)
    20ca:	357d                	addiw	a0,a0,-1
    20cc:	765433b7          	lui	t2,0x76543
    20d0:	2103839b          	addiw	t2,t2,528
    20d4:	00a00193          	li	gp,10
    20d8:	1e751863          	bne	a0,t2,22c8 <fail>

00000000000020dc <test_11>:
    20dc:	7405                	lui	s0,0xfffe1
    20de:	8431                	srai	s0,s0,0xc
    20e0:	fe100393          	li	t2,-31
    20e4:	00b00193          	li	gp,11
    20e8:	1e741063          	bne	s0,t2,22c8 <fail>

00000000000020ec <test_12>:
    20ec:	7405                	lui	s0,0xfffe1
    20ee:	8031                	srli	s0,s0,0xc
    20f0:	0010039b          	addiw	t2,zero,1
    20f4:	03439393          	slli	t2,t2,0x34
    20f8:	fe138393          	addi	t2,t2,-31 # 76542fe1 <_end+0x7653efe1>
    20fc:	00c00193          	li	gp,12
    2100:	1c741463          	bne	s0,t2,22c8 <fail>

0000000000002104 <test_14>:
    2104:	5479                	li	s0,-2
    2106:	983d                	andi	s0,s0,-17
    2108:	fee00393          	li	t2,-18
    210c:	00e00193          	li	gp,14
    2110:	1a741c63          	bne	s0,t2,22c8 <fail>

0000000000002114 <test_15>:
    2114:	44d1                	li	s1,20
    2116:	4519                	li	a0,6
    2118:	8c89                	sub	s1,s1,a0
    211a:	0001                	nop
    211c:	00e00393          	li	t2,14
    2120:	00f00193          	li	gp,15
    2124:	1a749263          	bne	s1,t2,22c8 <fail>

0000000000002128 <test_16>:
    2128:	44d1                	li	s1,20
    212a:	4519                	li	a0,6
    212c:	8ca9                	xor	s1,s1,a0
    212e:	0001                	nop
    2130:	01200393          	li	t2,18
    2134:	01000193          	li	gp,16
    2138:	18749863          	bne	s1,t2,22c8 <fail>

000000000000213c <test_17>:
    213c:	44d1                	li	s1,20
    213e:	4519                	li	a0,6
    2140:	8cc9                	or	s1,s1,a0
    2142:	0001                	nop
    2144:	01600393          	li	t2,22
    2148:	01100193          	li	gp,17
    214c:	16749e63          	bne	s1,t2,22c8 <fail>

0000000000002150 <test_18>:
    2150:	44d1                	li	s1,20
    2152:	4519                	li	a0,6
    2154:	8ce9                	and	s1,s1,a0
    2156:	0001                	nop
    2158:	00400393          	li	t2,4
    215c:	01200193          	li	gp,18
    2160:	16749463          	bne	s1,t2,22c8 <fail>

0000000000002164 <test_19>:
    2164:	800004b7          	lui	s1,0x80000
    2168:	34fd                	addiw	s1,s1,-1
    216a:	557d                	li	a0,-1
    216c:	9c89                	subw	s1,s1,a0
    216e:	0001                	nop
    2170:	800003b7          	lui	t2,0x80000
    2174:	01300193          	li	gp,19
    2178:	14749863          	bne	s1,t2,22c8 <fail>

000000000000217c <test_20>:
    217c:	800004b7          	lui	s1,0x80000
    2180:	34fd                	addiw	s1,s1,-1
    2182:	4505                	li	a0,1
    2184:	9ca9                	addw	s1,s1,a0
    2186:	0001                	nop
    2188:	800003b7          	lui	t2,0x80000
    218c:	01400193          	li	gp,20
    2190:	12749c63          	bne	s1,t2,22c8 <fail>

0000000000002194 <test_21>:
    2194:	6405                	lui	s0,0x1
    2196:	2344041b          	addiw	s0,s0,564
    219a:	0412                	slli	s0,s0,0x4
    219c:	000123b7          	lui	t2,0x12
    21a0:	3403839b          	addiw	t2,t2,832
    21a4:	01500193          	li	gp,21
    21a8:	12741063          	bne	s0,t2,22c8 <fail>

00000000000021ac <test_30>:
    21ac:	4081                	li	ra,0
    21ae:	a011                	j	21b2 <test_30+0x6>
    21b0:	a011                	j	21b4 <test_30+0x8>
    21b2:	a011                	j	21b6 <test_30+0xa>
    21b4:	aa11                	j	22c8 <fail>
    21b6:	0001                	nop
    21b8:	00000393          	li	t2,0
    21bc:	01e00193          	li	gp,30
    21c0:	10709463          	bne	ra,t2,22c8 <fail>

00000000000021c4 <test_31>:
    21c4:	4501                	li	a0,0
    21c6:	c111                	beqz	a0,21ca <test_31+0x6>
    21c8:	a011                	j	21cc <test_31+0x8>
    21ca:	a011                	j	21ce <test_31+0xa>
    21cc:	a8f5                	j	22c8 <fail>
    21ce:	0001                	nop
    21d0:	00000393          	li	t2,0
    21d4:	01f00193          	li	gp,31
    21d8:	0e701863          	bne	zero,t2,22c8 <fail>

00000000000021dc <test_32>:
    21dc:	4505                	li	a0,1
    21de:	e111                	bnez	a0,21e2 <test_32+0x6>
    21e0:	a011                	j	21e4 <test_32+0x8>
    21e2:	a011                	j	21e6 <test_32+0xa>
    21e4:	a0d5                	j	22c8 <fail>
    21e6:	0001                	nop
    21e8:	00000393          	li	t2,0
    21ec:	02000193          	li	gp,32
    21f0:	0c701c63          	bne	zero,t2,22c8 <fail>

00000000000021f4 <test_33>:
    21f4:	4505                	li	a0,1
    21f6:	c111                	beqz	a0,21fa <test_33+0x6>
    21f8:	a011                	j	21fc <test_33+0x8>
    21fa:	a0f9                	j	22c8 <fail>
    21fc:	00000393          	li	t2,0
    2200:	02100193          	li	gp,33
    2204:	0c701263          	bne	zero,t2,22c8 <fail>

0000000000002208 <test_34>:
    2208:	4501                	li	a0,0
    220a:	e111                	bnez	a0,220e <test_34+0x6>
    220c:	a011                	j	2210 <test_34+0x8>
    220e:	a86d                	j	22c8 <fail>
    2210:	00000393          	li	t2,0
    2214:	02200193          	li	gp,34
    2218:	0a701863          	bne	zero,t2,22c8 <fail>

000000000000221c <test_35>:
    221c:	00000297          	auipc	t0,0x0
    2220:	00e28293          	addi	t0,t0,14 # 222a <test_35+0xe>
    2224:	4081                	li	ra,0
    2226:	8282                	jr	t0
    2228:	a011                	j	222c <test_35+0x10>
    222a:	a011                	j	222e <test_35+0x12>
    222c:	a871                	j	22c8 <fail>
    222e:	0001                	nop
    2230:	00000393          	li	t2,0
    2234:	02300193          	li	gp,35
    2238:	08709863          	bne	ra,t2,22c8 <fail>

000000000000223c <test_36>:
    223c:	00000297          	auipc	t0,0x0
    2240:	00e28293          	addi	t0,t0,14 # 224a <test_36+0xe>
    2244:	4081                	li	ra,0
    2246:	9282                	jalr	t0
    2248:	a011                	j	224c <test_36+0x10>
    224a:	a011                	j	224e <test_36+0x12>
    224c:	a8b5                	j	22c8 <fail>
    224e:	405080b3          	sub	ra,ra,t0
    2252:	0001                	nop
    2254:	ffe00393          	li	t2,-2
    2258:	02400193          	li	gp,36
    225c:	06709663          	bne	ra,t2,22c8 <fail>
    2260:	ffffe117          	auipc	sp,0xffffe
    2264:	f2810113          	addi	sp,sp,-216 # 188 <data>

0000000000002268 <test_40>:
    2268:	4532                	lw	a0,12(sp)
    226a:	0505                	addi	a0,a0,1
    226c:	c62a                	sw	a0,12(sp)
    226e:	4632                	lw	a2,12(sp)
    2270:	fedcc3b7          	lui	t2,0xfedcc
    2274:	a993839b          	addiw	t2,t2,-1383
    2278:	02800193          	li	gp,40
    227c:	04761663          	bne	a2,t2,22c8 <fail>

0000000000002280 <test_41>:
    2280:	6522                	ld	a0,8(sp)
    2282:	0505                	addi	a0,a0,1
    2284:	e42a                	sd	a0,8(sp)
    2286:	6622                	ld	a2,8(sp)
    2288:	fff6e3b7          	lui	t2,0xfff6e
    228c:	5d53839b          	addiw	t2,t2,1493
    2290:	00c39393          	slli	t2,t2,0xc
    2294:	cbb38393          	addi	t2,t2,-837 # fffffffffff6dcbb <_end+0xfffffffffff69cbb>
    2298:	00d39393          	slli	t2,t2,0xd
    229c:	54338393          	addi	t2,t2,1347
    22a0:	00c39393          	slli	t2,t2,0xc
    22a4:	21138393          	addi	t2,t2,529
    22a8:	02900193          	li	gp,41
    22ac:	00761e63          	bne	a2,t2,22c8 <fail>

00000000000022b0 <test_42>:
    22b0:	12300513          	li	a0,291
    22b4:	82aa                	mv	t0,a0
    22b6:	92aa                	add	t0,t0,a0
    22b8:	24600393          	li	t2,582
    22bc:	02a00193          	li	gp,42
    22c0:	00729463          	bne	t0,t2,22c8 <fail>
    22c4:	02301063          	bne	zero,gp,22e4 <pass>

00000000000022c8 <fail>:
    22c8:	0ff0000f          	fence
    22cc:	00018063          	beqz	gp,22cc <fail+0x4>
    22d0:	00119193          	slli	gp,gp,0x1
    22d4:	0011e193          	ori	gp,gp,1
    22d8:	05d00893          	li	a7,93
    22dc:	00018513          	mv	a0,gp
    22e0:	00000073          	ecall

00000000000022e4 <pass>:
    22e4:	0ff0000f          	fence
    22e8:	00100193          	li	gp,1
    22ec:	05d00893          	li	a7,93
    22f0:	00000513          	li	a0,0
    22f4:	00000073          	ecall
    22f8:	c0001073          	unimp
    22fc:	0000                	unimp
    22fe:	0000                	unimp
    2300:	0000                	unimp
    2302:	0000                	unimp
    2304:	0000                	unimp
    2306:	0000                	unimp
    2308:	0000                	unimp
    230a:	0000                	unimp
    230c:	0000                	unimp
    230e:	0000                	unimp
    2310:	0000                	unimp
    2312:	0000                	unimp
    2314:	0000                	unimp
    2316:	0000                	unimp
    2318:	0000                	unimp
    231a:	0000                	unimp
    231c:	0000                	unimp
    231e:	0000                	unimp
    2320:	0000                	unimp
    2322:	0000                	unimp
    2324:	0000                	unimp
    2326:	0000                	unimp
    2328:	0000                	unimp
    232a:	0000                	unimp
    232c:	0000                	unimp
    232e:	0000                	unimp
    2330:	0000                	unimp
    2332:	0000                	unimp
    2334:	0000                	unimp
    2336:	0000                	unimp
    2338:	0000                	unimp
    233a:	0000                	unimp
    233c:	0000                	unimp
    233e:	0000                	unimp
    2340:	0000                	unimp
    2342:	0000                	unimp
    2344:	0000                	unimp
    2346:	0000                	unimp
    2348:	0000                	unimp
    234a:	0000                	unimp
    234c:	0000                	unimp
    234e:	0000                	unimp
    2350:	0000                	unimp
    2352:	0000                	unimp
    2354:	0000                	unimp
    2356:	0000                	unimp
    2358:	0000                	unimp
    235a:	0000                	unimp
    235c:	0000                	unimp
    235e:	0000                	unimp
    2360:	0000                	unimp
    2362:	0000                	unimp
    2364:	0000                	unimp
    2366:	0000                	unimp
    2368:	0000                	unimp
    236a:	0000                	unimp
    236c:	0000                	unimp
    236e:	0000                	unimp
    2370:	0000                	unimp
    2372:	0000                	unimp
    2374:	0000                	unimp
    2376:	0000                	unimp
    2378:	0000                	unimp
    237a:	0000                	unimp
    237c:	0000                	unimp
    237e:	0000                	unimp
    2380:	0000                	unimp
    2382:	0000                	unimp
    2384:	0000                	unimp
    2386:	0000                	unimp
    2388:	0000                	unimp
    238a:	0000                	unimp
    238c:	0000                	unimp
    238e:	0000                	unimp
    2390:	0000                	unimp
    2392:	0000                	unimp
    2394:	0000                	unimp
    2396:	0000                	unimp
    2398:	0000                	unimp
    239a:	0000                	unimp
    239c:	0000                	unimp
    239e:	0000                	unimp
    23a0:	0000                	unimp
    23a2:	0000                	unimp
    23a4:	0000                	unimp
    23a6:	0000                	unimp
    23a8:	0000                	unimp
    23aa:	0000                	unimp
    23ac:	0000                	unimp
    23ae:	0000                	unimp
    23b0:	0000                	unimp
    23b2:	0000                	unimp
    23b4:	0000                	unimp
    23b6:	0000                	unimp
    23b8:	0000                	unimp
    23ba:	0000                	unimp
    23bc:	0000                	unimp
    23be:	0000                	unimp
    23c0:	0000                	unimp
    23c2:	0000                	unimp
    23c4:	0000                	unimp
    23c6:	0000                	unimp
    23c8:	0000                	unimp
    23ca:	0000                	unimp
    23cc:	0000                	unimp
    23ce:	0000                	unimp
    23d0:	0000                	unimp
    23d2:	0000                	unimp
    23d4:	0000                	unimp
    23d6:	0000                	unimp
    23d8:	0000                	unimp
    23da:	0000                	unimp
    23dc:	0000                	unimp
    23de:	0000                	unimp
    23e0:	0000                	unimp
    23e2:	0000                	unimp
    23e4:	0000                	unimp
    23e6:	0000                	unimp
    23e8:	0000                	unimp
    23ea:	0000                	unimp
    23ec:	0000                	unimp
    23ee:	0000                	unimp
    23f0:	0000                	unimp
    23f2:	0000                	unimp
    23f4:	0000                	unimp
    23f6:	0000                	unimp
    23f8:	0000                	unimp
    23fa:	0000                	unimp
    23fc:	0000                	unimp
    23fe:	0000                	unimp
    2400:	0000                	unimp
    2402:	0000                	unimp
    2404:	0000                	unimp
    2406:	0000                	unimp
    2408:	0000                	unimp
    240a:	0000                	unimp
    240c:	0000                	unimp
    240e:	0000                	unimp
    2410:	0000                	unimp
    2412:	0000                	unimp
    2414:	0000                	unimp
    2416:	0000                	unimp
    2418:	0000                	unimp
    241a:	0000                	unimp
    241c:	0000                	unimp
    241e:	0000                	unimp
    2420:	0000                	unimp
    2422:	0000                	unimp
    2424:	0000                	unimp
    2426:	0000                	unimp
    2428:	0000                	unimp
    242a:	0000                	unimp
    242c:	0000                	unimp
    242e:	0000                	unimp
    2430:	0000                	unimp
    2432:	0000                	unimp
    2434:	0000                	unimp
    2436:	0000                	unimp
    2438:	0000                	unimp
    243a:	0000                	unimp
    243c:	0000                	unimp
    243e:	0000                	unimp
    2440:	0000                	unimp
    2442:	0000                	unimp
    2444:	0000                	unimp
    2446:	0000                	unimp
    2448:	0000                	unimp
    244a:	0000                	unimp
    244c:	0000                	unimp
    244e:	0000                	unimp
    2450:	0000                	unimp
    2452:	0000                	unimp
    2454:	0000                	unimp
    2456:	0000                	unimp
    2458:	0000                	unimp
    245a:	0000                	unimp
    245c:	0000                	unimp
    245e:	0000                	unimp
    2460:	0000                	unimp
    2462:	0000                	unimp
    2464:	0000                	unimp
    2466:	0000                	unimp
    2468:	0000                	unimp
    246a:	0000                	unimp
    246c:	0000                	unimp
    246e:	0000                	unimp
    2470:	0000                	unimp
    2472:	0000                	unimp
    2474:	0000                	unimp
    2476:	0000                	unimp
    2478:	0000                	unimp
    247a:	0000                	unimp
    247c:	0000                	unimp
    247e:	0000                	unimp
    2480:	0000                	unimp
    2482:	0000                	unimp
    2484:	0000                	unimp
    2486:	0000                	unimp
    2488:	0000                	unimp
    248a:	0000                	unimp
    248c:	0000                	unimp
    248e:	0000                	unimp
    2490:	0000                	unimp
    2492:	0000                	unimp
    2494:	0000                	unimp
    2496:	0000                	unimp
    2498:	0000                	unimp
    249a:	0000                	unimp
    249c:	0000                	unimp
    249e:	0000                	unimp
    24a0:	0000                	unimp
    24a2:	0000                	unimp
    24a4:	0000                	unimp
    24a6:	0000                	unimp
    24a8:	0000                	unimp
    24aa:	0000                	unimp
    24ac:	0000                	unimp
    24ae:	0000                	unimp
    24b0:	0000                	unimp
    24b2:	0000                	unimp
    24b4:	0000                	unimp
    24b6:	0000                	unimp
    24b8:	0000                	unimp
    24ba:	0000                	unimp
    24bc:	0000                	unimp
    24be:	0000                	unimp
    24c0:	0000                	unimp
    24c2:	0000                	unimp
    24c4:	0000                	unimp
    24c6:	0000                	unimp
    24c8:	0000                	unimp
    24ca:	0000                	unimp
    24cc:	0000                	unimp
    24ce:	0000                	unimp
    24d0:	0000                	unimp
    24d2:	0000                	unimp
    24d4:	0000                	unimp
    24d6:	0000                	unimp
    24d8:	0000                	unimp
    24da:	0000                	unimp
    24dc:	0000                	unimp
    24de:	0000                	unimp
    24e0:	0000                	unimp
    24e2:	0000                	unimp
    24e4:	0000                	unimp
    24e6:	0000                	unimp
    24e8:	0000                	unimp
    24ea:	0000                	unimp
    24ec:	0000                	unimp
    24ee:	0000                	unimp
    24f0:	0000                	unimp
    24f2:	0000                	unimp
    24f4:	0000                	unimp
    24f6:	0000                	unimp
    24f8:	0000                	unimp
    24fa:	0000                	unimp
    24fc:	0000                	unimp
    24fe:	0000                	unimp
    2500:	0000                	unimp
    2502:	0000                	unimp
    2504:	0000                	unimp
    2506:	0000                	unimp
    2508:	0000                	unimp
    250a:	0000                	unimp
    250c:	0000                	unimp
    250e:	0000                	unimp
    2510:	0000                	unimp
    2512:	0000                	unimp
    2514:	0000                	unimp
    2516:	0000                	unimp
    2518:	0000                	unimp
    251a:	0000                	unimp
    251c:	0000                	unimp
    251e:	0000                	unimp
    2520:	0000                	unimp
    2522:	0000                	unimp
    2524:	0000                	unimp
    2526:	0000                	unimp
    2528:	0000                	unimp
    252a:	0000                	unimp
    252c:	0000                	unimp
    252e:	0000                	unimp
    2530:	0000                	unimp
    2532:	0000                	unimp
    2534:	0000                	unimp
    2536:	0000                	unimp
    2538:	0000                	unimp
    253a:	0000                	unimp
    253c:	0000                	unimp
    253e:	0000                	unimp
    2540:	0000                	unimp
    2542:	0000                	unimp
    2544:	0000                	unimp
    2546:	0000                	unimp
    2548:	0000                	unimp
    254a:	0000                	unimp
    254c:	0000                	unimp
    254e:	0000                	unimp
    2550:	0000                	unimp
    2552:	0000                	unimp
    2554:	0000                	unimp
    2556:	0000                	unimp
    2558:	0000                	unimp
    255a:	0000                	unimp
    255c:	0000                	unimp
    255e:	0000                	unimp
    2560:	0000                	unimp
    2562:	0000                	unimp
    2564:	0000                	unimp
    2566:	0000                	unimp
    2568:	0000                	unimp
    256a:	0000                	unimp
    256c:	0000                	unimp
    256e:	0000                	unimp
    2570:	0000                	unimp
    2572:	0000                	unimp
    2574:	0000                	unimp
    2576:	0000                	unimp
    2578:	0000                	unimp
    257a:	0000                	unimp
    257c:	0000                	unimp
    257e:	0000                	unimp
    2580:	0000                	unimp
    2582:	0000                	unimp
    2584:	0000                	unimp
    2586:	0000                	unimp
    2588:	0000                	unimp
    258a:	0000                	unimp
    258c:	0000                	unimp
    258e:	0000                	unimp
    2590:	0000                	unimp
    2592:	0000                	unimp
    2594:	0000                	unimp
    2596:	0000                	unimp
    2598:	0000                	unimp
    259a:	0000                	unimp
    259c:	0000                	unimp
    259e:	0000                	unimp
    25a0:	0000                	unimp
    25a2:	0000                	unimp
    25a4:	0000                	unimp
    25a6:	0000                	unimp
    25a8:	0000                	unimp
    25aa:	0000                	unimp
    25ac:	0000                	unimp
    25ae:	0000                	unimp
    25b0:	0000                	unimp
    25b2:	0000                	unimp
    25b4:	0000                	unimp
    25b6:	0000                	unimp
    25b8:	0000                	unimp
    25ba:	0000                	unimp
    25bc:	0000                	unimp
    25be:	0000                	unimp
    25c0:	0000                	unimp
    25c2:	0000                	unimp
    25c4:	0000                	unimp
    25c6:	0000                	unimp
    25c8:	0000                	unimp
    25ca:	0000                	unimp
    25cc:	0000                	unimp
    25ce:	0000                	unimp
    25d0:	0000                	unimp
    25d2:	0000                	unimp
    25d4:	0000                	unimp
    25d6:	0000                	unimp
    25d8:	0000                	unimp
    25da:	0000                	unimp
    25dc:	0000                	unimp
    25de:	0000                	unimp
    25e0:	0000                	unimp
    25e2:	0000                	unimp
    25e4:	0000                	unimp
    25e6:	0000                	unimp
    25e8:	0000                	unimp
    25ea:	0000                	unimp
    25ec:	0000                	unimp
    25ee:	0000                	unimp
    25f0:	0000                	unimp
    25f2:	0000                	unimp
    25f4:	0000                	unimp
    25f6:	0000                	unimp
    25f8:	0000                	unimp
    25fa:	0000                	unimp
    25fc:	0000                	unimp
    25fe:	0000                	unimp
    2600:	0000                	unimp
    2602:	0000                	unimp
    2604:	0000                	unimp
    2606:	0000                	unimp
    2608:	0000                	unimp
    260a:	0000                	unimp
    260c:	0000                	unimp
    260e:	0000                	unimp
    2610:	0000                	unimp
    2612:	0000                	unimp
    2614:	0000                	unimp
    2616:	0000                	unimp
    2618:	0000                	unimp
    261a:	0000                	unimp
    261c:	0000                	unimp
    261e:	0000                	unimp
    2620:	0000                	unimp
    2622:	0000                	unimp
    2624:	0000                	unimp
    2626:	0000                	unimp
    2628:	0000                	unimp
    262a:	0000                	unimp
    262c:	0000                	unimp
    262e:	0000                	unimp
    2630:	0000                	unimp
    2632:	0000                	unimp
    2634:	0000                	unimp
    2636:	0000                	unimp
    2638:	0000                	unimp
    263a:	0000                	unimp
    263c:	0000                	unimp
    263e:	0000                	unimp
    2640:	0000                	unimp
    2642:	0000                	unimp
    2644:	0000                	unimp
    2646:	0000                	unimp
    2648:	0000                	unimp
    264a:	0000                	unimp
    264c:	0000                	unimp
    264e:	0000                	unimp
    2650:	0000                	unimp
    2652:	0000                	unimp
    2654:	0000                	unimp
    2656:	0000                	unimp
    2658:	0000                	unimp
    265a:	0000                	unimp
    265c:	0000                	unimp
    265e:	0000                	unimp
    2660:	0000                	unimp
    2662:	0000                	unimp
    2664:	0000                	unimp
    2666:	0000                	unimp
    2668:	0000                	unimp
    266a:	0000                	unimp
    266c:	0000                	unimp
    266e:	0000                	unimp
    2670:	0000                	unimp
    2672:	0000                	unimp
    2674:	0000                	unimp
    2676:	0000                	unimp
    2678:	0000                	unimp
    267a:	0000                	unimp
    267c:	0000                	unimp
    267e:	0000                	unimp
    2680:	0000                	unimp
    2682:	0000                	unimp
    2684:	0000                	unimp
    2686:	0000                	unimp
    2688:	0000                	unimp
    268a:	0000                	unimp
    268c:	0000                	unimp
    268e:	0000                	unimp
    2690:	0000                	unimp
    2692:	0000                	unimp
    2694:	0000                	unimp
    2696:	0000                	unimp
    2698:	0000                	unimp
    269a:	0000                	unimp
    269c:	0000                	unimp
    269e:	0000                	unimp
    26a0:	0000                	unimp
    26a2:	0000                	unimp
    26a4:	0000                	unimp
    26a6:	0000                	unimp
    26a8:	0000                	unimp
    26aa:	0000                	unimp
    26ac:	0000                	unimp
    26ae:	0000                	unimp
    26b0:	0000                	unimp
    26b2:	0000                	unimp
    26b4:	0000                	unimp
    26b6:	0000                	unimp
    26b8:	0000                	unimp
    26ba:	0000                	unimp
    26bc:	0000                	unimp
    26be:	0000                	unimp
    26c0:	0000                	unimp
    26c2:	0000                	unimp
    26c4:	0000                	unimp
    26c6:	0000                	unimp
    26c8:	0000                	unimp
    26ca:	0000                	unimp
    26cc:	0000                	unimp
    26ce:	0000                	unimp
    26d0:	0000                	unimp
    26d2:	0000                	unimp
    26d4:	0000                	unimp
    26d6:	0000                	unimp
    26d8:	0000                	unimp
    26da:	0000                	unimp
    26dc:	0000                	unimp
    26de:	0000                	unimp
    26e0:	0000                	unimp
    26e2:	0000                	unimp
    26e4:	0000                	unimp
    26e6:	0000                	unimp
    26e8:	0000                	unimp
    26ea:	0000                	unimp
    26ec:	0000                	unimp
    26ee:	0000                	unimp
    26f0:	0000                	unimp
    26f2:	0000                	unimp
    26f4:	0000                	unimp
    26f6:	0000                	unimp
    26f8:	0000                	unimp
    26fa:	0000                	unimp
    26fc:	0000                	unimp
    26fe:	0000                	unimp
    2700:	0000                	unimp
    2702:	0000                	unimp
    2704:	0000                	unimp
    2706:	0000                	unimp
    2708:	0000                	unimp
    270a:	0000                	unimp
    270c:	0000                	unimp
    270e:	0000                	unimp
    2710:	0000                	unimp
    2712:	0000                	unimp
    2714:	0000                	unimp
    2716:	0000                	unimp
    2718:	0000                	unimp
    271a:	0000                	unimp
    271c:	0000                	unimp
    271e:	0000                	unimp
    2720:	0000                	unimp
    2722:	0000                	unimp
    2724:	0000                	unimp
    2726:	0000                	unimp
    2728:	0000                	unimp
    272a:	0000                	unimp
    272c:	0000                	unimp
    272e:	0000                	unimp
    2730:	0000                	unimp
    2732:	0000                	unimp
    2734:	0000                	unimp
    2736:	0000                	unimp
    2738:	0000                	unimp
    273a:	0000                	unimp
    273c:	0000                	unimp
    273e:	0000                	unimp
    2740:	0000                	unimp
    2742:	0000                	unimp
    2744:	0000                	unimp
    2746:	0000                	unimp
    2748:	0000                	unimp
    274a:	0000                	unimp
    274c:	0000                	unimp
    274e:	0000                	unimp
    2750:	0000                	unimp
    2752:	0000                	unimp
    2754:	0000                	unimp
    2756:	0000                	unimp
    2758:	0000                	unimp
    275a:	0000                	unimp
    275c:	0000                	unimp
    275e:	0000                	unimp
    2760:	0000                	unimp
    2762:	0000                	unimp
    2764:	0000                	unimp
    2766:	0000                	unimp
    2768:	0000                	unimp
    276a:	0000                	unimp
    276c:	0000                	unimp
    276e:	0000                	unimp
    2770:	0000                	unimp
    2772:	0000                	unimp
    2774:	0000                	unimp
    2776:	0000                	unimp
    2778:	0000                	unimp
    277a:	0000                	unimp
    277c:	0000                	unimp
    277e:	0000                	unimp
    2780:	0000                	unimp
    2782:	0000                	unimp
    2784:	0000                	unimp
    2786:	0000                	unimp
    2788:	0000                	unimp
    278a:	0000                	unimp
    278c:	0000                	unimp
    278e:	0000                	unimp
    2790:	0000                	unimp
    2792:	0000                	unimp
    2794:	0000                	unimp
    2796:	0000                	unimp
    2798:	0000                	unimp
    279a:	0000                	unimp
    279c:	0000                	unimp
    279e:	0000                	unimp
    27a0:	0000                	unimp
    27a2:	0000                	unimp
    27a4:	0000                	unimp
    27a6:	0000                	unimp
    27a8:	0000                	unimp
    27aa:	0000                	unimp
    27ac:	0000                	unimp
    27ae:	0000                	unimp
    27b0:	0000                	unimp
    27b2:	0000                	unimp
    27b4:	0000                	unimp
    27b6:	0000                	unimp
    27b8:	0000                	unimp
    27ba:	0000                	unimp
    27bc:	0000                	unimp
    27be:	0000                	unimp
    27c0:	0000                	unimp
    27c2:	0000                	unimp
    27c4:	0000                	unimp
    27c6:	0000                	unimp
    27c8:	0000                	unimp
    27ca:	0000                	unimp
    27cc:	0000                	unimp
    27ce:	0000                	unimp
    27d0:	0000                	unimp
    27d2:	0000                	unimp
    27d4:	0000                	unimp
    27d6:	0000                	unimp
    27d8:	0000                	unimp
    27da:	0000                	unimp
    27dc:	0000                	unimp
    27de:	0000                	unimp
    27e0:	0000                	unimp
    27e2:	0000                	unimp
    27e4:	0000                	unimp
    27e6:	0000                	unimp
    27e8:	0000                	unimp
    27ea:	0000                	unimp
    27ec:	0000                	unimp
    27ee:	0000                	unimp
    27f0:	0000                	unimp
    27f2:	0000                	unimp
    27f4:	0000                	unimp
    27f6:	0000                	unimp
    27f8:	0000                	unimp
    27fa:	0000                	unimp
    27fc:	0000                	unimp
    27fe:	0000                	unimp
    2800:	0000                	unimp
    2802:	0000                	unimp
    2804:	0000                	unimp
    2806:	0000                	unimp
    2808:	0000                	unimp
    280a:	0000                	unimp
    280c:	0000                	unimp
    280e:	0000                	unimp
    2810:	0000                	unimp
    2812:	0000                	unimp
    2814:	0000                	unimp
    2816:	0000                	unimp
    2818:	0000                	unimp
    281a:	0000                	unimp
    281c:	0000                	unimp
    281e:	0000                	unimp
    2820:	0000                	unimp
    2822:	0000                	unimp
    2824:	0000                	unimp
    2826:	0000                	unimp
    2828:	0000                	unimp
    282a:	0000                	unimp
    282c:	0000                	unimp
    282e:	0000                	unimp
    2830:	0000                	unimp
    2832:	0000                	unimp
    2834:	0000                	unimp
    2836:	0000                	unimp
    2838:	0000                	unimp
    283a:	0000                	unimp
    283c:	0000                	unimp
    283e:	0000                	unimp
    2840:	0000                	unimp
    2842:	0000                	unimp
    2844:	0000                	unimp
    2846:	0000                	unimp
    2848:	0000                	unimp
    284a:	0000                	unimp
    284c:	0000                	unimp
    284e:	0000                	unimp
    2850:	0000                	unimp
    2852:	0000                	unimp
    2854:	0000                	unimp
    2856:	0000                	unimp
    2858:	0000                	unimp
    285a:	0000                	unimp
    285c:	0000                	unimp
    285e:	0000                	unimp
    2860:	0000                	unimp
    2862:	0000                	unimp
    2864:	0000                	unimp
    2866:	0000                	unimp
    2868:	0000                	unimp
    286a:	0000                	unimp
    286c:	0000                	unimp
    286e:	0000                	unimp
    2870:	0000                	unimp
    2872:	0000                	unimp
    2874:	0000                	unimp
    2876:	0000                	unimp
    2878:	0000                	unimp
    287a:	0000                	unimp
    287c:	0000                	unimp
    287e:	0000                	unimp
    2880:	0000                	unimp
    2882:	0000                	unimp
    2884:	0000                	unimp
    2886:	0000                	unimp
    2888:	0000                	unimp
    288a:	0000                	unimp
    288c:	0000                	unimp
    288e:	0000                	unimp
    2890:	0000                	unimp
    2892:	0000                	unimp
    2894:	0000                	unimp
    2896:	0000                	unimp
    2898:	0000                	unimp
    289a:	0000                	unimp
    289c:	0000                	unimp
    289e:	0000                	unimp
    28a0:	0000                	unimp
    28a2:	0000                	unimp
    28a4:	0000                	unimp
    28a6:	0000                	unimp
    28a8:	0000                	unimp
    28aa:	0000                	unimp
    28ac:	0000                	unimp
    28ae:	0000                	unimp
    28b0:	0000                	unimp
    28b2:	0000                	unimp
    28b4:	0000                	unimp
    28b6:	0000                	unimp
    28b8:	0000                	unimp
    28ba:	0000                	unimp
    28bc:	0000                	unimp
    28be:	0000                	unimp
    28c0:	0000                	unimp
    28c2:	0000                	unimp
    28c4:	0000                	unimp
    28c6:	0000                	unimp
    28c8:	0000                	unimp
    28ca:	0000                	unimp
    28cc:	0000                	unimp
    28ce:	0000                	unimp
    28d0:	0000                	unimp
    28d2:	0000                	unimp
    28d4:	0000                	unimp
    28d6:	0000                	unimp
    28d8:	0000                	unimp
    28da:	0000                	unimp
    28dc:	0000                	unimp
    28de:	0000                	unimp
    28e0:	0000                	unimp
    28e2:	0000                	unimp
    28e4:	0000                	unimp
    28e6:	0000                	unimp
    28e8:	0000                	unimp
    28ea:	0000                	unimp
    28ec:	0000                	unimp
    28ee:	0000                	unimp
    28f0:	0000                	unimp
    28f2:	0000                	unimp
    28f4:	0000                	unimp
    28f6:	0000                	unimp
    28f8:	0000                	unimp
    28fa:	0000                	unimp
    28fc:	0000                	unimp
    28fe:	0000                	unimp
    2900:	0000                	unimp
    2902:	0000                	unimp
    2904:	0000                	unimp
    2906:	0000                	unimp
    2908:	0000                	unimp
    290a:	0000                	unimp
    290c:	0000                	unimp
    290e:	0000                	unimp
    2910:	0000                	unimp
    2912:	0000                	unimp
    2914:	0000                	unimp
    2916:	0000                	unimp
    2918:	0000                	unimp
    291a:	0000                	unimp
    291c:	0000                	unimp
    291e:	0000                	unimp
    2920:	0000                	unimp
    2922:	0000                	unimp
    2924:	0000                	unimp
    2926:	0000                	unimp
    2928:	0000                	unimp
    292a:	0000                	unimp
    292c:	0000                	unimp
    292e:	0000                	unimp
    2930:	0000                	unimp
    2932:	0000                	unimp
    2934:	0000                	unimp
    2936:	0000                	unimp
    2938:	0000                	unimp
    293a:	0000                	unimp
    293c:	0000                	unimp
    293e:	0000                	unimp
    2940:	0000                	unimp
    2942:	0000                	unimp
    2944:	0000                	unimp
    2946:	0000                	unimp
    2948:	0000                	unimp
    294a:	0000                	unimp
    294c:	0000                	unimp
    294e:	0000                	unimp
    2950:	0000                	unimp
    2952:	0000                	unimp
    2954:	0000                	unimp
    2956:	0000                	unimp
    2958:	0000                	unimp
    295a:	0000                	unimp
    295c:	0000                	unimp
    295e:	0000                	unimp
    2960:	0000                	unimp
    2962:	0000                	unimp
    2964:	0000                	unimp
    2966:	0000                	unimp
    2968:	0000                	unimp
    296a:	0000                	unimp
    296c:	0000                	unimp
    296e:	0000                	unimp
    2970:	0000                	unimp
    2972:	0000                	unimp
    2974:	0000                	unimp
    2976:	0000                	unimp
    2978:	0000                	unimp
    297a:	0000                	unimp
    297c:	0000                	unimp
    297e:	0000                	unimp
    2980:	0000                	unimp
    2982:	0000                	unimp
    2984:	0000                	unimp
    2986:	0000                	unimp
    2988:	0000                	unimp
    298a:	0000                	unimp
    298c:	0000                	unimp
    298e:	0000                	unimp
    2990:	0000                	unimp
    2992:	0000                	unimp
    2994:	0000                	unimp
    2996:	0000                	unimp
    2998:	0000                	unimp
    299a:	0000                	unimp
    299c:	0000                	unimp
    299e:	0000                	unimp
    29a0:	0000                	unimp
    29a2:	0000                	unimp
    29a4:	0000                	unimp
    29a6:	0000                	unimp
    29a8:	0000                	unimp
    29aa:	0000                	unimp
    29ac:	0000                	unimp
    29ae:	0000                	unimp
    29b0:	0000                	unimp
    29b2:	0000                	unimp
    29b4:	0000                	unimp
    29b6:	0000                	unimp
    29b8:	0000                	unimp
    29ba:	0000                	unimp
    29bc:	0000                	unimp
    29be:	0000                	unimp
    29c0:	0000                	unimp
    29c2:	0000                	unimp
    29c4:	0000                	unimp
    29c6:	0000                	unimp
    29c8:	0000                	unimp
    29ca:	0000                	unimp
    29cc:	0000                	unimp
    29ce:	0000                	unimp
    29d0:	0000                	unimp
    29d2:	0000                	unimp
    29d4:	0000                	unimp
    29d6:	0000                	unimp
    29d8:	0000                	unimp
    29da:	0000                	unimp
    29dc:	0000                	unimp
    29de:	0000                	unimp
    29e0:	0000                	unimp
    29e2:	0000                	unimp
    29e4:	0000                	unimp
    29e6:	0000                	unimp
    29e8:	0000                	unimp
    29ea:	0000                	unimp
    29ec:	0000                	unimp
    29ee:	0000                	unimp
    29f0:	0000                	unimp
    29f2:	0000                	unimp
    29f4:	0000                	unimp
    29f6:	0000                	unimp
    29f8:	0000                	unimp
    29fa:	0000                	unimp
    29fc:	0000                	unimp
    29fe:	0000                	unimp
    2a00:	0000                	unimp
    2a02:	0000                	unimp
    2a04:	0000                	unimp
    2a06:	0000                	unimp
    2a08:	0000                	unimp
    2a0a:	0000                	unimp
    2a0c:	0000                	unimp
    2a0e:	0000                	unimp
    2a10:	0000                	unimp
    2a12:	0000                	unimp
    2a14:	0000                	unimp
    2a16:	0000                	unimp
    2a18:	0000                	unimp
    2a1a:	0000                	unimp
    2a1c:	0000                	unimp
    2a1e:	0000                	unimp
    2a20:	0000                	unimp
    2a22:	0000                	unimp
    2a24:	0000                	unimp
    2a26:	0000                	unimp
    2a28:	0000                	unimp
    2a2a:	0000                	unimp
    2a2c:	0000                	unimp
    2a2e:	0000                	unimp
    2a30:	0000                	unimp
    2a32:	0000                	unimp
    2a34:	0000                	unimp
    2a36:	0000                	unimp
    2a38:	0000                	unimp
    2a3a:	0000                	unimp
    2a3c:	0000                	unimp
    2a3e:	0000                	unimp
    2a40:	0000                	unimp
    2a42:	0000                	unimp
    2a44:	0000                	unimp
    2a46:	0000                	unimp
    2a48:	0000                	unimp
    2a4a:	0000                	unimp
    2a4c:	0000                	unimp
    2a4e:	0000                	unimp
    2a50:	0000                	unimp
    2a52:	0000                	unimp
    2a54:	0000                	unimp
    2a56:	0000                	unimp
    2a58:	0000                	unimp
    2a5a:	0000                	unimp
    2a5c:	0000                	unimp
    2a5e:	0000                	unimp
    2a60:	0000                	unimp
    2a62:	0000                	unimp
    2a64:	0000                	unimp
    2a66:	0000                	unimp
    2a68:	0000                	unimp
    2a6a:	0000                	unimp
    2a6c:	0000                	unimp
    2a6e:	0000                	unimp
    2a70:	0000                	unimp
    2a72:	0000                	unimp
    2a74:	0000                	unimp
    2a76:	0000                	unimp
    2a78:	0000                	unimp
    2a7a:	0000                	unimp
    2a7c:	0000                	unimp
    2a7e:	0000                	unimp
    2a80:	0000                	unimp
    2a82:	0000                	unimp
    2a84:	0000                	unimp
    2a86:	0000                	unimp
    2a88:	0000                	unimp
    2a8a:	0000                	unimp
    2a8c:	0000                	unimp
    2a8e:	0000                	unimp
    2a90:	0000                	unimp
    2a92:	0000                	unimp
    2a94:	0000                	unimp
    2a96:	0000                	unimp
    2a98:	0000                	unimp
    2a9a:	0000                	unimp
    2a9c:	0000                	unimp
    2a9e:	0000                	unimp
    2aa0:	0000                	unimp
    2aa2:	0000                	unimp
    2aa4:	0000                	unimp
    2aa6:	0000                	unimp
    2aa8:	0000                	unimp
    2aaa:	0000                	unimp
    2aac:	0000                	unimp
    2aae:	0000                	unimp
    2ab0:	0000                	unimp
    2ab2:	0000                	unimp
    2ab4:	0000                	unimp
    2ab6:	0000                	unimp
    2ab8:	0000                	unimp
    2aba:	0000                	unimp
    2abc:	0000                	unimp
    2abe:	0000                	unimp
    2ac0:	0000                	unimp
    2ac2:	0000                	unimp
    2ac4:	0000                	unimp
    2ac6:	0000                	unimp
    2ac8:	0000                	unimp
    2aca:	0000                	unimp
    2acc:	0000                	unimp
    2ace:	0000                	unimp
    2ad0:	0000                	unimp
    2ad2:	0000                	unimp
    2ad4:	0000                	unimp
    2ad6:	0000                	unimp
    2ad8:	0000                	unimp
    2ada:	0000                	unimp
    2adc:	0000                	unimp
    2ade:	0000                	unimp
    2ae0:	0000                	unimp
    2ae2:	0000                	unimp
    2ae4:	0000                	unimp
    2ae6:	0000                	unimp
    2ae8:	0000                	unimp
    2aea:	0000                	unimp
    2aec:	0000                	unimp
    2aee:	0000                	unimp
    2af0:	0000                	unimp
    2af2:	0000                	unimp
    2af4:	0000                	unimp
    2af6:	0000                	unimp
    2af8:	0000                	unimp
    2afa:	0000                	unimp
    2afc:	0000                	unimp
    2afe:	0000                	unimp
    2b00:	0000                	unimp
    2b02:	0000                	unimp
    2b04:	0000                	unimp
    2b06:	0000                	unimp
    2b08:	0000                	unimp
    2b0a:	0000                	unimp
    2b0c:	0000                	unimp
    2b0e:	0000                	unimp
    2b10:	0000                	unimp
    2b12:	0000                	unimp
    2b14:	0000                	unimp
    2b16:	0000                	unimp
    2b18:	0000                	unimp
    2b1a:	0000                	unimp
    2b1c:	0000                	unimp
    2b1e:	0000                	unimp
    2b20:	0000                	unimp
    2b22:	0000                	unimp
    2b24:	0000                	unimp
    2b26:	0000                	unimp
    2b28:	0000                	unimp
    2b2a:	0000                	unimp
    2b2c:	0000                	unimp
    2b2e:	0000                	unimp
    2b30:	0000                	unimp
    2b32:	0000                	unimp
    2b34:	0000                	unimp
    2b36:	0000                	unimp
    2b38:	0000                	unimp
    2b3a:	0000                	unimp
    2b3c:	0000                	unimp
    2b3e:	0000                	unimp
    2b40:	0000                	unimp
    2b42:	0000                	unimp
    2b44:	0000                	unimp
    2b46:	0000                	unimp
    2b48:	0000                	unimp
    2b4a:	0000                	unimp
    2b4c:	0000                	unimp
    2b4e:	0000                	unimp
    2b50:	0000                	unimp
    2b52:	0000                	unimp
    2b54:	0000                	unimp
    2b56:	0000                	unimp
    2b58:	0000                	unimp
    2b5a:	0000                	unimp
    2b5c:	0000                	unimp
    2b5e:	0000                	unimp
    2b60:	0000                	unimp
    2b62:	0000                	unimp
    2b64:	0000                	unimp
    2b66:	0000                	unimp
    2b68:	0000                	unimp
    2b6a:	0000                	unimp
    2b6c:	0000                	unimp
    2b6e:	0000                	unimp
    2b70:	0000                	unimp
    2b72:	0000                	unimp
    2b74:	0000                	unimp
    2b76:	0000                	unimp
    2b78:	0000                	unimp
    2b7a:	0000                	unimp
    2b7c:	0000                	unimp
    2b7e:	0000                	unimp
    2b80:	0000                	unimp
    2b82:	0000                	unimp
    2b84:	0000                	unimp
    2b86:	0000                	unimp
    2b88:	0000                	unimp
    2b8a:	0000                	unimp
    2b8c:	0000                	unimp
    2b8e:	0000                	unimp
    2b90:	0000                	unimp
    2b92:	0000                	unimp
    2b94:	0000                	unimp
    2b96:	0000                	unimp
    2b98:	0000                	unimp
    2b9a:	0000                	unimp
    2b9c:	0000                	unimp
    2b9e:	0000                	unimp
    2ba0:	0000                	unimp
    2ba2:	0000                	unimp
    2ba4:	0000                	unimp
    2ba6:	0000                	unimp
    2ba8:	0000                	unimp
    2baa:	0000                	unimp
    2bac:	0000                	unimp
    2bae:	0000                	unimp
    2bb0:	0000                	unimp
    2bb2:	0000                	unimp
    2bb4:	0000                	unimp
    2bb6:	0000                	unimp
    2bb8:	0000                	unimp
    2bba:	0000                	unimp
    2bbc:	0000                	unimp
    2bbe:	0000                	unimp
    2bc0:	0000                	unimp
    2bc2:	0000                	unimp
    2bc4:	0000                	unimp
    2bc6:	0000                	unimp
    2bc8:	0000                	unimp
    2bca:	0000                	unimp
    2bcc:	0000                	unimp
    2bce:	0000                	unimp
    2bd0:	0000                	unimp
    2bd2:	0000                	unimp
    2bd4:	0000                	unimp
    2bd6:	0000                	unimp
    2bd8:	0000                	unimp
    2bda:	0000                	unimp
    2bdc:	0000                	unimp
    2bde:	0000                	unimp
    2be0:	0000                	unimp
    2be2:	0000                	unimp
    2be4:	0000                	unimp
    2be6:	0000                	unimp
    2be8:	0000                	unimp
    2bea:	0000                	unimp
    2bec:	0000                	unimp
    2bee:	0000                	unimp
    2bf0:	0000                	unimp
    2bf2:	0000                	unimp
    2bf4:	0000                	unimp
    2bf6:	0000                	unimp
    2bf8:	0000                	unimp
    2bfa:	0000                	unimp
    2bfc:	0000                	unimp
    2bfe:	0000                	unimp
    2c00:	0000                	unimp
    2c02:	0000                	unimp
    2c04:	0000                	unimp
    2c06:	0000                	unimp
    2c08:	0000                	unimp
    2c0a:	0000                	unimp
    2c0c:	0000                	unimp
    2c0e:	0000                	unimp
    2c10:	0000                	unimp
    2c12:	0000                	unimp
    2c14:	0000                	unimp
    2c16:	0000                	unimp
    2c18:	0000                	unimp
    2c1a:	0000                	unimp
    2c1c:	0000                	unimp
    2c1e:	0000                	unimp
    2c20:	0000                	unimp
    2c22:	0000                	unimp
    2c24:	0000                	unimp
    2c26:	0000                	unimp
    2c28:	0000                	unimp
    2c2a:	0000                	unimp
    2c2c:	0000                	unimp
    2c2e:	0000                	unimp
    2c30:	0000                	unimp
    2c32:	0000                	unimp
    2c34:	0000                	unimp
    2c36:	0000                	unimp
    2c38:	0000                	unimp
    2c3a:	0000                	unimp
    2c3c:	0000                	unimp
    2c3e:	0000                	unimp
    2c40:	0000                	unimp
    2c42:	0000                	unimp
    2c44:	0000                	unimp
    2c46:	0000                	unimp
    2c48:	0000                	unimp
    2c4a:	0000                	unimp
    2c4c:	0000                	unimp
    2c4e:	0000                	unimp
    2c50:	0000                	unimp
    2c52:	0000                	unimp
    2c54:	0000                	unimp
    2c56:	0000                	unimp
    2c58:	0000                	unimp
    2c5a:	0000                	unimp
    2c5c:	0000                	unimp
    2c5e:	0000                	unimp
    2c60:	0000                	unimp
    2c62:	0000                	unimp
    2c64:	0000                	unimp
    2c66:	0000                	unimp
    2c68:	0000                	unimp
    2c6a:	0000                	unimp
    2c6c:	0000                	unimp
    2c6e:	0000                	unimp
    2c70:	0000                	unimp
    2c72:	0000                	unimp
    2c74:	0000                	unimp
    2c76:	0000                	unimp
    2c78:	0000                	unimp
    2c7a:	0000                	unimp
    2c7c:	0000                	unimp
    2c7e:	0000                	unimp
    2c80:	0000                	unimp
    2c82:	0000                	unimp
    2c84:	0000                	unimp
    2c86:	0000                	unimp
    2c88:	0000                	unimp
    2c8a:	0000                	unimp
    2c8c:	0000                	unimp
    2c8e:	0000                	unimp
    2c90:	0000                	unimp
    2c92:	0000                	unimp
    2c94:	0000                	unimp
    2c96:	0000                	unimp
    2c98:	0000                	unimp
    2c9a:	0000                	unimp
    2c9c:	0000                	unimp
    2c9e:	0000                	unimp
    2ca0:	0000                	unimp
    2ca2:	0000                	unimp
    2ca4:	0000                	unimp
    2ca6:	0000                	unimp
    2ca8:	0000                	unimp
    2caa:	0000                	unimp
    2cac:	0000                	unimp
    2cae:	0000                	unimp
    2cb0:	0000                	unimp
    2cb2:	0000                	unimp
    2cb4:	0000                	unimp
    2cb6:	0000                	unimp
    2cb8:	0000                	unimp
    2cba:	0000                	unimp
    2cbc:	0000                	unimp
    2cbe:	0000                	unimp
    2cc0:	0000                	unimp
    2cc2:	0000                	unimp
    2cc4:	0000                	unimp
    2cc6:	0000                	unimp
    2cc8:	0000                	unimp
    2cca:	0000                	unimp
    2ccc:	0000                	unimp
    2cce:	0000                	unimp
    2cd0:	0000                	unimp
    2cd2:	0000                	unimp
    2cd4:	0000                	unimp
    2cd6:	0000                	unimp
    2cd8:	0000                	unimp
    2cda:	0000                	unimp
    2cdc:	0000                	unimp
    2cde:	0000                	unimp
    2ce0:	0000                	unimp
    2ce2:	0000                	unimp
    2ce4:	0000                	unimp
    2ce6:	0000                	unimp
    2ce8:	0000                	unimp
    2cea:	0000                	unimp
    2cec:	0000                	unimp
    2cee:	0000                	unimp
    2cf0:	0000                	unimp
    2cf2:	0000                	unimp
    2cf4:	0000                	unimp
    2cf6:	0000                	unimp
    2cf8:	0000                	unimp
    2cfa:	0000                	unimp
    2cfc:	0000                	unimp
    2cfe:	0000                	unimp
    2d00:	0000                	unimp
    2d02:	0000                	unimp
    2d04:	0000                	unimp
    2d06:	0000                	unimp
    2d08:	0000                	unimp
    2d0a:	0000                	unimp
    2d0c:	0000                	unimp
    2d0e:	0000                	unimp
    2d10:	0000                	unimp
    2d12:	0000                	unimp
    2d14:	0000                	unimp
    2d16:	0000                	unimp
    2d18:	0000                	unimp
    2d1a:	0000                	unimp
    2d1c:	0000                	unimp
    2d1e:	0000                	unimp
    2d20:	0000                	unimp
    2d22:	0000                	unimp
    2d24:	0000                	unimp
    2d26:	0000                	unimp
    2d28:	0000                	unimp
    2d2a:	0000                	unimp
    2d2c:	0000                	unimp
    2d2e:	0000                	unimp
    2d30:	0000                	unimp
    2d32:	0000                	unimp
    2d34:	0000                	unimp
    2d36:	0000                	unimp
    2d38:	0000                	unimp
    2d3a:	0000                	unimp
    2d3c:	0000                	unimp
    2d3e:	0000                	unimp
    2d40:	0000                	unimp
    2d42:	0000                	unimp
    2d44:	0000                	unimp
    2d46:	0000                	unimp
    2d48:	0000                	unimp
    2d4a:	0000                	unimp
    2d4c:	0000                	unimp
    2d4e:	0000                	unimp
    2d50:	0000                	unimp
    2d52:	0000                	unimp
    2d54:	0000                	unimp
    2d56:	0000                	unimp
    2d58:	0000                	unimp
    2d5a:	0000                	unimp
    2d5c:	0000                	unimp
    2d5e:	0000                	unimp
    2d60:	0000                	unimp
    2d62:	0000                	unimp
    2d64:	0000                	unimp
    2d66:	0000                	unimp
    2d68:	0000                	unimp
    2d6a:	0000                	unimp
    2d6c:	0000                	unimp
    2d6e:	0000                	unimp
    2d70:	0000                	unimp
    2d72:	0000                	unimp
    2d74:	0000                	unimp
    2d76:	0000                	unimp
    2d78:	0000                	unimp
    2d7a:	0000                	unimp
    2d7c:	0000                	unimp
    2d7e:	0000                	unimp
    2d80:	0000                	unimp
    2d82:	0000                	unimp
    2d84:	0000                	unimp
    2d86:	0000                	unimp
    2d88:	0000                	unimp
    2d8a:	0000                	unimp
    2d8c:	0000                	unimp
    2d8e:	0000                	unimp
    2d90:	0000                	unimp
    2d92:	0000                	unimp
    2d94:	0000                	unimp
    2d96:	0000                	unimp
    2d98:	0000                	unimp
    2d9a:	0000                	unimp
    2d9c:	0000                	unimp
    2d9e:	0000                	unimp
    2da0:	0000                	unimp
    2da2:	0000                	unimp
    2da4:	0000                	unimp
    2da6:	0000                	unimp
    2da8:	0000                	unimp
    2daa:	0000                	unimp
    2dac:	0000                	unimp
    2dae:	0000                	unimp
    2db0:	0000                	unimp
    2db2:	0000                	unimp
    2db4:	0000                	unimp
    2db6:	0000                	unimp
    2db8:	0000                	unimp
    2dba:	0000                	unimp
    2dbc:	0000                	unimp
    2dbe:	0000                	unimp
    2dc0:	0000                	unimp
    2dc2:	0000                	unimp
    2dc4:	0000                	unimp
    2dc6:	0000                	unimp
    2dc8:	0000                	unimp
    2dca:	0000                	unimp
    2dcc:	0000                	unimp
    2dce:	0000                	unimp
    2dd0:	0000                	unimp
    2dd2:	0000                	unimp
    2dd4:	0000                	unimp
    2dd6:	0000                	unimp
    2dd8:	0000                	unimp
    2dda:	0000                	unimp
    2ddc:	0000                	unimp
    2dde:	0000                	unimp
    2de0:	0000                	unimp
    2de2:	0000                	unimp
    2de4:	0000                	unimp
    2de6:	0000                	unimp
    2de8:	0000                	unimp
    2dea:	0000                	unimp
    2dec:	0000                	unimp
    2dee:	0000                	unimp
    2df0:	0000                	unimp
    2df2:	0000                	unimp
    2df4:	0000                	unimp
    2df6:	0000                	unimp
    2df8:	0000                	unimp
    2dfa:	0000                	unimp
    2dfc:	0000                	unimp
    2dfe:	0000                	unimp
    2e00:	0000                	unimp
    2e02:	0000                	unimp
    2e04:	0000                	unimp
    2e06:	0000                	unimp
    2e08:	0000                	unimp
    2e0a:	0000                	unimp
    2e0c:	0000                	unimp
